
curtain-manage-prototype.elf:     file format elf32-littlearm

Sections:
Idx Name          Size      VMA       LMA       File off  Algn
  0 .isr_vector   000000c0  08000000  08000000  00010000  2**0
                  CONTENTS, ALLOC, LOAD, READONLY, DATA
  1 .text         00006324  080000c0  080000c0  000100c0  2**2
                  CONTENTS, ALLOC, LOAD, READONLY, CODE
  2 .rodata       00000378  080063e4  080063e4  000163e4  2**2
                  CONTENTS, ALLOC, LOAD, READONLY, DATA
  3 .ARM.extab    00000000  0800675c  0800675c  00020090  2**0
                  CONTENTS
  4 .ARM          00000008  0800675c  0800675c  0001675c  2**2
                  CONTENTS, ALLOC, LOAD, READONLY, DATA
  5 .preinit_array 00000000  08006764  08006764  00020090  2**0
                  CONTENTS, ALLOC, LOAD, DATA
  6 .init_array   00000004  08006764  08006764  00016764  2**2
                  CONTENTS, ALLOC, LOAD, DATA
  7 .fini_array   00000004  08006768  08006768  00016768  2**2
                  CONTENTS, ALLOC, LOAD, DATA
  8 .data         00000090  20000000  0800676c  00020000  2**2
                  CONTENTS, ALLOC, LOAD, DATA
  9 .bss          0000030c  20000090  080067fc  00020090  2**2
                  ALLOC
 10 ._user_heap_stack 00000604  2000039c  080067fc  0002039c  2**0
                  ALLOC
 11 .ARM.attributes 00000028  00000000  00000000  00020090  2**0
                  CONTENTS, READONLY
 12 .debug_info   0001f0a2  00000000  00000000  000200b8  2**0
                  CONTENTS, READONLY, DEBUGGING, OCTETS
 13 .debug_abbrev 000038ed  00000000  00000000  0003f15a  2**0
                  CONTENTS, READONLY, DEBUGGING, OCTETS
 14 .debug_aranges 00000f80  00000000  00000000  00042a48  2**3
                  CONTENTS, READONLY, DEBUGGING, OCTETS
 15 .debug_ranges 00000e18  00000000  00000000  000439c8  2**3
                  CONTENTS, READONLY, DEBUGGING, OCTETS
 16 .debug_macro  00018b36  00000000  00000000  000447e0  2**0
                  CONTENTS, READONLY, DEBUGGING, OCTETS
 17 .debug_line   00015a7b  00000000  00000000  0005d316  2**0
                  CONTENTS, READONLY, DEBUGGING, OCTETS
 18 .debug_str    00089b98  00000000  00000000  00072d91  2**0
                  CONTENTS, READONLY, DEBUGGING, OCTETS
 19 .comment      00000053  00000000  00000000  000fc929  2**0
                  CONTENTS, READONLY
 20 .debug_frame  00003a80  00000000  00000000  000fc97c  2**2
                  CONTENTS, READONLY, DEBUGGING, OCTETS

Disassembly of section .text:

080000c0 <__do_global_dtors_aux>:
 80000c0:	b510      	push	{r4, lr}
 80000c2:	4c06      	ldr	r4, [pc, #24]	; (80000dc <__do_global_dtors_aux+0x1c>)
 80000c4:	7823      	ldrb	r3, [r4, #0]
 80000c6:	2b00      	cmp	r3, #0
 80000c8:	d107      	bne.n	80000da <__do_global_dtors_aux+0x1a>
 80000ca:	4b05      	ldr	r3, [pc, #20]	; (80000e0 <__do_global_dtors_aux+0x20>)
 80000cc:	2b00      	cmp	r3, #0
 80000ce:	d002      	beq.n	80000d6 <__do_global_dtors_aux+0x16>
 80000d0:	4804      	ldr	r0, [pc, #16]	; (80000e4 <__do_global_dtors_aux+0x24>)
 80000d2:	e000      	b.n	80000d6 <__do_global_dtors_aux+0x16>
 80000d4:	bf00      	nop
 80000d6:	2301      	movs	r3, #1
 80000d8:	7023      	strb	r3, [r4, #0]
 80000da:	bd10      	pop	{r4, pc}
 80000dc:	20000090 	.word	0x20000090
 80000e0:	00000000 	.word	0x00000000
 80000e4:	080063cc 	.word	0x080063cc

080000e8 <frame_dummy>:
 80000e8:	4b04      	ldr	r3, [pc, #16]	; (80000fc <frame_dummy+0x14>)
 80000ea:	b510      	push	{r4, lr}
 80000ec:	2b00      	cmp	r3, #0
 80000ee:	d003      	beq.n	80000f8 <frame_dummy+0x10>
 80000f0:	4903      	ldr	r1, [pc, #12]	; (8000100 <frame_dummy+0x18>)
 80000f2:	4804      	ldr	r0, [pc, #16]	; (8000104 <frame_dummy+0x1c>)
 80000f4:	e000      	b.n	80000f8 <frame_dummy+0x10>
 80000f6:	bf00      	nop
 80000f8:	bd10      	pop	{r4, pc}
 80000fa:	46c0      	nop			; (mov r8, r8)
 80000fc:	00000000 	.word	0x00000000
 8000100:	20000094 	.word	0x20000094
 8000104:	080063cc 	.word	0x080063cc

08000108 <strlen>:
 8000108:	2300      	movs	r3, #0
 800010a:	5cc2      	ldrb	r2, [r0, r3]
 800010c:	3301      	adds	r3, #1
 800010e:	2a00      	cmp	r2, #0
 8000110:	d1fb      	bne.n	800010a <strlen+0x2>
 8000112:	1e58      	subs	r0, r3, #1
 8000114:	4770      	bx	lr
	...

08000118 <__gnu_thumb1_case_shi>:
 8000118:	b403      	push	{r0, r1}
 800011a:	4671      	mov	r1, lr
 800011c:	0849      	lsrs	r1, r1, #1
 800011e:	0040      	lsls	r0, r0, #1
 8000120:	0049      	lsls	r1, r1, #1
 8000122:	5e09      	ldrsh	r1, [r1, r0]
 8000124:	0049      	lsls	r1, r1, #1
 8000126:	448e      	add	lr, r1
 8000128:	bc03      	pop	{r0, r1}
 800012a:	4770      	bx	lr

0800012c <__udivsi3>:
 800012c:	2200      	movs	r2, #0
 800012e:	0843      	lsrs	r3, r0, #1
 8000130:	428b      	cmp	r3, r1
 8000132:	d374      	bcc.n	800021e <__udivsi3+0xf2>
 8000134:	0903      	lsrs	r3, r0, #4
 8000136:	428b      	cmp	r3, r1
 8000138:	d35f      	bcc.n	80001fa <__udivsi3+0xce>
 800013a:	0a03      	lsrs	r3, r0, #8
 800013c:	428b      	cmp	r3, r1
 800013e:	d344      	bcc.n	80001ca <__udivsi3+0x9e>
 8000140:	0b03      	lsrs	r3, r0, #12
 8000142:	428b      	cmp	r3, r1
 8000144:	d328      	bcc.n	8000198 <__udivsi3+0x6c>
 8000146:	0c03      	lsrs	r3, r0, #16
 8000148:	428b      	cmp	r3, r1
 800014a:	d30d      	bcc.n	8000168 <__udivsi3+0x3c>
 800014c:	22ff      	movs	r2, #255	; 0xff
 800014e:	0209      	lsls	r1, r1, #8
 8000150:	ba12      	rev	r2, r2
 8000152:	0c03      	lsrs	r3, r0, #16
 8000154:	428b      	cmp	r3, r1
 8000156:	d302      	bcc.n	800015e <__udivsi3+0x32>
 8000158:	1212      	asrs	r2, r2, #8
 800015a:	0209      	lsls	r1, r1, #8
 800015c:	d065      	beq.n	800022a <__udivsi3+0xfe>
 800015e:	0b03      	lsrs	r3, r0, #12
 8000160:	428b      	cmp	r3, r1
 8000162:	d319      	bcc.n	8000198 <__udivsi3+0x6c>
 8000164:	e000      	b.n	8000168 <__udivsi3+0x3c>
 8000166:	0a09      	lsrs	r1, r1, #8
 8000168:	0bc3      	lsrs	r3, r0, #15
 800016a:	428b      	cmp	r3, r1
 800016c:	d301      	bcc.n	8000172 <__udivsi3+0x46>
 800016e:	03cb      	lsls	r3, r1, #15
 8000170:	1ac0      	subs	r0, r0, r3
 8000172:	4152      	adcs	r2, r2
 8000174:	0b83      	lsrs	r3, r0, #14
 8000176:	428b      	cmp	r3, r1
 8000178:	d301      	bcc.n	800017e <__udivsi3+0x52>
 800017a:	038b      	lsls	r3, r1, #14
 800017c:	1ac0      	subs	r0, r0, r3
 800017e:	4152      	adcs	r2, r2
 8000180:	0b43      	lsrs	r3, r0, #13
 8000182:	428b      	cmp	r3, r1
 8000184:	d301      	bcc.n	800018a <__udivsi3+0x5e>
 8000186:	034b      	lsls	r3, r1, #13
 8000188:	1ac0      	subs	r0, r0, r3
 800018a:	4152      	adcs	r2, r2
 800018c:	0b03      	lsrs	r3, r0, #12
 800018e:	428b      	cmp	r3, r1
 8000190:	d301      	bcc.n	8000196 <__udivsi3+0x6a>
 8000192:	030b      	lsls	r3, r1, #12
 8000194:	1ac0      	subs	r0, r0, r3
 8000196:	4152      	adcs	r2, r2
 8000198:	0ac3      	lsrs	r3, r0, #11
 800019a:	428b      	cmp	r3, r1
 800019c:	d301      	bcc.n	80001a2 <__udivsi3+0x76>
 800019e:	02cb      	lsls	r3, r1, #11
 80001a0:	1ac0      	subs	r0, r0, r3
 80001a2:	4152      	adcs	r2, r2
 80001a4:	0a83      	lsrs	r3, r0, #10
 80001a6:	428b      	cmp	r3, r1
 80001a8:	d301      	bcc.n	80001ae <__udivsi3+0x82>
 80001aa:	028b      	lsls	r3, r1, #10
 80001ac:	1ac0      	subs	r0, r0, r3
 80001ae:	4152      	adcs	r2, r2
 80001b0:	0a43      	lsrs	r3, r0, #9
 80001b2:	428b      	cmp	r3, r1
 80001b4:	d301      	bcc.n	80001ba <__udivsi3+0x8e>
 80001b6:	024b      	lsls	r3, r1, #9
 80001b8:	1ac0      	subs	r0, r0, r3
 80001ba:	4152      	adcs	r2, r2
 80001bc:	0a03      	lsrs	r3, r0, #8
 80001be:	428b      	cmp	r3, r1
 80001c0:	d301      	bcc.n	80001c6 <__udivsi3+0x9a>
 80001c2:	020b      	lsls	r3, r1, #8
 80001c4:	1ac0      	subs	r0, r0, r3
 80001c6:	4152      	adcs	r2, r2
 80001c8:	d2cd      	bcs.n	8000166 <__udivsi3+0x3a>
 80001ca:	09c3      	lsrs	r3, r0, #7
 80001cc:	428b      	cmp	r3, r1
 80001ce:	d301      	bcc.n	80001d4 <__udivsi3+0xa8>
 80001d0:	01cb      	lsls	r3, r1, #7
 80001d2:	1ac0      	subs	r0, r0, r3
 80001d4:	4152      	adcs	r2, r2
 80001d6:	0983      	lsrs	r3, r0, #6
 80001d8:	428b      	cmp	r3, r1
 80001da:	d301      	bcc.n	80001e0 <__udivsi3+0xb4>
 80001dc:	018b      	lsls	r3, r1, #6
 80001de:	1ac0      	subs	r0, r0, r3
 80001e0:	4152      	adcs	r2, r2
 80001e2:	0943      	lsrs	r3, r0, #5
 80001e4:	428b      	cmp	r3, r1
 80001e6:	d301      	bcc.n	80001ec <__udivsi3+0xc0>
 80001e8:	014b      	lsls	r3, r1, #5
 80001ea:	1ac0      	subs	r0, r0, r3
 80001ec:	4152      	adcs	r2, r2
 80001ee:	0903      	lsrs	r3, r0, #4
 80001f0:	428b      	cmp	r3, r1
 80001f2:	d301      	bcc.n	80001f8 <__udivsi3+0xcc>
 80001f4:	010b      	lsls	r3, r1, #4
 80001f6:	1ac0      	subs	r0, r0, r3
 80001f8:	4152      	adcs	r2, r2
 80001fa:	08c3      	lsrs	r3, r0, #3
 80001fc:	428b      	cmp	r3, r1
 80001fe:	d301      	bcc.n	8000204 <__udivsi3+0xd8>
 8000200:	00cb      	lsls	r3, r1, #3
 8000202:	1ac0      	subs	r0, r0, r3
 8000204:	4152      	adcs	r2, r2
 8000206:	0883      	lsrs	r3, r0, #2
 8000208:	428b      	cmp	r3, r1
 800020a:	d301      	bcc.n	8000210 <__udivsi3+0xe4>
 800020c:	008b      	lsls	r3, r1, #2
 800020e:	1ac0      	subs	r0, r0, r3
 8000210:	4152      	adcs	r2, r2
 8000212:	0843      	lsrs	r3, r0, #1
 8000214:	428b      	cmp	r3, r1
 8000216:	d301      	bcc.n	800021c <__udivsi3+0xf0>
 8000218:	004b      	lsls	r3, r1, #1
 800021a:	1ac0      	subs	r0, r0, r3
 800021c:	4152      	adcs	r2, r2
 800021e:	1a41      	subs	r1, r0, r1
 8000220:	d200      	bcs.n	8000224 <__udivsi3+0xf8>
 8000222:	4601      	mov	r1, r0
 8000224:	4152      	adcs	r2, r2
 8000226:	4610      	mov	r0, r2
 8000228:	4770      	bx	lr
 800022a:	e7ff      	b.n	800022c <__udivsi3+0x100>
 800022c:	b501      	push	{r0, lr}
 800022e:	2000      	movs	r0, #0
 8000230:	f000 f806 	bl	8000240 <__aeabi_idiv0>
 8000234:	bd02      	pop	{r1, pc}
 8000236:	46c0      	nop			; (mov r8, r8)

08000238 <__aeabi_uidivmod>:
 8000238:	2900      	cmp	r1, #0
 800023a:	d0f7      	beq.n	800022c <__udivsi3+0x100>
 800023c:	e776      	b.n	800012c <__udivsi3>
 800023e:	4770      	bx	lr

08000240 <__aeabi_idiv0>:
 8000240:	4770      	bx	lr
 8000242:	46c0      	nop			; (mov r8, r8)

08000244 <__aeabi_uldivmod>:
 8000244:	2b00      	cmp	r3, #0
 8000246:	d111      	bne.n	800026c <__aeabi_uldivmod+0x28>
 8000248:	2a00      	cmp	r2, #0
 800024a:	d10f      	bne.n	800026c <__aeabi_uldivmod+0x28>
 800024c:	2900      	cmp	r1, #0
 800024e:	d100      	bne.n	8000252 <__aeabi_uldivmod+0xe>
 8000250:	2800      	cmp	r0, #0
 8000252:	d002      	beq.n	800025a <__aeabi_uldivmod+0x16>
 8000254:	2100      	movs	r1, #0
 8000256:	43c9      	mvns	r1, r1
 8000258:	1c08      	adds	r0, r1, #0
 800025a:	b407      	push	{r0, r1, r2}
 800025c:	4802      	ldr	r0, [pc, #8]	; (8000268 <__aeabi_uldivmod+0x24>)
 800025e:	a102      	add	r1, pc, #8	; (adr r1, 8000268 <__aeabi_uldivmod+0x24>)
 8000260:	1840      	adds	r0, r0, r1
 8000262:	9002      	str	r0, [sp, #8]
 8000264:	bd03      	pop	{r0, r1, pc}
 8000266:	46c0      	nop			; (mov r8, r8)
 8000268:	ffffffd9 	.word	0xffffffd9
 800026c:	b403      	push	{r0, r1}
 800026e:	4668      	mov	r0, sp
 8000270:	b501      	push	{r0, lr}
 8000272:	9802      	ldr	r0, [sp, #8]
 8000274:	f000 f82e 	bl	80002d4 <__udivmoddi4>
 8000278:	9b01      	ldr	r3, [sp, #4]
 800027a:	469e      	mov	lr, r3
 800027c:	b002      	add	sp, #8
 800027e:	bc0c      	pop	{r2, r3}
 8000280:	4770      	bx	lr
 8000282:	46c0      	nop			; (mov r8, r8)

08000284 <__aeabi_lmul>:
 8000284:	b5f0      	push	{r4, r5, r6, r7, lr}
 8000286:	0415      	lsls	r5, r2, #16
 8000288:	0c2d      	lsrs	r5, r5, #16
 800028a:	000f      	movs	r7, r1
 800028c:	0001      	movs	r1, r0
 800028e:	002e      	movs	r6, r5
 8000290:	46c6      	mov	lr, r8
 8000292:	4684      	mov	ip, r0
 8000294:	0400      	lsls	r0, r0, #16
 8000296:	0c14      	lsrs	r4, r2, #16
 8000298:	0c00      	lsrs	r0, r0, #16
 800029a:	0c09      	lsrs	r1, r1, #16
 800029c:	4346      	muls	r6, r0
 800029e:	434d      	muls	r5, r1
 80002a0:	4360      	muls	r0, r4
 80002a2:	4361      	muls	r1, r4
 80002a4:	1940      	adds	r0, r0, r5
 80002a6:	0c34      	lsrs	r4, r6, #16
 80002a8:	1824      	adds	r4, r4, r0
 80002aa:	b500      	push	{lr}
 80002ac:	42a5      	cmp	r5, r4
 80002ae:	d903      	bls.n	80002b8 <__aeabi_lmul+0x34>
 80002b0:	2080      	movs	r0, #128	; 0x80
 80002b2:	0240      	lsls	r0, r0, #9
 80002b4:	4680      	mov	r8, r0
 80002b6:	4441      	add	r1, r8
 80002b8:	0c25      	lsrs	r5, r4, #16
 80002ba:	186d      	adds	r5, r5, r1
 80002bc:	4661      	mov	r1, ip
 80002be:	4359      	muls	r1, r3
 80002c0:	437a      	muls	r2, r7
 80002c2:	0430      	lsls	r0, r6, #16
 80002c4:	1949      	adds	r1, r1, r5
 80002c6:	0424      	lsls	r4, r4, #16
 80002c8:	0c00      	lsrs	r0, r0, #16
 80002ca:	1820      	adds	r0, r4, r0
 80002cc:	1889      	adds	r1, r1, r2
 80002ce:	bc80      	pop	{r7}
 80002d0:	46b8      	mov	r8, r7
 80002d2:	bdf0      	pop	{r4, r5, r6, r7, pc}

080002d4 <__udivmoddi4>:
 80002d4:	b5f0      	push	{r4, r5, r6, r7, lr}
 80002d6:	4657      	mov	r7, sl
 80002d8:	464e      	mov	r6, r9
 80002da:	4645      	mov	r5, r8
 80002dc:	46de      	mov	lr, fp
 80002de:	b5e0      	push	{r5, r6, r7, lr}
 80002e0:	0004      	movs	r4, r0
 80002e2:	000d      	movs	r5, r1
 80002e4:	4692      	mov	sl, r2
 80002e6:	4699      	mov	r9, r3
 80002e8:	b083      	sub	sp, #12
 80002ea:	428b      	cmp	r3, r1
 80002ec:	d830      	bhi.n	8000350 <__udivmoddi4+0x7c>
 80002ee:	d02d      	beq.n	800034c <__udivmoddi4+0x78>
 80002f0:	4649      	mov	r1, r9
 80002f2:	4650      	mov	r0, sl
 80002f4:	f000 f8ba 	bl	800046c <__clzdi2>
 80002f8:	0029      	movs	r1, r5
 80002fa:	0006      	movs	r6, r0
 80002fc:	0020      	movs	r0, r4
 80002fe:	f000 f8b5 	bl	800046c <__clzdi2>
 8000302:	1a33      	subs	r3, r6, r0
 8000304:	4698      	mov	r8, r3
 8000306:	3b20      	subs	r3, #32
 8000308:	469b      	mov	fp, r3
 800030a:	d433      	bmi.n	8000374 <__udivmoddi4+0xa0>
 800030c:	465a      	mov	r2, fp
 800030e:	4653      	mov	r3, sl
 8000310:	4093      	lsls	r3, r2
 8000312:	4642      	mov	r2, r8
 8000314:	001f      	movs	r7, r3
 8000316:	4653      	mov	r3, sl
 8000318:	4093      	lsls	r3, r2
 800031a:	001e      	movs	r6, r3
 800031c:	42af      	cmp	r7, r5
 800031e:	d83a      	bhi.n	8000396 <__udivmoddi4+0xc2>
 8000320:	42af      	cmp	r7, r5
 8000322:	d100      	bne.n	8000326 <__udivmoddi4+0x52>
 8000324:	e078      	b.n	8000418 <__udivmoddi4+0x144>
 8000326:	465b      	mov	r3, fp
 8000328:	1ba4      	subs	r4, r4, r6
 800032a:	41bd      	sbcs	r5, r7
 800032c:	2b00      	cmp	r3, #0
 800032e:	da00      	bge.n	8000332 <__udivmoddi4+0x5e>
 8000330:	e075      	b.n	800041e <__udivmoddi4+0x14a>
 8000332:	2200      	movs	r2, #0
 8000334:	2300      	movs	r3, #0
 8000336:	9200      	str	r2, [sp, #0]
 8000338:	9301      	str	r3, [sp, #4]
 800033a:	2301      	movs	r3, #1
 800033c:	465a      	mov	r2, fp
 800033e:	4093      	lsls	r3, r2
 8000340:	9301      	str	r3, [sp, #4]
 8000342:	2301      	movs	r3, #1
 8000344:	4642      	mov	r2, r8
 8000346:	4093      	lsls	r3, r2
 8000348:	9300      	str	r3, [sp, #0]
 800034a:	e028      	b.n	800039e <__udivmoddi4+0xca>
 800034c:	4282      	cmp	r2, r0
 800034e:	d9cf      	bls.n	80002f0 <__udivmoddi4+0x1c>
 8000350:	2200      	movs	r2, #0
 8000352:	2300      	movs	r3, #0
 8000354:	9200      	str	r2, [sp, #0]
 8000356:	9301      	str	r3, [sp, #4]
 8000358:	9b0c      	ldr	r3, [sp, #48]	; 0x30
 800035a:	2b00      	cmp	r3, #0
 800035c:	d001      	beq.n	8000362 <__udivmoddi4+0x8e>
 800035e:	601c      	str	r4, [r3, #0]
 8000360:	605d      	str	r5, [r3, #4]
 8000362:	9800      	ldr	r0, [sp, #0]
 8000364:	9901      	ldr	r1, [sp, #4]
 8000366:	b003      	add	sp, #12
 8000368:	bcf0      	pop	{r4, r5, r6, r7}
 800036a:	46bb      	mov	fp, r7
 800036c:	46b2      	mov	sl, r6
 800036e:	46a9      	mov	r9, r5
 8000370:	46a0      	mov	r8, r4
 8000372:	bdf0      	pop	{r4, r5, r6, r7, pc}
 8000374:	4642      	mov	r2, r8
 8000376:	2320      	movs	r3, #32
 8000378:	1a9b      	subs	r3, r3, r2
 800037a:	4652      	mov	r2, sl
 800037c:	40da      	lsrs	r2, r3
 800037e:	4641      	mov	r1, r8
 8000380:	0013      	movs	r3, r2
 8000382:	464a      	mov	r2, r9
 8000384:	408a      	lsls	r2, r1
 8000386:	0017      	movs	r7, r2
 8000388:	4642      	mov	r2, r8
 800038a:	431f      	orrs	r7, r3
 800038c:	4653      	mov	r3, sl
 800038e:	4093      	lsls	r3, r2
 8000390:	001e      	movs	r6, r3
 8000392:	42af      	cmp	r7, r5
 8000394:	d9c4      	bls.n	8000320 <__udivmoddi4+0x4c>
 8000396:	2200      	movs	r2, #0
 8000398:	2300      	movs	r3, #0
 800039a:	9200      	str	r2, [sp, #0]
 800039c:	9301      	str	r3, [sp, #4]
 800039e:	4643      	mov	r3, r8
 80003a0:	2b00      	cmp	r3, #0
 80003a2:	d0d9      	beq.n	8000358 <__udivmoddi4+0x84>
 80003a4:	07fb      	lsls	r3, r7, #31
 80003a6:	0872      	lsrs	r2, r6, #1
 80003a8:	431a      	orrs	r2, r3
 80003aa:	4646      	mov	r6, r8
 80003ac:	087b      	lsrs	r3, r7, #1
 80003ae:	e00e      	b.n	80003ce <__udivmoddi4+0xfa>
 80003b0:	42ab      	cmp	r3, r5
 80003b2:	d101      	bne.n	80003b8 <__udivmoddi4+0xe4>
 80003b4:	42a2      	cmp	r2, r4
 80003b6:	d80c      	bhi.n	80003d2 <__udivmoddi4+0xfe>
 80003b8:	1aa4      	subs	r4, r4, r2
 80003ba:	419d      	sbcs	r5, r3
 80003bc:	2001      	movs	r0, #1
 80003be:	1924      	adds	r4, r4, r4
 80003c0:	416d      	adcs	r5, r5
 80003c2:	2100      	movs	r1, #0
 80003c4:	3e01      	subs	r6, #1
 80003c6:	1824      	adds	r4, r4, r0
 80003c8:	414d      	adcs	r5, r1
 80003ca:	2e00      	cmp	r6, #0
 80003cc:	d006      	beq.n	80003dc <__udivmoddi4+0x108>
 80003ce:	42ab      	cmp	r3, r5
 80003d0:	d9ee      	bls.n	80003b0 <__udivmoddi4+0xdc>
 80003d2:	3e01      	subs	r6, #1
 80003d4:	1924      	adds	r4, r4, r4
 80003d6:	416d      	adcs	r5, r5
 80003d8:	2e00      	cmp	r6, #0
 80003da:	d1f8      	bne.n	80003ce <__udivmoddi4+0xfa>
 80003dc:	9800      	ldr	r0, [sp, #0]
 80003de:	9901      	ldr	r1, [sp, #4]
 80003e0:	465b      	mov	r3, fp
 80003e2:	1900      	adds	r0, r0, r4
 80003e4:	4169      	adcs	r1, r5
 80003e6:	2b00      	cmp	r3, #0
 80003e8:	db24      	blt.n	8000434 <__udivmoddi4+0x160>
 80003ea:	002b      	movs	r3, r5
 80003ec:	465a      	mov	r2, fp
 80003ee:	4644      	mov	r4, r8
 80003f0:	40d3      	lsrs	r3, r2
 80003f2:	002a      	movs	r2, r5
 80003f4:	40e2      	lsrs	r2, r4
 80003f6:	001c      	movs	r4, r3
 80003f8:	465b      	mov	r3, fp
 80003fa:	0015      	movs	r5, r2
 80003fc:	2b00      	cmp	r3, #0
 80003fe:	db2a      	blt.n	8000456 <__udivmoddi4+0x182>
 8000400:	0026      	movs	r6, r4
 8000402:	409e      	lsls	r6, r3
 8000404:	0033      	movs	r3, r6
 8000406:	0026      	movs	r6, r4
 8000408:	4647      	mov	r7, r8
 800040a:	40be      	lsls	r6, r7
 800040c:	0032      	movs	r2, r6
 800040e:	1a80      	subs	r0, r0, r2
 8000410:	4199      	sbcs	r1, r3
 8000412:	9000      	str	r0, [sp, #0]
 8000414:	9101      	str	r1, [sp, #4]
 8000416:	e79f      	b.n	8000358 <__udivmoddi4+0x84>
 8000418:	42a3      	cmp	r3, r4
 800041a:	d8bc      	bhi.n	8000396 <__udivmoddi4+0xc2>
 800041c:	e783      	b.n	8000326 <__udivmoddi4+0x52>
 800041e:	4642      	mov	r2, r8
 8000420:	2320      	movs	r3, #32
 8000422:	2100      	movs	r1, #0
 8000424:	1a9b      	subs	r3, r3, r2
 8000426:	2200      	movs	r2, #0
 8000428:	9100      	str	r1, [sp, #0]
 800042a:	9201      	str	r2, [sp, #4]
 800042c:	2201      	movs	r2, #1
 800042e:	40da      	lsrs	r2, r3
 8000430:	9201      	str	r2, [sp, #4]
 8000432:	e786      	b.n	8000342 <__udivmoddi4+0x6e>
 8000434:	4642      	mov	r2, r8
 8000436:	2320      	movs	r3, #32
 8000438:	1a9b      	subs	r3, r3, r2
 800043a:	002a      	movs	r2, r5
 800043c:	4646      	mov	r6, r8
 800043e:	409a      	lsls	r2, r3
 8000440:	0023      	movs	r3, r4
 8000442:	40f3      	lsrs	r3, r6
 8000444:	4644      	mov	r4, r8
 8000446:	4313      	orrs	r3, r2
 8000448:	002a      	movs	r2, r5
 800044a:	40e2      	lsrs	r2, r4
 800044c:	001c      	movs	r4, r3
 800044e:	465b      	mov	r3, fp
 8000450:	0015      	movs	r5, r2
 8000452:	2b00      	cmp	r3, #0
 8000454:	dad4      	bge.n	8000400 <__udivmoddi4+0x12c>
 8000456:	4642      	mov	r2, r8
 8000458:	002f      	movs	r7, r5
 800045a:	2320      	movs	r3, #32
 800045c:	0026      	movs	r6, r4
 800045e:	4097      	lsls	r7, r2
 8000460:	1a9b      	subs	r3, r3, r2
 8000462:	40de      	lsrs	r6, r3
 8000464:	003b      	movs	r3, r7
 8000466:	4333      	orrs	r3, r6
 8000468:	e7cd      	b.n	8000406 <__udivmoddi4+0x132>
 800046a:	46c0      	nop			; (mov r8, r8)

0800046c <__clzdi2>:
 800046c:	b510      	push	{r4, lr}
 800046e:	2900      	cmp	r1, #0
 8000470:	d103      	bne.n	800047a <__clzdi2+0xe>
 8000472:	f000 f807 	bl	8000484 <__clzsi2>
 8000476:	3020      	adds	r0, #32
 8000478:	e002      	b.n	8000480 <__clzdi2+0x14>
 800047a:	1c08      	adds	r0, r1, #0
 800047c:	f000 f802 	bl	8000484 <__clzsi2>
 8000480:	bd10      	pop	{r4, pc}
 8000482:	46c0      	nop			; (mov r8, r8)

08000484 <__clzsi2>:
 8000484:	211c      	movs	r1, #28
 8000486:	2301      	movs	r3, #1
 8000488:	041b      	lsls	r3, r3, #16
 800048a:	4298      	cmp	r0, r3
 800048c:	d301      	bcc.n	8000492 <__clzsi2+0xe>
 800048e:	0c00      	lsrs	r0, r0, #16
 8000490:	3910      	subs	r1, #16
 8000492:	0a1b      	lsrs	r3, r3, #8
 8000494:	4298      	cmp	r0, r3
 8000496:	d301      	bcc.n	800049c <__clzsi2+0x18>
 8000498:	0a00      	lsrs	r0, r0, #8
 800049a:	3908      	subs	r1, #8
 800049c:	091b      	lsrs	r3, r3, #4
 800049e:	4298      	cmp	r0, r3
 80004a0:	d301      	bcc.n	80004a6 <__clzsi2+0x22>
 80004a2:	0900      	lsrs	r0, r0, #4
 80004a4:	3904      	subs	r1, #4
 80004a6:	a202      	add	r2, pc, #8	; (adr r2, 80004b0 <__clzsi2+0x2c>)
 80004a8:	5c10      	ldrb	r0, [r2, r0]
 80004aa:	1840      	adds	r0, r0, r1
 80004ac:	4770      	bx	lr
 80004ae:	46c0      	nop			; (mov r8, r8)
 80004b0:	02020304 	.word	0x02020304
 80004b4:	01010101 	.word	0x01010101
	...

080004c0 <getLightIntensity>:
//	ldr->maxReading = 3000;
//	ldr->upperControlLimit = 2000;
//	ldr->lowerControlLimit = 500;
//}

uint16_t getLightIntensity(LDR* ldr) {
 80004c0:	b580      	push	{r7, lr}
 80004c2:	b084      	sub	sp, #16
 80004c4:	af00      	add	r7, sp, #0
 80004c6:	6078      	str	r0, [r7, #4]
	HAL_ADC_PollForConversion(&hadc, HAL_MAX_DELAY);
 80004c8:	2301      	movs	r3, #1
 80004ca:	425a      	negs	r2, r3
 80004cc:	4b0f      	ldr	r3, [pc, #60]	; (800050c <getLightIntensity+0x4c>)
 80004ce:	0011      	movs	r1, r2
 80004d0:	0018      	movs	r0, r3
 80004d2:	f001 fcb7 	bl	8001e44 <HAL_ADC_PollForConversion>

	uint16_t lightIntensity;
	/* Check if the continous conversion of regular channel is finished */
	if ((HAL_ADC_GetState(&hadc) & HAL_ADC_STATE_REG_EOC) == HAL_ADC_STATE_REG_EOC)
 80004d6:	4b0d      	ldr	r3, [pc, #52]	; (800050c <getLightIntensity+0x4c>)
 80004d8:	0018      	movs	r0, r3
 80004da:	f001 fdfb 	bl	80020d4 <HAL_ADC_GetState>
 80004de:	0002      	movs	r2, r0
 80004e0:	2380      	movs	r3, #128	; 0x80
 80004e2:	009b      	lsls	r3, r3, #2
 80004e4:	401a      	ands	r2, r3
 80004e6:	2380      	movs	r3, #128	; 0x80
 80004e8:	009b      	lsls	r3, r3, #2
 80004ea:	429a      	cmp	r2, r3
 80004ec:	d107      	bne.n	80004fe <getLightIntensity+0x3e>
		lightIntensity = HAL_ADC_GetValue(&hadc); /* Get the converted value of regular channel */
 80004ee:	4b07      	ldr	r3, [pc, #28]	; (800050c <getLightIntensity+0x4c>)
 80004f0:	0018      	movs	r0, r3
 80004f2:	f001 fd43 	bl	8001f7c <HAL_ADC_GetValue>
 80004f6:	0002      	movs	r2, r0
 80004f8:	230e      	movs	r3, #14
 80004fa:	18fb      	adds	r3, r7, r3
 80004fc:	801a      	strh	r2, [r3, #0]

	return lightIntensity;
 80004fe:	230e      	movs	r3, #14
 8000500:	18fb      	adds	r3, r7, r3
 8000502:	881b      	ldrh	r3, [r3, #0]
}
 8000504:	0018      	movs	r0, r3
 8000506:	46bd      	mov	sp, r7
 8000508:	b004      	add	sp, #16
 800050a:	bd80      	pop	{r7, pc}
 800050c:	200000bc 	.word	0x200000bc

08000510 <measure>:

void measure(LDR* ldr) {
 8000510:	b590      	push	{r4, r7, lr}
 8000512:	b083      	sub	sp, #12
 8000514:	af00      	add	r7, sp, #0
 8000516:	6078      	str	r0, [r7, #4]
	ldr->messures[ldr->measureNumber - 1] = getLightIntensity(ldr);
 8000518:	687b      	ldr	r3, [r7, #4]
 800051a:	7b1b      	ldrb	r3, [r3, #12]
 800051c:	1e5c      	subs	r4, r3, #1
 800051e:	687b      	ldr	r3, [r7, #4]
 8000520:	0018      	movs	r0, r3
 8000522:	f7ff ffcd 	bl	80004c0 <getLightIntensity>
 8000526:	0003      	movs	r3, r0
 8000528:	0019      	movs	r1, r3
 800052a:	687b      	ldr	r3, [r7, #4]
 800052c:	0062      	lsls	r2, r4, #1
 800052e:	52d1      	strh	r1, [r2, r3]
	ldr->measureNumber++;
 8000530:	687b      	ldr	r3, [r7, #4]
 8000532:	7b1b      	ldrb	r3, [r3, #12]
 8000534:	3301      	adds	r3, #1
 8000536:	b2da      	uxtb	r2, r3
 8000538:	687b      	ldr	r3, [r7, #4]
 800053a:	731a      	strb	r2, [r3, #12]

	if (measureIsAutoOfRange(ldr))
 800053c:	687b      	ldr	r3, [r7, #4]
 800053e:	0018      	movs	r0, r3
 8000540:	f000 f809 	bl	8000556 <measureIsAutoOfRange>
 8000544:	1e03      	subs	r3, r0, #0
 8000546:	d002      	beq.n	800054e <measure+0x3e>
		ldr->measureNumber = 1;
 8000548:	687b      	ldr	r3, [r7, #4]
 800054a:	2201      	movs	r2, #1
 800054c:	731a      	strb	r2, [r3, #12]
}
 800054e:	46c0      	nop			; (mov r8, r8)
 8000550:	46bd      	mov	sp, r7
 8000552:	b003      	add	sp, #12
 8000554:	bd90      	pop	{r4, r7, pc}

08000556 <measureIsAutoOfRange>:

bool measureIsAutoOfRange(LDR* ldr) {
 8000556:	b580      	push	{r7, lr}
 8000558:	b082      	sub	sp, #8
 800055a:	af00      	add	r7, sp, #0
 800055c:	6078      	str	r0, [r7, #4]
	return ldr->measureNumber > NUMBER_OF_LDR_MEASURE;
 800055e:	687b      	ldr	r3, [r7, #4]
 8000560:	7b1b      	ldrb	r3, [r3, #12]
 8000562:	2205      	movs	r2, #5
 8000564:	429a      	cmp	r2, r3
 8000566:	419b      	sbcs	r3, r3
 8000568:	425b      	negs	r3, r3
 800056a:	b2db      	uxtb	r3, r3
}
 800056c:	0018      	movs	r0, r3
 800056e:	46bd      	mov	sp, r7
 8000570:	b002      	add	sp, #8
 8000572:	bd80      	pop	{r7, pc}

08000574 <areNewMeassures>:

bool areNewMeassures(LDR* ldr) {
 8000574:	b580      	push	{r7, lr}
 8000576:	b082      	sub	sp, #8
 8000578:	af00      	add	r7, sp, #0
 800057a:	6078      	str	r0, [r7, #4]
	return ldr->measureNumber >= NUMBER_OF_LDR_MEASURE;
 800057c:	687b      	ldr	r3, [r7, #4]
 800057e:	7b1b      	ldrb	r3, [r3, #12]
 8000580:	2204      	movs	r2, #4
 8000582:	429a      	cmp	r2, r3
 8000584:	419b      	sbcs	r3, r3
 8000586:	425b      	negs	r3, r3
 8000588:	b2db      	uxtb	r3, r3
}
 800058a:	0018      	movs	r0, r3
 800058c:	46bd      	mov	sp, r7
 800058e:	b002      	add	sp, #8
 8000590:	bd80      	pop	{r7, pc}

08000592 <getAverageMeassure>:

uint16_t getAverageMeassure(LDR* ldr) {
 8000592:	b580      	push	{r7, lr}
 8000594:	b084      	sub	sp, #16
 8000596:	af00      	add	r7, sp, #0
 8000598:	6078      	str	r0, [r7, #4]
	ldr->averageMeasure = 0;
 800059a:	687b      	ldr	r3, [r7, #4]
 800059c:	2200      	movs	r2, #0
 800059e:	815a      	strh	r2, [r3, #10]
	for (int i = 0; i < NUMBER_OF_LDR_MEASURE; i++)
 80005a0:	2300      	movs	r3, #0
 80005a2:	60fb      	str	r3, [r7, #12]
 80005a4:	e00c      	b.n	80005c0 <getAverageMeassure+0x2e>
		ldr->averageMeasure += ldr->messures[i];
 80005a6:	687b      	ldr	r3, [r7, #4]
 80005a8:	895a      	ldrh	r2, [r3, #10]
 80005aa:	687b      	ldr	r3, [r7, #4]
 80005ac:	68f9      	ldr	r1, [r7, #12]
 80005ae:	0049      	lsls	r1, r1, #1
 80005b0:	5acb      	ldrh	r3, [r1, r3]
 80005b2:	18d3      	adds	r3, r2, r3
 80005b4:	b29a      	uxth	r2, r3
 80005b6:	687b      	ldr	r3, [r7, #4]
 80005b8:	815a      	strh	r2, [r3, #10]
	for (int i = 0; i < NUMBER_OF_LDR_MEASURE; i++)
 80005ba:	68fb      	ldr	r3, [r7, #12]
 80005bc:	3301      	adds	r3, #1
 80005be:	60fb      	str	r3, [r7, #12]
 80005c0:	68fb      	ldr	r3, [r7, #12]
 80005c2:	2b04      	cmp	r3, #4
 80005c4:	ddef      	ble.n	80005a6 <getAverageMeassure+0x14>

	return (ldr->averageMeasure/NUMBER_OF_LDR_MEASURE);
 80005c6:	687b      	ldr	r3, [r7, #4]
 80005c8:	895b      	ldrh	r3, [r3, #10]
 80005ca:	2105      	movs	r1, #5
 80005cc:	0018      	movs	r0, r3
 80005ce:	f7ff fdad 	bl	800012c <__udivsi3>
 80005d2:	0003      	movs	r3, r0
 80005d4:	b29b      	uxth	r3, r3
}
 80005d6:	0018      	movs	r0, r3
 80005d8:	46bd      	mov	sp, r7
 80005da:	b004      	add	sp, #16
 80005dc:	bd80      	pop	{r7, pc}

080005de <isAboveUpperLimit>:

uint16_t convertLDRvalueToPercent(LDR* ldr, uint16_t ldrValue) {
	return ((ldrValue / ldr->maxReading)*100);
}

bool isAboveUpperLimit(LDR* ldr) {
 80005de:	b580      	push	{r7, lr}
 80005e0:	b082      	sub	sp, #8
 80005e2:	af00      	add	r7, sp, #0
 80005e4:	6078      	str	r0, [r7, #4]
	return getAverageMeassure(ldr) > ldr->upperControlLimit;
 80005e6:	687b      	ldr	r3, [r7, #4]
 80005e8:	0018      	movs	r0, r3
 80005ea:	f7ff ffd2 	bl	8000592 <getAverageMeassure>
 80005ee:	0003      	movs	r3, r0
 80005f0:	001a      	movs	r2, r3
 80005f2:	687b      	ldr	r3, [r7, #4]
 80005f4:	8a5b      	ldrh	r3, [r3, #18]
 80005f6:	4293      	cmp	r3, r2
 80005f8:	419b      	sbcs	r3, r3
 80005fa:	425b      	negs	r3, r3
 80005fc:	b2db      	uxtb	r3, r3
}
 80005fe:	0018      	movs	r0, r3
 8000600:	46bd      	mov	sp, r7
 8000602:	b002      	add	sp, #8
 8000604:	bd80      	pop	{r7, pc}

08000606 <isBelowLowerLimit>:

bool isBelowLowerLimit(LDR* ldr) {
 8000606:	b580      	push	{r7, lr}
 8000608:	b082      	sub	sp, #8
 800060a:	af00      	add	r7, sp, #0
 800060c:	6078      	str	r0, [r7, #4]
	return getAverageMeassure(ldr) < ldr->lowerControlLimit;
 800060e:	687b      	ldr	r3, [r7, #4]
 8000610:	0018      	movs	r0, r3
 8000612:	f7ff ffbe 	bl	8000592 <getAverageMeassure>
 8000616:	0003      	movs	r3, r0
 8000618:	001a      	movs	r2, r3
 800061a:	687b      	ldr	r3, [r7, #4]
 800061c:	8a9b      	ldrh	r3, [r3, #20]
 800061e:	429a      	cmp	r2, r3
 8000620:	419b      	sbcs	r3, r3
 8000622:	425b      	negs	r3, r3
 8000624:	b2db      	uxtb	r3, r3
}
 8000626:	0018      	movs	r0, r3
 8000628:	46bd      	mov	sp, r7
 800062a:	b002      	add	sp, #8
 800062c:	bd80      	pop	{r7, pc}

0800062e <setMinReading>:

void setMinReading(LDR* ldr, uint16_t minReading_) {
 800062e:	b580      	push	{r7, lr}
 8000630:	b082      	sub	sp, #8
 8000632:	af00      	add	r7, sp, #0
 8000634:	6078      	str	r0, [r7, #4]
 8000636:	000a      	movs	r2, r1
 8000638:	1cbb      	adds	r3, r7, #2
 800063a:	801a      	strh	r2, [r3, #0]
	ldr->minReading = minReading_;
 800063c:	687b      	ldr	r3, [r7, #4]
 800063e:	1cba      	adds	r2, r7, #2
 8000640:	8812      	ldrh	r2, [r2, #0]
 8000642:	81da      	strh	r2, [r3, #14]
}
 8000644:	46c0      	nop			; (mov r8, r8)
 8000646:	46bd      	mov	sp, r7
 8000648:	b002      	add	sp, #8
 800064a:	bd80      	pop	{r7, pc}

0800064c <setMaxReading>:

void setMaxReading(LDR* ldr, uint16_t maxReading_) {
 800064c:	b580      	push	{r7, lr}
 800064e:	b082      	sub	sp, #8
 8000650:	af00      	add	r7, sp, #0
 8000652:	6078      	str	r0, [r7, #4]
 8000654:	000a      	movs	r2, r1
 8000656:	1cbb      	adds	r3, r7, #2
 8000658:	801a      	strh	r2, [r3, #0]
	ldr->maxReading = maxReading_;
 800065a:	687b      	ldr	r3, [r7, #4]
 800065c:	1cba      	adds	r2, r7, #2
 800065e:	8812      	ldrh	r2, [r2, #0]
 8000660:	821a      	strh	r2, [r3, #16]
}
 8000662:	46c0      	nop			; (mov r8, r8)
 8000664:	46bd      	mov	sp, r7
 8000666:	b002      	add	sp, #8
 8000668:	bd80      	pop	{r7, pc}

0800066a <setUpperControlLimit>:

void setUpperControlLimit(LDR* ldr, uint16_t upperContolLimit_) {
 800066a:	b580      	push	{r7, lr}
 800066c:	b082      	sub	sp, #8
 800066e:	af00      	add	r7, sp, #0
 8000670:	6078      	str	r0, [r7, #4]
 8000672:	000a      	movs	r2, r1
 8000674:	1cbb      	adds	r3, r7, #2
 8000676:	801a      	strh	r2, [r3, #0]
	ldr->upperControlLimit = upperContolLimit_;
 8000678:	687b      	ldr	r3, [r7, #4]
 800067a:	1cba      	adds	r2, r7, #2
 800067c:	8812      	ldrh	r2, [r2, #0]
 800067e:	825a      	strh	r2, [r3, #18]
}
 8000680:	46c0      	nop			; (mov r8, r8)
 8000682:	46bd      	mov	sp, r7
 8000684:	b002      	add	sp, #8
 8000686:	bd80      	pop	{r7, pc}

08000688 <setLowerControlLimit>:

void setLowerControlLimit(LDR* ldr, uint16_t lowerControlLimit_) {
 8000688:	b580      	push	{r7, lr}
 800068a:	b082      	sub	sp, #8
 800068c:	af00      	add	r7, sp, #0
 800068e:	6078      	str	r0, [r7, #4]
 8000690:	000a      	movs	r2, r1
 8000692:	1cbb      	adds	r3, r7, #2
 8000694:	801a      	strh	r2, [r3, #0]
	ldr->lowerControlLimit = lowerControlLimit_;
 8000696:	687b      	ldr	r3, [r7, #4]
 8000698:	1cba      	adds	r2, r7, #2
 800069a:	8812      	ldrh	r2, [r2, #0]
 800069c:	829a      	strh	r2, [r3, #20]
}
 800069e:	46c0      	nop			; (mov r8, r8)
 80006a0:	46bd      	mov	sp, r7
 80006a2:	b002      	add	sp, #8
 80006a4:	bd80      	pop	{r7, pc}

080006a6 <getMinReading>:

uint16_t getMinReading(LDR* ldr) {
 80006a6:	b580      	push	{r7, lr}
 80006a8:	b082      	sub	sp, #8
 80006aa:	af00      	add	r7, sp, #0
 80006ac:	6078      	str	r0, [r7, #4]
	return ldr->minReading;
 80006ae:	687b      	ldr	r3, [r7, #4]
 80006b0:	89db      	ldrh	r3, [r3, #14]
}
 80006b2:	0018      	movs	r0, r3
 80006b4:	46bd      	mov	sp, r7
 80006b6:	b002      	add	sp, #8
 80006b8:	bd80      	pop	{r7, pc}

080006ba <getMaxReading>:

uint16_t getMaxReading(LDR* ldr) {
 80006ba:	b580      	push	{r7, lr}
 80006bc:	b082      	sub	sp, #8
 80006be:	af00      	add	r7, sp, #0
 80006c0:	6078      	str	r0, [r7, #4]
	return ldr->maxReading;
 80006c2:	687b      	ldr	r3, [r7, #4]
 80006c4:	8a1b      	ldrh	r3, [r3, #16]
}
 80006c6:	0018      	movs	r0, r3
 80006c8:	46bd      	mov	sp, r7
 80006ca:	b002      	add	sp, #8
 80006cc:	bd80      	pop	{r7, pc}

080006ce <getUpperControlLimit>:

uint16_t getUpperControlLimit(LDR* ldr) {
 80006ce:	b580      	push	{r7, lr}
 80006d0:	b082      	sub	sp, #8
 80006d2:	af00      	add	r7, sp, #0
 80006d4:	6078      	str	r0, [r7, #4]
	return ldr->upperControlLimit;
 80006d6:	687b      	ldr	r3, [r7, #4]
 80006d8:	8a5b      	ldrh	r3, [r3, #18]
}
 80006da:	0018      	movs	r0, r3
 80006dc:	46bd      	mov	sp, r7
 80006de:	b002      	add	sp, #8
 80006e0:	bd80      	pop	{r7, pc}

080006e2 <getLowerControlLimit>:

uint16_t getLowerControlLimit(LDR* ldr) {
 80006e2:	b580      	push	{r7, lr}
 80006e4:	b082      	sub	sp, #8
 80006e6:	af00      	add	r7, sp, #0
 80006e8:	6078      	str	r0, [r7, #4]
	return ldr->lowerControlLimit;
 80006ea:	687b      	ldr	r3, [r7, #4]
 80006ec:	8a9b      	ldrh	r3, [r3, #20]
}
 80006ee:	0018      	movs	r0, r3
 80006f0:	46bd      	mov	sp, r7
 80006f2:	b002      	add	sp, #8
 80006f4:	bd80      	pop	{r7, pc}

080006f6 <steer>:
#include "Servo.h"

Servo servo = {3, 3, 3};

void steer(Servo* servo) {
 80006f6:	b580      	push	{r7, lr}
 80006f8:	b082      	sub	sp, #8
 80006fa:	af00      	add	r7, sp, #0
 80006fc:	6078      	str	r0, [r7, #4]
	if (canRollDown(servo))
 80006fe:	687b      	ldr	r3, [r7, #4]
 8000700:	0018      	movs	r0, r3
 8000702:	f000 f8b6 	bl	8000872 <canRollDown>
 8000706:	1e03      	subs	r3, r0, #0
 8000708:	d004      	beq.n	8000714 <steer+0x1e>
		rollDown(servo);
 800070a:	687b      	ldr	r3, [r7, #4]
 800070c:	0018      	movs	r0, r3
 800070e:	f000 f937 	bl	8000980 <rollDown>
	else if (canRollUp(servo))
		rollUp(servo);
	else if (canStopRolling(servo))
		stopRolling(servo);
}
 8000712:	e014      	b.n	800073e <steer+0x48>
	else if (canRollUp(servo))
 8000714:	687b      	ldr	r3, [r7, #4]
 8000716:	0018      	movs	r0, r3
 8000718:	f000 f890 	bl	800083c <canRollUp>
 800071c:	1e03      	subs	r3, r0, #0
 800071e:	d004      	beq.n	800072a <steer+0x34>
		rollUp(servo);
 8000720:	687b      	ldr	r3, [r7, #4]
 8000722:	0018      	movs	r0, r3
 8000724:	f000 f942 	bl	80009ac <rollUp>
}
 8000728:	e009      	b.n	800073e <steer+0x48>
	else if (canStopRolling(servo))
 800072a:	687b      	ldr	r3, [r7, #4]
 800072c:	0018      	movs	r0, r3
 800072e:	f000 f8bb 	bl	80008a8 <canStopRolling>
 8000732:	1e03      	subs	r3, r0, #0
 8000734:	d003      	beq.n	800073e <steer+0x48>
		stopRolling(servo);
 8000736:	687b      	ldr	r3, [r7, #4]
 8000738:	0018      	movs	r0, r3
 800073a:	f000 f94d 	bl	80009d8 <stopRolling>
}
 800073e:	46c0      	nop			; (mov r8, r8)
 8000740:	46bd      	mov	sp, r7
 8000742:	b002      	add	sp, #8
 8000744:	bd80      	pop	{r7, pc}

08000746 <increasePositionBy>:

void increasePositionBy(Servo* servo, uint16_t length) {
 8000746:	b590      	push	{r4, r7, lr}
 8000748:	b085      	sub	sp, #20
 800074a:	af00      	add	r7, sp, #0
 800074c:	6078      	str	r0, [r7, #4]
 800074e:	000a      	movs	r2, r1
 8000750:	1cbb      	adds	r3, r7, #2
 8000752:	801a      	strh	r2, [r3, #0]
	uint16_t newPosition_ = length + servo->newPosition;
 8000754:	687b      	ldr	r3, [r7, #4]
 8000756:	8899      	ldrh	r1, [r3, #4]
 8000758:	240e      	movs	r4, #14
 800075a:	193b      	adds	r3, r7, r4
 800075c:	1cba      	adds	r2, r7, #2
 800075e:	8812      	ldrh	r2, [r2, #0]
 8000760:	188a      	adds	r2, r1, r2
 8000762:	801a      	strh	r2, [r3, #0]
	if (canSetPosition(servo, newPosition_))
 8000764:	193b      	adds	r3, r7, r4
 8000766:	881a      	ldrh	r2, [r3, #0]
 8000768:	687b      	ldr	r3, [r7, #4]
 800076a:	0011      	movs	r1, r2
 800076c:	0018      	movs	r0, r3
 800076e:	f000 f80d 	bl	800078c <canSetPosition>
 8000772:	1e03      	subs	r3, r0, #0
 8000774:	d006      	beq.n	8000784 <increasePositionBy+0x3e>
		setPosition(servo, newPosition_);
 8000776:	193b      	adds	r3, r7, r4
 8000778:	881a      	ldrh	r2, [r3, #0]
 800077a:	687b      	ldr	r3, [r7, #4]
 800077c:	0011      	movs	r1, r2
 800077e:	0018      	movs	r0, r3
 8000780:	f000 f82d 	bl	80007de <setPosition>
}
 8000784:	46c0      	nop			; (mov r8, r8)
 8000786:	46bd      	mov	sp, r7
 8000788:	b005      	add	sp, #20
 800078a:	bd90      	pop	{r4, r7, pc}

0800078c <canSetPosition>:

bool canSetPosition(Servo* servo, uint16_t newPosition_) {
 800078c:	b580      	push	{r7, lr}
 800078e:	b082      	sub	sp, #8
 8000790:	af00      	add	r7, sp, #0
 8000792:	6078      	str	r0, [r7, #4]
 8000794:	000a      	movs	r2, r1
 8000796:	1cbb      	adds	r3, r7, #2
 8000798:	801a      	strh	r2, [r3, #0]
	return !isLongerThan(servo, newPosition_) && isPositiveLength(servo, newPosition_);
 800079a:	1cbb      	adds	r3, r7, #2
 800079c:	881a      	ldrh	r2, [r3, #0]
 800079e:	687b      	ldr	r3, [r7, #4]
 80007a0:	0011      	movs	r1, r2
 80007a2:	0018      	movs	r0, r3
 80007a4:	f000 f8cd 	bl	8000942 <isLongerThan>
 80007a8:	0003      	movs	r3, r0
 80007aa:	001a      	movs	r2, r3
 80007ac:	2301      	movs	r3, #1
 80007ae:	4053      	eors	r3, r2
 80007b0:	b2db      	uxtb	r3, r3
 80007b2:	2b00      	cmp	r3, #0
 80007b4:	d00a      	beq.n	80007cc <canSetPosition+0x40>
 80007b6:	1cbb      	adds	r3, r7, #2
 80007b8:	881a      	ldrh	r2, [r3, #0]
 80007ba:	687b      	ldr	r3, [r7, #4]
 80007bc:	0011      	movs	r1, r2
 80007be:	0018      	movs	r0, r3
 80007c0:	f000 f8d2 	bl	8000968 <isPositiveLength>
 80007c4:	1e03      	subs	r3, r0, #0
 80007c6:	d001      	beq.n	80007cc <canSetPosition+0x40>
 80007c8:	2301      	movs	r3, #1
 80007ca:	e000      	b.n	80007ce <canSetPosition+0x42>
 80007cc:	2300      	movs	r3, #0
 80007ce:	1c1a      	adds	r2, r3, #0
 80007d0:	2301      	movs	r3, #1
 80007d2:	4013      	ands	r3, r2
 80007d4:	b2db      	uxtb	r3, r3
}
 80007d6:	0018      	movs	r0, r3
 80007d8:	46bd      	mov	sp, r7
 80007da:	b002      	add	sp, #8
 80007dc:	bd80      	pop	{r7, pc}

080007de <setPosition>:

void setPosition(Servo* servo, uint16_t newPosition_) {
 80007de:	b580      	push	{r7, lr}
 80007e0:	b082      	sub	sp, #8
 80007e2:	af00      	add	r7, sp, #0
 80007e4:	6078      	str	r0, [r7, #4]
 80007e6:	000a      	movs	r2, r1
 80007e8:	1cbb      	adds	r3, r7, #2
 80007ea:	801a      	strh	r2, [r3, #0]
	if (canSetPosition(servo, newPosition_))
 80007ec:	1cbb      	adds	r3, r7, #2
 80007ee:	881a      	ldrh	r2, [r3, #0]
 80007f0:	687b      	ldr	r3, [r7, #4]
 80007f2:	0011      	movs	r1, r2
 80007f4:	0018      	movs	r0, r3
 80007f6:	f7ff ffc9 	bl	800078c <canSetPosition>
 80007fa:	1e03      	subs	r3, r0, #0
 80007fc:	d003      	beq.n	8000806 <setPosition+0x28>
		servo->newPosition = newPosition_;
 80007fe:	687b      	ldr	r3, [r7, #4]
 8000800:	1cba      	adds	r2, r7, #2
 8000802:	8812      	ldrh	r2, [r2, #0]
 8000804:	809a      	strh	r2, [r3, #4]
}
 8000806:	46c0      	nop			; (mov r8, r8)
 8000808:	46bd      	mov	sp, r7
 800080a:	b002      	add	sp, #8
 800080c:	bd80      	pop	{r7, pc}

0800080e <setPositionToMax>:

void setPositionToMax(Servo* servo) {
 800080e:	b580      	push	{r7, lr}
 8000810:	b082      	sub	sp, #8
 8000812:	af00      	add	r7, sp, #0
 8000814:	6078      	str	r0, [r7, #4]
	servo->newPosition = servo->maxPosition;
 8000816:	687b      	ldr	r3, [r7, #4]
 8000818:	881a      	ldrh	r2, [r3, #0]
 800081a:	687b      	ldr	r3, [r7, #4]
 800081c:	809a      	strh	r2, [r3, #4]
}
 800081e:	46c0      	nop			; (mov r8, r8)
 8000820:	46bd      	mov	sp, r7
 8000822:	b002      	add	sp, #8
 8000824:	bd80      	pop	{r7, pc}

08000826 <setPositionToMin>:

void setPositionToMin(Servo* servo) {
 8000826:	b580      	push	{r7, lr}
 8000828:	b082      	sub	sp, #8
 800082a:	af00      	add	r7, sp, #0
 800082c:	6078      	str	r0, [r7, #4]
	servo->newPosition = 0;
 800082e:	687b      	ldr	r3, [r7, #4]
 8000830:	2200      	movs	r2, #0
 8000832:	809a      	strh	r2, [r3, #4]
}
 8000834:	46c0      	nop			; (mov r8, r8)
 8000836:	46bd      	mov	sp, r7
 8000838:	b002      	add	sp, #8
 800083a:	bd80      	pop	{r7, pc}

0800083c <canRollUp>:

bool canRollUp(Servo* servo) {
 800083c:	b580      	push	{r7, lr}
 800083e:	b082      	sub	sp, #8
 8000840:	af00      	add	r7, sp, #0
 8000842:	6078      	str	r0, [r7, #4]
	return isBelowNewPosition(servo) && isRolledMaxUp(servo);
 8000844:	687b      	ldr	r3, [r7, #4]
 8000846:	0018      	movs	r0, r3
 8000848:	f000 f85b 	bl	8000902 <isBelowNewPosition>
 800084c:	1e03      	subs	r3, r0, #0
 800084e:	d007      	beq.n	8000860 <canRollUp+0x24>
 8000850:	687b      	ldr	r3, [r7, #4]
 8000852:	0018      	movs	r0, r3
 8000854:	f000 f838 	bl	80008c8 <isRolledMaxUp>
 8000858:	1e03      	subs	r3, r0, #0
 800085a:	d001      	beq.n	8000860 <canRollUp+0x24>
 800085c:	2301      	movs	r3, #1
 800085e:	e000      	b.n	8000862 <canRollUp+0x26>
 8000860:	2300      	movs	r3, #0
 8000862:	1c1a      	adds	r2, r3, #0
 8000864:	2301      	movs	r3, #1
 8000866:	4013      	ands	r3, r2
 8000868:	b2db      	uxtb	r3, r3
}
 800086a:	0018      	movs	r0, r3
 800086c:	46bd      	mov	sp, r7
 800086e:	b002      	add	sp, #8
 8000870:	bd80      	pop	{r7, pc}

08000872 <canRollDown>:

bool canRollDown(Servo* servo) {
 8000872:	b580      	push	{r7, lr}
 8000874:	b082      	sub	sp, #8
 8000876:	af00      	add	r7, sp, #0
 8000878:	6078      	str	r0, [r7, #4]
	return isAboveNewPosition(servo) && isRolledMaxDown(servo);
 800087a:	687b      	ldr	r3, [r7, #4]
 800087c:	0018      	movs	r0, r3
 800087e:	f000 f850 	bl	8000922 <isAboveNewPosition>
 8000882:	1e03      	subs	r3, r0, #0
 8000884:	d007      	beq.n	8000896 <canRollDown+0x24>
 8000886:	687b      	ldr	r3, [r7, #4]
 8000888:	0018      	movs	r0, r3
 800088a:	f000 f82d 	bl	80008e8 <isRolledMaxDown>
 800088e:	1e03      	subs	r3, r0, #0
 8000890:	d001      	beq.n	8000896 <canRollDown+0x24>
 8000892:	2301      	movs	r3, #1
 8000894:	e000      	b.n	8000898 <canRollDown+0x26>
 8000896:	2300      	movs	r3, #0
 8000898:	1c1a      	adds	r2, r3, #0
 800089a:	2301      	movs	r3, #1
 800089c:	4013      	ands	r3, r2
 800089e:	b2db      	uxtb	r3, r3
}
 80008a0:	0018      	movs	r0, r3
 80008a2:	46bd      	mov	sp, r7
 80008a4:	b002      	add	sp, #8
 80008a6:	bd80      	pop	{r7, pc}

080008a8 <canStopRolling>:

bool canStopRolling(Servo* servo) {
 80008a8:	b580      	push	{r7, lr}
 80008aa:	b082      	sub	sp, #8
 80008ac:	af00      	add	r7, sp, #0
 80008ae:	6078      	str	r0, [r7, #4]
	return servo->currentPositon == servo->newPosition;
 80008b0:	687b      	ldr	r3, [r7, #4]
 80008b2:	885a      	ldrh	r2, [r3, #2]
 80008b4:	687b      	ldr	r3, [r7, #4]
 80008b6:	889b      	ldrh	r3, [r3, #4]
 80008b8:	1ad3      	subs	r3, r2, r3
 80008ba:	425a      	negs	r2, r3
 80008bc:	4153      	adcs	r3, r2
 80008be:	b2db      	uxtb	r3, r3
}
 80008c0:	0018      	movs	r0, r3
 80008c2:	46bd      	mov	sp, r7
 80008c4:	b002      	add	sp, #8
 80008c6:	bd80      	pop	{r7, pc}

080008c8 <isRolledMaxUp>:

bool isRolledMaxUp(Servo* servo) {
 80008c8:	b580      	push	{r7, lr}
 80008ca:	b082      	sub	sp, #8
 80008cc:	af00      	add	r7, sp, #0
 80008ce:	6078      	str	r0, [r7, #4]
	return servo->currentPositon < servo->maxPosition;
 80008d0:	687b      	ldr	r3, [r7, #4]
 80008d2:	885a      	ldrh	r2, [r3, #2]
 80008d4:	687b      	ldr	r3, [r7, #4]
 80008d6:	881b      	ldrh	r3, [r3, #0]
 80008d8:	429a      	cmp	r2, r3
 80008da:	419b      	sbcs	r3, r3
 80008dc:	425b      	negs	r3, r3
 80008de:	b2db      	uxtb	r3, r3
}
 80008e0:	0018      	movs	r0, r3
 80008e2:	46bd      	mov	sp, r7
 80008e4:	b002      	add	sp, #8
 80008e6:	bd80      	pop	{r7, pc}

080008e8 <isRolledMaxDown>:

bool isRolledMaxDown(Servo* servo) {
 80008e8:	b580      	push	{r7, lr}
 80008ea:	b082      	sub	sp, #8
 80008ec:	af00      	add	r7, sp, #0
 80008ee:	6078      	str	r0, [r7, #4]
	return servo->currentPositon > 0;
 80008f0:	687b      	ldr	r3, [r7, #4]
 80008f2:	885b      	ldrh	r3, [r3, #2]
 80008f4:	1e5a      	subs	r2, r3, #1
 80008f6:	4193      	sbcs	r3, r2
 80008f8:	b2db      	uxtb	r3, r3
}
 80008fa:	0018      	movs	r0, r3
 80008fc:	46bd      	mov	sp, r7
 80008fe:	b002      	add	sp, #8
 8000900:	bd80      	pop	{r7, pc}

08000902 <isBelowNewPosition>:

bool isBelowNewPosition(Servo* servo) {
 8000902:	b580      	push	{r7, lr}
 8000904:	b082      	sub	sp, #8
 8000906:	af00      	add	r7, sp, #0
 8000908:	6078      	str	r0, [r7, #4]
	return servo->currentPositon < servo->newPosition;
 800090a:	687b      	ldr	r3, [r7, #4]
 800090c:	885a      	ldrh	r2, [r3, #2]
 800090e:	687b      	ldr	r3, [r7, #4]
 8000910:	889b      	ldrh	r3, [r3, #4]
 8000912:	429a      	cmp	r2, r3
 8000914:	419b      	sbcs	r3, r3
 8000916:	425b      	negs	r3, r3
 8000918:	b2db      	uxtb	r3, r3
}
 800091a:	0018      	movs	r0, r3
 800091c:	46bd      	mov	sp, r7
 800091e:	b002      	add	sp, #8
 8000920:	bd80      	pop	{r7, pc}

08000922 <isAboveNewPosition>:

bool isAboveNewPosition(Servo* servo) {
 8000922:	b580      	push	{r7, lr}
 8000924:	b082      	sub	sp, #8
 8000926:	af00      	add	r7, sp, #0
 8000928:	6078      	str	r0, [r7, #4]
	return servo->currentPositon > servo->newPosition;
 800092a:	687b      	ldr	r3, [r7, #4]
 800092c:	885b      	ldrh	r3, [r3, #2]
 800092e:	687a      	ldr	r2, [r7, #4]
 8000930:	8892      	ldrh	r2, [r2, #4]
 8000932:	429a      	cmp	r2, r3
 8000934:	419b      	sbcs	r3, r3
 8000936:	425b      	negs	r3, r3
 8000938:	b2db      	uxtb	r3, r3
}
 800093a:	0018      	movs	r0, r3
 800093c:	46bd      	mov	sp, r7
 800093e:	b002      	add	sp, #8
 8000940:	bd80      	pop	{r7, pc}

08000942 <isLongerThan>:

bool isLongerThan(Servo* servo, uint16_t blindLength) {
 8000942:	b580      	push	{r7, lr}
 8000944:	b082      	sub	sp, #8
 8000946:	af00      	add	r7, sp, #0
 8000948:	6078      	str	r0, [r7, #4]
 800094a:	000a      	movs	r2, r1
 800094c:	1cbb      	adds	r3, r7, #2
 800094e:	801a      	strh	r2, [r3, #0]
	return blindLength > servo->maxPosition;
 8000950:	687b      	ldr	r3, [r7, #4]
 8000952:	881a      	ldrh	r2, [r3, #0]
 8000954:	1cbb      	adds	r3, r7, #2
 8000956:	881b      	ldrh	r3, [r3, #0]
 8000958:	429a      	cmp	r2, r3
 800095a:	419b      	sbcs	r3, r3
 800095c:	425b      	negs	r3, r3
 800095e:	b2db      	uxtb	r3, r3
}
 8000960:	0018      	movs	r0, r3
 8000962:	46bd      	mov	sp, r7
 8000964:	b002      	add	sp, #8
 8000966:	bd80      	pop	{r7, pc}

08000968 <isPositiveLength>:

bool isPositiveLength(Servo* servo, uint16_t blindLength) {
 8000968:	b580      	push	{r7, lr}
 800096a:	b082      	sub	sp, #8
 800096c:	af00      	add	r7, sp, #0
 800096e:	6078      	str	r0, [r7, #4]
 8000970:	000a      	movs	r2, r1
 8000972:	1cbb      	adds	r3, r7, #2
 8000974:	801a      	strh	r2, [r3, #0]
	return blindLength >= 0;
 8000976:	2301      	movs	r3, #1
}
 8000978:	0018      	movs	r0, r3
 800097a:	46bd      	mov	sp, r7
 800097c:	b002      	add	sp, #8
 800097e:	bd80      	pop	{r7, pc}

08000980 <rollDown>:

void rollDown(Servo* servo) {
 8000980:	b580      	push	{r7, lr}
 8000982:	b082      	sub	sp, #8
 8000984:	af00      	add	r7, sp, #0
 8000986:	6078      	str	r0, [r7, #4]
	__HAL_TIM_SET_COMPARE(&htim3, TIM_CHANNEL_1, 1394);
 8000988:	4b06      	ldr	r3, [pc, #24]	; (80009a4 <rollDown+0x24>)
 800098a:	681b      	ldr	r3, [r3, #0]
 800098c:	4a06      	ldr	r2, [pc, #24]	; (80009a8 <rollDown+0x28>)
 800098e:	635a      	str	r2, [r3, #52]	; 0x34
	servo->currentPositon--;
 8000990:	687b      	ldr	r3, [r7, #4]
 8000992:	885b      	ldrh	r3, [r3, #2]
 8000994:	3b01      	subs	r3, #1
 8000996:	b29a      	uxth	r2, r3
 8000998:	687b      	ldr	r3, [r7, #4]
 800099a:	805a      	strh	r2, [r3, #2]
}
 800099c:	46c0      	nop			; (mov r8, r8)
 800099e:	46bd      	mov	sp, r7
 80009a0:	b002      	add	sp, #8
 80009a2:	bd80      	pop	{r7, pc}
 80009a4:	20000180 	.word	0x20000180
 80009a8:	00000572 	.word	0x00000572

080009ac <rollUp>:

void rollUp(Servo* servo) {
 80009ac:	b580      	push	{r7, lr}
 80009ae:	b082      	sub	sp, #8
 80009b0:	af00      	add	r7, sp, #0
 80009b2:	6078      	str	r0, [r7, #4]
	__HAL_TIM_SET_COMPARE(&htim3, TIM_CHANNEL_1, 1568);
 80009b4:	4b07      	ldr	r3, [pc, #28]	; (80009d4 <rollUp+0x28>)
 80009b6:	681b      	ldr	r3, [r3, #0]
 80009b8:	22c4      	movs	r2, #196	; 0xc4
 80009ba:	00d2      	lsls	r2, r2, #3
 80009bc:	635a      	str	r2, [r3, #52]	; 0x34
	servo->currentPositon++;
 80009be:	687b      	ldr	r3, [r7, #4]
 80009c0:	885b      	ldrh	r3, [r3, #2]
 80009c2:	3301      	adds	r3, #1
 80009c4:	b29a      	uxth	r2, r3
 80009c6:	687b      	ldr	r3, [r7, #4]
 80009c8:	805a      	strh	r2, [r3, #2]
}
 80009ca:	46c0      	nop			; (mov r8, r8)
 80009cc:	46bd      	mov	sp, r7
 80009ce:	b002      	add	sp, #8
 80009d0:	bd80      	pop	{r7, pc}
 80009d2:	46c0      	nop			; (mov r8, r8)
 80009d4:	20000180 	.word	0x20000180

080009d8 <stopRolling>:

void stopRolling() {
 80009d8:	b580      	push	{r7, lr}
 80009da:	af00      	add	r7, sp, #0
//	__HAL_TIM_SET_COMPARE(&htim3, TIM_CHANNEL_1, 1474);
	__HAL_TIM_SET_COMPARE(&htim3, TIM_CHANNEL_1, 1460);
 80009dc:	4b03      	ldr	r3, [pc, #12]	; (80009ec <stopRolling+0x14>)
 80009de:	681b      	ldr	r3, [r3, #0]
 80009e0:	4a03      	ldr	r2, [pc, #12]	; (80009f0 <stopRolling+0x18>)
 80009e2:	635a      	str	r2, [r3, #52]	; 0x34
}
 80009e4:	46c0      	nop			; (mov r8, r8)
 80009e6:	46bd      	mov	sp, r7
 80009e8:	bd80      	pop	{r7, pc}
 80009ea:	46c0      	nop			; (mov r8, r8)
 80009ec:	20000180 	.word	0x20000180
 80009f0:	000005b4 	.word	0x000005b4

080009f4 <MX_ADC_Init>:

ADC_HandleTypeDef hadc;

/* ADC init function */
void MX_ADC_Init(void)
{
 80009f4:	b580      	push	{r7, lr}
 80009f6:	b082      	sub	sp, #8
 80009f8:	af00      	add	r7, sp, #0

  /* USER CODE BEGIN ADC_Init 0 */

  /* USER CODE END ADC_Init 0 */

  ADC_ChannelConfTypeDef sConfig = {0};
 80009fa:	003b      	movs	r3, r7
 80009fc:	0018      	movs	r0, r3
 80009fe:	2308      	movs	r3, #8
 8000a00:	001a      	movs	r2, r3
 8000a02:	2100      	movs	r1, #0
 8000a04:	f004 fff1 	bl	80059ea <memset>
  /* USER CODE BEGIN ADC_Init 1 */

  /* USER CODE END ADC_Init 1 */
  /** Configure the global features of the ADC (Clock, Resolution, Data Alignment and number of conversion)
  */
  hadc.Instance = ADC1;
 8000a08:	4b32      	ldr	r3, [pc, #200]	; (8000ad4 <MX_ADC_Init+0xe0>)
 8000a0a:	4a33      	ldr	r2, [pc, #204]	; (8000ad8 <MX_ADC_Init+0xe4>)
 8000a0c:	601a      	str	r2, [r3, #0]
  hadc.Init.OversamplingMode = DISABLE;
 8000a0e:	4b31      	ldr	r3, [pc, #196]	; (8000ad4 <MX_ADC_Init+0xe0>)
 8000a10:	2200      	movs	r2, #0
 8000a12:	63da      	str	r2, [r3, #60]	; 0x3c
  hadc.Init.ClockPrescaler = ADC_CLOCK_SYNC_PCLK_DIV1;
 8000a14:	4b2f      	ldr	r3, [pc, #188]	; (8000ad4 <MX_ADC_Init+0xe0>)
 8000a16:	22c0      	movs	r2, #192	; 0xc0
 8000a18:	0612      	lsls	r2, r2, #24
 8000a1a:	605a      	str	r2, [r3, #4]
  hadc.Init.Resolution = ADC_RESOLUTION_12B;
 8000a1c:	4b2d      	ldr	r3, [pc, #180]	; (8000ad4 <MX_ADC_Init+0xe0>)
 8000a1e:	2200      	movs	r2, #0
 8000a20:	609a      	str	r2, [r3, #8]
  hadc.Init.SamplingTime = ADC_SAMPLETIME_7CYCLES_5;
 8000a22:	4b2c      	ldr	r3, [pc, #176]	; (8000ad4 <MX_ADC_Init+0xe0>)
 8000a24:	2202      	movs	r2, #2
 8000a26:	639a      	str	r2, [r3, #56]	; 0x38
  hadc.Init.ScanConvMode = ADC_SCAN_DIRECTION_FORWARD;
 8000a28:	4b2a      	ldr	r3, [pc, #168]	; (8000ad4 <MX_ADC_Init+0xe0>)
 8000a2a:	2201      	movs	r2, #1
 8000a2c:	611a      	str	r2, [r3, #16]
  hadc.Init.DataAlign = ADC_DATAALIGN_RIGHT;
 8000a2e:	4b29      	ldr	r3, [pc, #164]	; (8000ad4 <MX_ADC_Init+0xe0>)
 8000a30:	2200      	movs	r2, #0
 8000a32:	60da      	str	r2, [r3, #12]
  hadc.Init.ContinuousConvMode = ENABLE;
 8000a34:	4b27      	ldr	r3, [pc, #156]	; (8000ad4 <MX_ADC_Init+0xe0>)
 8000a36:	2220      	movs	r2, #32
 8000a38:	2101      	movs	r1, #1
 8000a3a:	5499      	strb	r1, [r3, r2]
  hadc.Init.DiscontinuousConvMode = DISABLE;
 8000a3c:	4b25      	ldr	r3, [pc, #148]	; (8000ad4 <MX_ADC_Init+0xe0>)
 8000a3e:	2221      	movs	r2, #33	; 0x21
 8000a40:	2100      	movs	r1, #0
 8000a42:	5499      	strb	r1, [r3, r2]
  hadc.Init.ExternalTrigConvEdge = ADC_EXTERNALTRIGCONVEDGE_NONE;
 8000a44:	4b23      	ldr	r3, [pc, #140]	; (8000ad4 <MX_ADC_Init+0xe0>)
 8000a46:	2200      	movs	r2, #0
 8000a48:	629a      	str	r2, [r3, #40]	; 0x28
  hadc.Init.ExternalTrigConv = ADC_SOFTWARE_START;
 8000a4a:	4b22      	ldr	r3, [pc, #136]	; (8000ad4 <MX_ADC_Init+0xe0>)
 8000a4c:	22c2      	movs	r2, #194	; 0xc2
 8000a4e:	32ff      	adds	r2, #255	; 0xff
 8000a50:	625a      	str	r2, [r3, #36]	; 0x24
  hadc.Init.DMAContinuousRequests = DISABLE;
 8000a52:	4b20      	ldr	r3, [pc, #128]	; (8000ad4 <MX_ADC_Init+0xe0>)
 8000a54:	222c      	movs	r2, #44	; 0x2c
 8000a56:	2100      	movs	r1, #0
 8000a58:	5499      	strb	r1, [r3, r2]
  hadc.Init.EOCSelection = ADC_EOC_SINGLE_CONV;
 8000a5a:	4b1e      	ldr	r3, [pc, #120]	; (8000ad4 <MX_ADC_Init+0xe0>)
 8000a5c:	2204      	movs	r2, #4
 8000a5e:	615a      	str	r2, [r3, #20]
  hadc.Init.Overrun = ADC_OVR_DATA_PRESERVED;
 8000a60:	4b1c      	ldr	r3, [pc, #112]	; (8000ad4 <MX_ADC_Init+0xe0>)
 8000a62:	2200      	movs	r2, #0
 8000a64:	631a      	str	r2, [r3, #48]	; 0x30
  hadc.Init.LowPowerAutoWait = DISABLE;
 8000a66:	4b1b      	ldr	r3, [pc, #108]	; (8000ad4 <MX_ADC_Init+0xe0>)
 8000a68:	2200      	movs	r2, #0
 8000a6a:	619a      	str	r2, [r3, #24]
  hadc.Init.LowPowerFrequencyMode = DISABLE;
 8000a6c:	4b19      	ldr	r3, [pc, #100]	; (8000ad4 <MX_ADC_Init+0xe0>)
 8000a6e:	2200      	movs	r2, #0
 8000a70:	635a      	str	r2, [r3, #52]	; 0x34
  hadc.Init.LowPowerAutoPowerOff = DISABLE;
 8000a72:	4b18      	ldr	r3, [pc, #96]	; (8000ad4 <MX_ADC_Init+0xe0>)
 8000a74:	2200      	movs	r2, #0
 8000a76:	61da      	str	r2, [r3, #28]
  if (HAL_ADC_Init(&hadc) != HAL_OK)
 8000a78:	4b16      	ldr	r3, [pc, #88]	; (8000ad4 <MX_ADC_Init+0xe0>)
 8000a7a:	0018      	movs	r0, r3
 8000a7c:	f001 f81a 	bl	8001ab4 <HAL_ADC_Init>
 8000a80:	1e03      	subs	r3, r0, #0
 8000a82:	d001      	beq.n	8000a88 <MX_ADC_Init+0x94>
  {
    Error_Handler();
 8000a84:	f000 fb96 	bl	80011b4 <Error_Handler>
  }
  /** Configure for the selected ADC regular channel to be converted.
  */
  sConfig.Channel = ADC_CHANNEL_14;
 8000a88:	003b      	movs	r3, r7
 8000a8a:	4a14      	ldr	r2, [pc, #80]	; (8000adc <MX_ADC_Init+0xe8>)
 8000a8c:	601a      	str	r2, [r3, #0]
  sConfig.Rank = ADC_RANK_CHANNEL_NUMBER;
 8000a8e:	003b      	movs	r3, r7
 8000a90:	2280      	movs	r2, #128	; 0x80
 8000a92:	0152      	lsls	r2, r2, #5
 8000a94:	605a      	str	r2, [r3, #4]
  if (HAL_ADC_ConfigChannel(&hadc, &sConfig) != HAL_OK)
 8000a96:	003a      	movs	r2, r7
 8000a98:	4b0e      	ldr	r3, [pc, #56]	; (8000ad4 <MX_ADC_Init+0xe0>)
 8000a9a:	0011      	movs	r1, r2
 8000a9c:	0018      	movs	r0, r3
 8000a9e:	f001 fa79 	bl	8001f94 <HAL_ADC_ConfigChannel>
 8000aa2:	1e03      	subs	r3, r0, #0
 8000aa4:	d001      	beq.n	8000aaa <MX_ADC_Init+0xb6>
  {
    Error_Handler();
 8000aa6:	f000 fb85 	bl	80011b4 <Error_Handler>
  }
  /* USER CODE BEGIN ADC_Init 2 */
  if (HAL_ADCEx_Calibration_Start(&hadc, ADC_SINGLE_ENDED) != HAL_OK)
 8000aaa:	4b0a      	ldr	r3, [pc, #40]	; (8000ad4 <MX_ADC_Init+0xe0>)
 8000aac:	2100      	movs	r1, #0
 8000aae:	0018      	movs	r0, r3
 8000ab0:	f001 fba2 	bl	80021f8 <HAL_ADCEx_Calibration_Start>
 8000ab4:	1e03      	subs	r3, r0, #0
 8000ab6:	d001      	beq.n	8000abc <MX_ADC_Init+0xc8>
  {
    Error_Handler();
 8000ab8:	f000 fb7c 	bl	80011b4 <Error_Handler>
  }

  if (HAL_ADC_Start(&hadc) != HAL_OK)
 8000abc:	4b05      	ldr	r3, [pc, #20]	; (8000ad4 <MX_ADC_Init+0xe0>)
 8000abe:	0018      	movs	r0, r3
 8000ac0:	f001 f96c 	bl	8001d9c <HAL_ADC_Start>
 8000ac4:	1e03      	subs	r3, r0, #0
 8000ac6:	d001      	beq.n	8000acc <MX_ADC_Init+0xd8>
  {
    /* Start Conversation Error */
    Error_Handler();
 8000ac8:	f000 fb74 	bl	80011b4 <Error_Handler>
   }

  /* USER CODE END ADC_Init 2 */

}
 8000acc:	46c0      	nop			; (mov r8, r8)
 8000ace:	46bd      	mov	sp, r7
 8000ad0:	b002      	add	sp, #8
 8000ad2:	bd80      	pop	{r7, pc}
 8000ad4:	200000bc 	.word	0x200000bc
 8000ad8:	40012400 	.word	0x40012400
 8000adc:	38004000 	.word	0x38004000

08000ae0 <HAL_ADC_MspInit>:

void HAL_ADC_MspInit(ADC_HandleTypeDef* adcHandle)
{
 8000ae0:	b590      	push	{r4, r7, lr}
 8000ae2:	b089      	sub	sp, #36	; 0x24
 8000ae4:	af00      	add	r7, sp, #0
 8000ae6:	6078      	str	r0, [r7, #4]

  GPIO_InitTypeDef GPIO_InitStruct = {0};
 8000ae8:	240c      	movs	r4, #12
 8000aea:	193b      	adds	r3, r7, r4
 8000aec:	0018      	movs	r0, r3
 8000aee:	2314      	movs	r3, #20
 8000af0:	001a      	movs	r2, r3
 8000af2:	2100      	movs	r1, #0
 8000af4:	f004 ff79 	bl	80059ea <memset>
  if(adcHandle->Instance==ADC1)
 8000af8:	687b      	ldr	r3, [r7, #4]
 8000afa:	681b      	ldr	r3, [r3, #0]
 8000afc:	4a14      	ldr	r2, [pc, #80]	; (8000b50 <HAL_ADC_MspInit+0x70>)
 8000afe:	4293      	cmp	r3, r2
 8000b00:	d121      	bne.n	8000b46 <HAL_ADC_MspInit+0x66>
  {
  /* USER CODE BEGIN ADC1_MspInit 0 */

  /* USER CODE END ADC1_MspInit 0 */
    /* ADC1 clock enable */
    __HAL_RCC_ADC1_CLK_ENABLE();
 8000b02:	4b14      	ldr	r3, [pc, #80]	; (8000b54 <HAL_ADC_MspInit+0x74>)
 8000b04:	6b5a      	ldr	r2, [r3, #52]	; 0x34
 8000b06:	4b13      	ldr	r3, [pc, #76]	; (8000b54 <HAL_ADC_MspInit+0x74>)
 8000b08:	2180      	movs	r1, #128	; 0x80
 8000b0a:	0089      	lsls	r1, r1, #2
 8000b0c:	430a      	orrs	r2, r1
 8000b0e:	635a      	str	r2, [r3, #52]	; 0x34

    __HAL_RCC_GPIOC_CLK_ENABLE();
 8000b10:	4b10      	ldr	r3, [pc, #64]	; (8000b54 <HAL_ADC_MspInit+0x74>)
 8000b12:	6ada      	ldr	r2, [r3, #44]	; 0x2c
 8000b14:	4b0f      	ldr	r3, [pc, #60]	; (8000b54 <HAL_ADC_MspInit+0x74>)
 8000b16:	2104      	movs	r1, #4
 8000b18:	430a      	orrs	r2, r1
 8000b1a:	62da      	str	r2, [r3, #44]	; 0x2c
 8000b1c:	4b0d      	ldr	r3, [pc, #52]	; (8000b54 <HAL_ADC_MspInit+0x74>)
 8000b1e:	6adb      	ldr	r3, [r3, #44]	; 0x2c
 8000b20:	2204      	movs	r2, #4
 8000b22:	4013      	ands	r3, r2
 8000b24:	60bb      	str	r3, [r7, #8]
 8000b26:	68bb      	ldr	r3, [r7, #8]
    /**ADC GPIO Configuration
    PC4     ------> ADC_IN14
    */
    GPIO_InitStruct.Pin = GPIO_PIN_4;
 8000b28:	193b      	adds	r3, r7, r4
 8000b2a:	2210      	movs	r2, #16
 8000b2c:	601a      	str	r2, [r3, #0]
    GPIO_InitStruct.Mode = GPIO_MODE_ANALOG;
 8000b2e:	193b      	adds	r3, r7, r4
 8000b30:	2203      	movs	r2, #3
 8000b32:	605a      	str	r2, [r3, #4]
    GPIO_InitStruct.Pull = GPIO_NOPULL;
 8000b34:	193b      	adds	r3, r7, r4
 8000b36:	2200      	movs	r2, #0
 8000b38:	609a      	str	r2, [r3, #8]
    HAL_GPIO_Init(GPIOC, &GPIO_InitStruct);
 8000b3a:	193b      	adds	r3, r7, r4
 8000b3c:	4a06      	ldr	r2, [pc, #24]	; (8000b58 <HAL_ADC_MspInit+0x78>)
 8000b3e:	0019      	movs	r1, r3
 8000b40:	0010      	movs	r0, r2
 8000b42:	f001 fd5d 	bl	8002600 <HAL_GPIO_Init>

  /* USER CODE BEGIN ADC1_MspInit 1 */

  /* USER CODE END ADC1_MspInit 1 */
  }
}
 8000b46:	46c0      	nop			; (mov r8, r8)
 8000b48:	46bd      	mov	sp, r7
 8000b4a:	b009      	add	sp, #36	; 0x24
 8000b4c:	bd90      	pop	{r4, r7, pc}
 8000b4e:	46c0      	nop			; (mov r8, r8)
 8000b50:	40012400 	.word	0x40012400
 8000b54:	40021000 	.word	0x40021000
 8000b58:	50000800 	.word	0x50000800

08000b5c <msgHandler>:
uint8_t buffer_index = 0;
uint8_t timer_count = 0;
char buffer[50];
char info[50];

void msgHandler(void) {
 8000b5c:	b5b0      	push	{r4, r5, r7, lr}
 8000b5e:	b084      	sub	sp, #16
 8000b60:	af00      	add	r7, sp, #0
	if (strncmp(buffer, "SERWO MAX UP", strlen("SERWO MAX UP"))) {
 8000b62:	49d3      	ldr	r1, [pc, #844]	; (8000eb0 <msgHandler+0x354>)
 8000b64:	4bd3      	ldr	r3, [pc, #844]	; (8000eb4 <msgHandler+0x358>)
 8000b66:	220c      	movs	r2, #12
 8000b68:	0018      	movs	r0, r3
 8000b6a:	f004 ff67 	bl	8005a3c <strncmp>
 8000b6e:	1e03      	subs	r3, r0, #0
 8000b70:	d00b      	beq.n	8000b8a <msgHandler+0x2e>
		setPositionToMax(&servo);
 8000b72:	4bd1      	ldr	r3, [pc, #836]	; (8000eb8 <msgHandler+0x35c>)
 8000b74:	0018      	movs	r0, r3
 8000b76:	f7ff fe4a 	bl	800080e <setPositionToMax>
		HAL_UART_Transmit(&huart1, (uint8_t*)"Servo going up to min.\n", strlen("Servo going up to min.\n"), 500);
 8000b7a:	23fa      	movs	r3, #250	; 0xfa
 8000b7c:	005b      	lsls	r3, r3, #1
 8000b7e:	49cf      	ldr	r1, [pc, #828]	; (8000ebc <msgHandler+0x360>)
 8000b80:	48cf      	ldr	r0, [pc, #828]	; (8000ec0 <msgHandler+0x364>)
 8000b82:	2217      	movs	r2, #23
 8000b84:	f003 fd42 	bl	800460c <HAL_UART_Transmit>
 8000b88:	e181      	b.n	8000e8e <msgHandler+0x332>
	} else if (strncmp(buffer, "SERWO MIN DOWN", strlen("SERWO MIN DOWN"))) {
 8000b8a:	49ce      	ldr	r1, [pc, #824]	; (8000ec4 <msgHandler+0x368>)
 8000b8c:	4bc9      	ldr	r3, [pc, #804]	; (8000eb4 <msgHandler+0x358>)
 8000b8e:	220e      	movs	r2, #14
 8000b90:	0018      	movs	r0, r3
 8000b92:	f004 ff53 	bl	8005a3c <strncmp>
 8000b96:	1e03      	subs	r3, r0, #0
 8000b98:	d00b      	beq.n	8000bb2 <msgHandler+0x56>
		setPositionToMin(&servo);
 8000b9a:	4bc7      	ldr	r3, [pc, #796]	; (8000eb8 <msgHandler+0x35c>)
 8000b9c:	0018      	movs	r0, r3
 8000b9e:	f7ff fe42 	bl	8000826 <setPositionToMin>
		HAL_UART_Transmit(&huart1, (uint8_t*)"Servo going down to max.\n", strlen("Servo going down to max.\n"), 500);
 8000ba2:	23fa      	movs	r3, #250	; 0xfa
 8000ba4:	005b      	lsls	r3, r3, #1
 8000ba6:	49c8      	ldr	r1, [pc, #800]	; (8000ec8 <msgHandler+0x36c>)
 8000ba8:	48c5      	ldr	r0, [pc, #788]	; (8000ec0 <msgHandler+0x364>)
 8000baa:	2219      	movs	r2, #25
 8000bac:	f003 fd2e 	bl	800460c <HAL_UART_Transmit>
 8000bb0:	e16d      	b.n	8000e8e <msgHandler+0x332>
	} else if (strncmp(buffer, "SERWO UP", strlen("SERWO UP"))) {
 8000bb2:	49c6      	ldr	r1, [pc, #792]	; (8000ecc <msgHandler+0x370>)
 8000bb4:	4bbf      	ldr	r3, [pc, #764]	; (8000eb4 <msgHandler+0x358>)
 8000bb6:	2208      	movs	r2, #8
 8000bb8:	0018      	movs	r0, r3
 8000bba:	f004 ff3f 	bl	8005a3c <strncmp>
 8000bbe:	1e03      	subs	r3, r0, #0
 8000bc0:	d00c      	beq.n	8000bdc <msgHandler+0x80>
		increasePositionBy(&servo, 1);
 8000bc2:	4bbd      	ldr	r3, [pc, #756]	; (8000eb8 <msgHandler+0x35c>)
 8000bc4:	2101      	movs	r1, #1
 8000bc6:	0018      	movs	r0, r3
 8000bc8:	f7ff fdbd 	bl	8000746 <increasePositionBy>
		HAL_UART_Transmit(&huart1, (uint8_t*)"Servo going up by 1.\n", strlen("Servo going up by 1.\n"), 500);
 8000bcc:	23fa      	movs	r3, #250	; 0xfa
 8000bce:	005b      	lsls	r3, r3, #1
 8000bd0:	49bf      	ldr	r1, [pc, #764]	; (8000ed0 <msgHandler+0x374>)
 8000bd2:	48bb      	ldr	r0, [pc, #748]	; (8000ec0 <msgHandler+0x364>)
 8000bd4:	2215      	movs	r2, #21
 8000bd6:	f003 fd19 	bl	800460c <HAL_UART_Transmit>
 8000bda:	e158      	b.n	8000e8e <msgHandler+0x332>
	} else if (strncmp(buffer, "SERWO DOWN", strlen("SERWO DOWN"))) {
 8000bdc:	49bd      	ldr	r1, [pc, #756]	; (8000ed4 <msgHandler+0x378>)
 8000bde:	4bb5      	ldr	r3, [pc, #724]	; (8000eb4 <msgHandler+0x358>)
 8000be0:	220a      	movs	r2, #10
 8000be2:	0018      	movs	r0, r3
 8000be4:	f004 ff2a 	bl	8005a3c <strncmp>
 8000be8:	1e03      	subs	r3, r0, #0
 8000bea:	d00d      	beq.n	8000c08 <msgHandler+0xac>
		increasePositionBy(&servo, -1);
 8000bec:	4aba      	ldr	r2, [pc, #744]	; (8000ed8 <msgHandler+0x37c>)
 8000bee:	4bb2      	ldr	r3, [pc, #712]	; (8000eb8 <msgHandler+0x35c>)
 8000bf0:	0011      	movs	r1, r2
 8000bf2:	0018      	movs	r0, r3
 8000bf4:	f7ff fda7 	bl	8000746 <increasePositionBy>
		HAL_UART_Transmit(&huart1, (uint8_t*)"Servo going down by 1.\n", strlen("Servo going down by 1.\n"), 500);
 8000bf8:	23fa      	movs	r3, #250	; 0xfa
 8000bfa:	005b      	lsls	r3, r3, #1
 8000bfc:	49b7      	ldr	r1, [pc, #732]	; (8000edc <msgHandler+0x380>)
 8000bfe:	48b0      	ldr	r0, [pc, #704]	; (8000ec0 <msgHandler+0x364>)
 8000c00:	2217      	movs	r2, #23
 8000c02:	f003 fd03 	bl	800460c <HAL_UART_Transmit>
 8000c06:	e142      	b.n	8000e8e <msgHandler+0x332>
	} else if (strncmp(buffer, "SET MIN LDR READING xxx", strlen("SET MIN LDR READING")) == 0) {
 8000c08:	49b5      	ldr	r1, [pc, #724]	; (8000ee0 <msgHandler+0x384>)
 8000c0a:	4baa      	ldr	r3, [pc, #680]	; (8000eb4 <msgHandler+0x358>)
 8000c0c:	2213      	movs	r2, #19
 8000c0e:	0018      	movs	r0, r3
 8000c10:	f004 ff14 	bl	8005a3c <strncmp>
 8000c14:	1e03      	subs	r3, r0, #0
 8000c16:	d10e      	bne.n	8000c36 <msgHandler+0xda>
		uint16_t ldrValue = getLastWordAsInt(buffer);
 8000c18:	003c      	movs	r4, r7
 8000c1a:	4ba6      	ldr	r3, [pc, #664]	; (8000eb4 <msgHandler+0x358>)
 8000c1c:	0018      	movs	r0, r3
 8000c1e:	f000 face 	bl	80011be <getLastWordAsInt>
 8000c22:	0003      	movs	r3, r0
 8000c24:	8023      	strh	r3, [r4, #0]
		setMinReading(&ldr, ldrValue);
 8000c26:	003b      	movs	r3, r7
 8000c28:	881a      	ldrh	r2, [r3, #0]
 8000c2a:	4bae      	ldr	r3, [pc, #696]	; (8000ee4 <msgHandler+0x388>)
 8000c2c:	0011      	movs	r1, r2
 8000c2e:	0018      	movs	r0, r3
 8000c30:	f7ff fcfd 	bl	800062e <setMinReading>
 8000c34:	e12b      	b.n	8000e8e <msgHandler+0x332>
	} else if (strncmp(buffer, "SET MAX LDR READING xxx", strlen("SET MAX LDR READING")) == 0) {
 8000c36:	49ac      	ldr	r1, [pc, #688]	; (8000ee8 <msgHandler+0x38c>)
 8000c38:	4b9e      	ldr	r3, [pc, #632]	; (8000eb4 <msgHandler+0x358>)
 8000c3a:	2213      	movs	r2, #19
 8000c3c:	0018      	movs	r0, r3
 8000c3e:	f004 fefd 	bl	8005a3c <strncmp>
 8000c42:	1e03      	subs	r3, r0, #0
 8000c44:	d10e      	bne.n	8000c64 <msgHandler+0x108>
		uint16_t ldrValue = getLastWordAsInt(buffer);
 8000c46:	1cbc      	adds	r4, r7, #2
 8000c48:	4b9a      	ldr	r3, [pc, #616]	; (8000eb4 <msgHandler+0x358>)
 8000c4a:	0018      	movs	r0, r3
 8000c4c:	f000 fab7 	bl	80011be <getLastWordAsInt>
 8000c50:	0003      	movs	r3, r0
 8000c52:	8023      	strh	r3, [r4, #0]
		setMaxReading(&ldr, ldrValue);
 8000c54:	1cbb      	adds	r3, r7, #2
 8000c56:	881a      	ldrh	r2, [r3, #0]
 8000c58:	4ba2      	ldr	r3, [pc, #648]	; (8000ee4 <msgHandler+0x388>)
 8000c5a:	0011      	movs	r1, r2
 8000c5c:	0018      	movs	r0, r3
 8000c5e:	f7ff fcf5 	bl	800064c <setMaxReading>
 8000c62:	e114      	b.n	8000e8e <msgHandler+0x332>
	} else if (strncmp(buffer, "SET UPPER LDR CONTROL LIMIT xxx", strlen("SET UPPER LDR CONTROL LIMIT")) == 0) {
 8000c64:	49a1      	ldr	r1, [pc, #644]	; (8000eec <msgHandler+0x390>)
 8000c66:	4b93      	ldr	r3, [pc, #588]	; (8000eb4 <msgHandler+0x358>)
 8000c68:	221b      	movs	r2, #27
 8000c6a:	0018      	movs	r0, r3
 8000c6c:	f004 fee6 	bl	8005a3c <strncmp>
 8000c70:	1e03      	subs	r3, r0, #0
 8000c72:	d10e      	bne.n	8000c92 <msgHandler+0x136>
		uint16_t ldrValue = getLastWordAsInt(buffer);
 8000c74:	1d3c      	adds	r4, r7, #4
 8000c76:	4b8f      	ldr	r3, [pc, #572]	; (8000eb4 <msgHandler+0x358>)
 8000c78:	0018      	movs	r0, r3
 8000c7a:	f000 faa0 	bl	80011be <getLastWordAsInt>
 8000c7e:	0003      	movs	r3, r0
 8000c80:	8023      	strh	r3, [r4, #0]
		setUpperControlLimit(&ldr, ldrValue);
 8000c82:	1d3b      	adds	r3, r7, #4
 8000c84:	881a      	ldrh	r2, [r3, #0]
 8000c86:	4b97      	ldr	r3, [pc, #604]	; (8000ee4 <msgHandler+0x388>)
 8000c88:	0011      	movs	r1, r2
 8000c8a:	0018      	movs	r0, r3
 8000c8c:	f7ff fced 	bl	800066a <setUpperControlLimit>
 8000c90:	e0fd      	b.n	8000e8e <msgHandler+0x332>
	} else if (strncmp(buffer, "SET LOWER LDR CONTROL LIMIT xxx", strlen("SET LOWER LDR CONTROL LIMIT")) == 0) {
 8000c92:	4997      	ldr	r1, [pc, #604]	; (8000ef0 <msgHandler+0x394>)
 8000c94:	4b87      	ldr	r3, [pc, #540]	; (8000eb4 <msgHandler+0x358>)
 8000c96:	221b      	movs	r2, #27
 8000c98:	0018      	movs	r0, r3
 8000c9a:	f004 fecf 	bl	8005a3c <strncmp>
 8000c9e:	1e03      	subs	r3, r0, #0
 8000ca0:	d10e      	bne.n	8000cc0 <msgHandler+0x164>
		uint16_t ldrValue = getLastWordAsInt(buffer);
 8000ca2:	1dbc      	adds	r4, r7, #6
 8000ca4:	4b83      	ldr	r3, [pc, #524]	; (8000eb4 <msgHandler+0x358>)
 8000ca6:	0018      	movs	r0, r3
 8000ca8:	f000 fa89 	bl	80011be <getLastWordAsInt>
 8000cac:	0003      	movs	r3, r0
 8000cae:	8023      	strh	r3, [r4, #0]
		setLowerControlLimit(&ldr, ldrValue);
 8000cb0:	1dbb      	adds	r3, r7, #6
 8000cb2:	881a      	ldrh	r2, [r3, #0]
 8000cb4:	4b8b      	ldr	r3, [pc, #556]	; (8000ee4 <msgHandler+0x388>)
 8000cb6:	0011      	movs	r1, r2
 8000cb8:	0018      	movs	r0, r3
 8000cba:	f7ff fce5 	bl	8000688 <setLowerControlLimit>
 8000cbe:	e0e6      	b.n	8000e8e <msgHandler+0x332>
	} else if (strncmp(buffer, "PRINT MIN LDR READING", strlen("PRINT MIN LDR READING"))) {
 8000cc0:	498c      	ldr	r1, [pc, #560]	; (8000ef4 <msgHandler+0x398>)
 8000cc2:	4b7c      	ldr	r3, [pc, #496]	; (8000eb4 <msgHandler+0x358>)
 8000cc4:	2215      	movs	r2, #21
 8000cc6:	0018      	movs	r0, r3
 8000cc8:	f004 feb8 	bl	8005a3c <strncmp>
 8000ccc:	1e03      	subs	r3, r0, #0
 8000cce:	d02a      	beq.n	8000d26 <msgHandler+0x1ca>
		uint16_t ldrValue = getMinReading(&ldr);
 8000cd0:	2508      	movs	r5, #8
 8000cd2:	197c      	adds	r4, r7, r5
 8000cd4:	4b83      	ldr	r3, [pc, #524]	; (8000ee4 <msgHandler+0x388>)
 8000cd6:	0018      	movs	r0, r3
 8000cd8:	f7ff fce5 	bl	80006a6 <getMinReading>
 8000cdc:	0003      	movs	r3, r0
 8000cde:	8023      	strh	r3, [r4, #0]
		sprintf(info, "minLdrReading=%d", ldrValue);
 8000ce0:	197b      	adds	r3, r7, r5
 8000ce2:	881a      	ldrh	r2, [r3, #0]
 8000ce4:	4984      	ldr	r1, [pc, #528]	; (8000ef8 <msgHandler+0x39c>)
 8000ce6:	4b85      	ldr	r3, [pc, #532]	; (8000efc <msgHandler+0x3a0>)
 8000ce8:	0018      	movs	r0, r3
 8000cea:	f004 fe87 	bl	80059fc <siprintf>
		strcat(info, "\n");
 8000cee:	4b83      	ldr	r3, [pc, #524]	; (8000efc <msgHandler+0x3a0>)
 8000cf0:	0018      	movs	r0, r3
 8000cf2:	f7ff fa09 	bl	8000108 <strlen>
 8000cf6:	0003      	movs	r3, r0
 8000cf8:	001a      	movs	r2, r3
 8000cfa:	4b80      	ldr	r3, [pc, #512]	; (8000efc <msgHandler+0x3a0>)
 8000cfc:	18d2      	adds	r2, r2, r3
 8000cfe:	4b80      	ldr	r3, [pc, #512]	; (8000f00 <msgHandler+0x3a4>)
 8000d00:	0010      	movs	r0, r2
 8000d02:	0019      	movs	r1, r3
 8000d04:	2302      	movs	r3, #2
 8000d06:	001a      	movs	r2, r3
 8000d08:	f004 fe66 	bl	80059d8 <memcpy>
		HAL_UART_Transmit(&huart1, (uint8_t*)info, strlen(info), 500);
 8000d0c:	4b7b      	ldr	r3, [pc, #492]	; (8000efc <msgHandler+0x3a0>)
 8000d0e:	0018      	movs	r0, r3
 8000d10:	f7ff f9fa 	bl	8000108 <strlen>
 8000d14:	0003      	movs	r3, r0
 8000d16:	b29a      	uxth	r2, r3
 8000d18:	23fa      	movs	r3, #250	; 0xfa
 8000d1a:	005b      	lsls	r3, r3, #1
 8000d1c:	4977      	ldr	r1, [pc, #476]	; (8000efc <msgHandler+0x3a0>)
 8000d1e:	4868      	ldr	r0, [pc, #416]	; (8000ec0 <msgHandler+0x364>)
 8000d20:	f003 fc74 	bl	800460c <HAL_UART_Transmit>
 8000d24:	e0b3      	b.n	8000e8e <msgHandler+0x332>
	} else if (strncmp(buffer, "PRINT MAX LDR READING", strlen("PRINT MAX LDR READING"))) {
 8000d26:	4977      	ldr	r1, [pc, #476]	; (8000f04 <msgHandler+0x3a8>)
 8000d28:	4b62      	ldr	r3, [pc, #392]	; (8000eb4 <msgHandler+0x358>)
 8000d2a:	2215      	movs	r2, #21
 8000d2c:	0018      	movs	r0, r3
 8000d2e:	f004 fe85 	bl	8005a3c <strncmp>
 8000d32:	1e03      	subs	r3, r0, #0
 8000d34:	d02a      	beq.n	8000d8c <msgHandler+0x230>
		uint16_t ldrValue = getMaxReading(&ldr);
 8000d36:	250a      	movs	r5, #10
 8000d38:	197c      	adds	r4, r7, r5
 8000d3a:	4b6a      	ldr	r3, [pc, #424]	; (8000ee4 <msgHandler+0x388>)
 8000d3c:	0018      	movs	r0, r3
 8000d3e:	f7ff fcbc 	bl	80006ba <getMaxReading>
 8000d42:	0003      	movs	r3, r0
 8000d44:	8023      	strh	r3, [r4, #0]
		sprintf(info, "maxLdrReading=%d", ldrValue);
 8000d46:	197b      	adds	r3, r7, r5
 8000d48:	881a      	ldrh	r2, [r3, #0]
 8000d4a:	496f      	ldr	r1, [pc, #444]	; (8000f08 <msgHandler+0x3ac>)
 8000d4c:	4b6b      	ldr	r3, [pc, #428]	; (8000efc <msgHandler+0x3a0>)
 8000d4e:	0018      	movs	r0, r3
 8000d50:	f004 fe54 	bl	80059fc <siprintf>
		strcat(info, "\n");
 8000d54:	4b69      	ldr	r3, [pc, #420]	; (8000efc <msgHandler+0x3a0>)
 8000d56:	0018      	movs	r0, r3
 8000d58:	f7ff f9d6 	bl	8000108 <strlen>
 8000d5c:	0003      	movs	r3, r0
 8000d5e:	001a      	movs	r2, r3
 8000d60:	4b66      	ldr	r3, [pc, #408]	; (8000efc <msgHandler+0x3a0>)
 8000d62:	18d2      	adds	r2, r2, r3
 8000d64:	4b66      	ldr	r3, [pc, #408]	; (8000f00 <msgHandler+0x3a4>)
 8000d66:	0010      	movs	r0, r2
 8000d68:	0019      	movs	r1, r3
 8000d6a:	2302      	movs	r3, #2
 8000d6c:	001a      	movs	r2, r3
 8000d6e:	f004 fe33 	bl	80059d8 <memcpy>
		HAL_UART_Transmit(&huart1, (uint8_t*)info, strlen(info), 500);
 8000d72:	4b62      	ldr	r3, [pc, #392]	; (8000efc <msgHandler+0x3a0>)
 8000d74:	0018      	movs	r0, r3
 8000d76:	f7ff f9c7 	bl	8000108 <strlen>
 8000d7a:	0003      	movs	r3, r0
 8000d7c:	b29a      	uxth	r2, r3
 8000d7e:	23fa      	movs	r3, #250	; 0xfa
 8000d80:	005b      	lsls	r3, r3, #1
 8000d82:	495e      	ldr	r1, [pc, #376]	; (8000efc <msgHandler+0x3a0>)
 8000d84:	484e      	ldr	r0, [pc, #312]	; (8000ec0 <msgHandler+0x364>)
 8000d86:	f003 fc41 	bl	800460c <HAL_UART_Transmit>
 8000d8a:	e080      	b.n	8000e8e <msgHandler+0x332>
	} else if (strncmp(buffer, "PRINT UPPER LDR CONTROL LIMIT", strlen("PRINT UPPER LDR CONTROL LIMIT"))) {
 8000d8c:	495f      	ldr	r1, [pc, #380]	; (8000f0c <msgHandler+0x3b0>)
 8000d8e:	4b49      	ldr	r3, [pc, #292]	; (8000eb4 <msgHandler+0x358>)
 8000d90:	221d      	movs	r2, #29
 8000d92:	0018      	movs	r0, r3
 8000d94:	f004 fe52 	bl	8005a3c <strncmp>
 8000d98:	1e03      	subs	r3, r0, #0
 8000d9a:	d02a      	beq.n	8000df2 <msgHandler+0x296>
		uint16_t ldrValue = getUpperControlLimit(&ldr);
 8000d9c:	250c      	movs	r5, #12
 8000d9e:	197c      	adds	r4, r7, r5
 8000da0:	4b50      	ldr	r3, [pc, #320]	; (8000ee4 <msgHandler+0x388>)
 8000da2:	0018      	movs	r0, r3
 8000da4:	f7ff fc93 	bl	80006ce <getUpperControlLimit>
 8000da8:	0003      	movs	r3, r0
 8000daa:	8023      	strh	r3, [r4, #0]
		sprintf(info, "upperLdrControlLimit=%d", ldrValue);
 8000dac:	197b      	adds	r3, r7, r5
 8000dae:	881a      	ldrh	r2, [r3, #0]
 8000db0:	4957      	ldr	r1, [pc, #348]	; (8000f10 <msgHandler+0x3b4>)
 8000db2:	4b52      	ldr	r3, [pc, #328]	; (8000efc <msgHandler+0x3a0>)
 8000db4:	0018      	movs	r0, r3
 8000db6:	f004 fe21 	bl	80059fc <siprintf>
		strcat(info, "\n");
 8000dba:	4b50      	ldr	r3, [pc, #320]	; (8000efc <msgHandler+0x3a0>)
 8000dbc:	0018      	movs	r0, r3
 8000dbe:	f7ff f9a3 	bl	8000108 <strlen>
 8000dc2:	0003      	movs	r3, r0
 8000dc4:	001a      	movs	r2, r3
 8000dc6:	4b4d      	ldr	r3, [pc, #308]	; (8000efc <msgHandler+0x3a0>)
 8000dc8:	18d2      	adds	r2, r2, r3
 8000dca:	4b4d      	ldr	r3, [pc, #308]	; (8000f00 <msgHandler+0x3a4>)
 8000dcc:	0010      	movs	r0, r2
 8000dce:	0019      	movs	r1, r3
 8000dd0:	2302      	movs	r3, #2
 8000dd2:	001a      	movs	r2, r3
 8000dd4:	f004 fe00 	bl	80059d8 <memcpy>
		HAL_UART_Transmit(&huart1, (uint8_t*)info, strlen(info), 500);
 8000dd8:	4b48      	ldr	r3, [pc, #288]	; (8000efc <msgHandler+0x3a0>)
 8000dda:	0018      	movs	r0, r3
 8000ddc:	f7ff f994 	bl	8000108 <strlen>
 8000de0:	0003      	movs	r3, r0
 8000de2:	b29a      	uxth	r2, r3
 8000de4:	23fa      	movs	r3, #250	; 0xfa
 8000de6:	005b      	lsls	r3, r3, #1
 8000de8:	4944      	ldr	r1, [pc, #272]	; (8000efc <msgHandler+0x3a0>)
 8000dea:	4835      	ldr	r0, [pc, #212]	; (8000ec0 <msgHandler+0x364>)
 8000dec:	f003 fc0e 	bl	800460c <HAL_UART_Transmit>
 8000df0:	e04d      	b.n	8000e8e <msgHandler+0x332>
	} else if (strncmp(buffer, "PRINT LOWER LDR CONTROL LIMIT", strlen("PRINT LOWER LDR CONTROL LIMIT"))) {
 8000df2:	4948      	ldr	r1, [pc, #288]	; (8000f14 <msgHandler+0x3b8>)
 8000df4:	4b2f      	ldr	r3, [pc, #188]	; (8000eb4 <msgHandler+0x358>)
 8000df6:	221d      	movs	r2, #29
 8000df8:	0018      	movs	r0, r3
 8000dfa:	f004 fe1f 	bl	8005a3c <strncmp>
 8000dfe:	1e03      	subs	r3, r0, #0
 8000e00:	d02a      	beq.n	8000e58 <msgHandler+0x2fc>
		uint16_t ldrValue = getLowerControlLimit(&ldr);
 8000e02:	250e      	movs	r5, #14
 8000e04:	197c      	adds	r4, r7, r5
 8000e06:	4b37      	ldr	r3, [pc, #220]	; (8000ee4 <msgHandler+0x388>)
 8000e08:	0018      	movs	r0, r3
 8000e0a:	f7ff fc6a 	bl	80006e2 <getLowerControlLimit>
 8000e0e:	0003      	movs	r3, r0
 8000e10:	8023      	strh	r3, [r4, #0]
		sprintf(info, "lowerLdrControlLimit=%d", ldrValue);
 8000e12:	197b      	adds	r3, r7, r5
 8000e14:	881a      	ldrh	r2, [r3, #0]
 8000e16:	4940      	ldr	r1, [pc, #256]	; (8000f18 <msgHandler+0x3bc>)
 8000e18:	4b38      	ldr	r3, [pc, #224]	; (8000efc <msgHandler+0x3a0>)
 8000e1a:	0018      	movs	r0, r3
 8000e1c:	f004 fdee 	bl	80059fc <siprintf>
		strcat(info, "\n");
 8000e20:	4b36      	ldr	r3, [pc, #216]	; (8000efc <msgHandler+0x3a0>)
 8000e22:	0018      	movs	r0, r3
 8000e24:	f7ff f970 	bl	8000108 <strlen>
 8000e28:	0003      	movs	r3, r0
 8000e2a:	001a      	movs	r2, r3
 8000e2c:	4b33      	ldr	r3, [pc, #204]	; (8000efc <msgHandler+0x3a0>)
 8000e2e:	18d2      	adds	r2, r2, r3
 8000e30:	4b33      	ldr	r3, [pc, #204]	; (8000f00 <msgHandler+0x3a4>)
 8000e32:	0010      	movs	r0, r2
 8000e34:	0019      	movs	r1, r3
 8000e36:	2302      	movs	r3, #2
 8000e38:	001a      	movs	r2, r3
 8000e3a:	f004 fdcd 	bl	80059d8 <memcpy>
		HAL_UART_Transmit(&huart1, (uint8_t*)info, strlen(info), 500);
 8000e3e:	4b2f      	ldr	r3, [pc, #188]	; (8000efc <msgHandler+0x3a0>)
 8000e40:	0018      	movs	r0, r3
 8000e42:	f7ff f961 	bl	8000108 <strlen>
 8000e46:	0003      	movs	r3, r0
 8000e48:	b29a      	uxth	r2, r3
 8000e4a:	23fa      	movs	r3, #250	; 0xfa
 8000e4c:	005b      	lsls	r3, r3, #1
 8000e4e:	492b      	ldr	r1, [pc, #172]	; (8000efc <msgHandler+0x3a0>)
 8000e50:	481b      	ldr	r0, [pc, #108]	; (8000ec0 <msgHandler+0x364>)
 8000e52:	f003 fbdb 	bl	800460c <HAL_UART_Transmit>
 8000e56:	e01a      	b.n	8000e8e <msgHandler+0x332>
	} else {
		strcat(buffer, "\n");
 8000e58:	4b16      	ldr	r3, [pc, #88]	; (8000eb4 <msgHandler+0x358>)
 8000e5a:	0018      	movs	r0, r3
 8000e5c:	f7ff f954 	bl	8000108 <strlen>
 8000e60:	0003      	movs	r3, r0
 8000e62:	001a      	movs	r2, r3
 8000e64:	4b13      	ldr	r3, [pc, #76]	; (8000eb4 <msgHandler+0x358>)
 8000e66:	18d2      	adds	r2, r2, r3
 8000e68:	4b25      	ldr	r3, [pc, #148]	; (8000f00 <msgHandler+0x3a4>)
 8000e6a:	0010      	movs	r0, r2
 8000e6c:	0019      	movs	r1, r3
 8000e6e:	2302      	movs	r3, #2
 8000e70:	001a      	movs	r2, r3
 8000e72:	f004 fdb1 	bl	80059d8 <memcpy>
		HAL_UART_Transmit(&huart1, (uint8_t*)buffer, strlen(buffer), 500);
 8000e76:	4b0f      	ldr	r3, [pc, #60]	; (8000eb4 <msgHandler+0x358>)
 8000e78:	0018      	movs	r0, r3
 8000e7a:	f7ff f945 	bl	8000108 <strlen>
 8000e7e:	0003      	movs	r3, r0
 8000e80:	b29a      	uxth	r2, r3
 8000e82:	23fa      	movs	r3, #250	; 0xfa
 8000e84:	005b      	lsls	r3, r3, #1
 8000e86:	490b      	ldr	r1, [pc, #44]	; (8000eb4 <msgHandler+0x358>)
 8000e88:	480d      	ldr	r0, [pc, #52]	; (8000ec0 <msgHandler+0x364>)
 8000e8a:	f003 fbbf 	bl	800460c <HAL_UART_Transmit>
	}

	memset(buffer, 0, sizeof(buffer));
 8000e8e:	4b09      	ldr	r3, [pc, #36]	; (8000eb4 <msgHandler+0x358>)
 8000e90:	2232      	movs	r2, #50	; 0x32
 8000e92:	2100      	movs	r1, #0
 8000e94:	0018      	movs	r0, r3
 8000e96:	f004 fda8 	bl	80059ea <memset>
	buffer_index = 0;
 8000e9a:	4b20      	ldr	r3, [pc, #128]	; (8000f1c <msgHandler+0x3c0>)
 8000e9c:	2200      	movs	r2, #0
 8000e9e:	701a      	strb	r2, [r3, #0]
	timer_count = 0;
 8000ea0:	4b1f      	ldr	r3, [pc, #124]	; (8000f20 <msgHandler+0x3c4>)
 8000ea2:	2200      	movs	r2, #0
 8000ea4:	701a      	strb	r2, [r3, #0]
}
 8000ea6:	46c0      	nop			; (mov r8, r8)
 8000ea8:	46bd      	mov	sp, r7
 8000eaa:	b004      	add	sp, #16
 8000eac:	bdb0      	pop	{r4, r5, r7, pc}
 8000eae:	46c0      	nop			; (mov r8, r8)
 8000eb0:	080063e4 	.word	0x080063e4
 8000eb4:	2000014c 	.word	0x2000014c
 8000eb8:	20000018 	.word	0x20000018
 8000ebc:	080063f4 	.word	0x080063f4
 8000ec0:	20000280 	.word	0x20000280
 8000ec4:	0800640c 	.word	0x0800640c
 8000ec8:	0800641c 	.word	0x0800641c
 8000ecc:	08006438 	.word	0x08006438
 8000ed0:	08006444 	.word	0x08006444
 8000ed4:	0800645c 	.word	0x0800645c
 8000ed8:	0000ffff 	.word	0x0000ffff
 8000edc:	08006468 	.word	0x08006468
 8000ee0:	08006480 	.word	0x08006480
 8000ee4:	20000000 	.word	0x20000000
 8000ee8:	08006498 	.word	0x08006498
 8000eec:	080064b0 	.word	0x080064b0
 8000ef0:	080064d0 	.word	0x080064d0
 8000ef4:	080064f0 	.word	0x080064f0
 8000ef8:	08006508 	.word	0x08006508
 8000efc:	20000118 	.word	0x20000118
 8000f00:	0800651c 	.word	0x0800651c
 8000f04:	08006520 	.word	0x08006520
 8000f08:	08006538 	.word	0x08006538
 8000f0c:	0800654c 	.word	0x0800654c
 8000f10:	0800656c 	.word	0x0800656c
 8000f14:	08006584 	.word	0x08006584
 8000f18:	080065a4 	.word	0x080065a4
 8000f1c:	200000ac 	.word	0x200000ac
 8000f20:	200000ad 	.word	0x200000ad

08000f24 <MX_GPIO_Init>:
/* USER CODE END 1 */

/** Configure pins
*/
void MX_GPIO_Init(void)
{
 8000f24:	b590      	push	{r4, r7, lr}
 8000f26:	b089      	sub	sp, #36	; 0x24
 8000f28:	af00      	add	r7, sp, #0

  GPIO_InitTypeDef GPIO_InitStruct = {0};
 8000f2a:	240c      	movs	r4, #12
 8000f2c:	193b      	adds	r3, r7, r4
 8000f2e:	0018      	movs	r0, r3
 8000f30:	2314      	movs	r3, #20
 8000f32:	001a      	movs	r2, r3
 8000f34:	2100      	movs	r1, #0
 8000f36:	f004 fd58 	bl	80059ea <memset>

  /* GPIO Ports Clock Enable */
  __HAL_RCC_GPIOA_CLK_ENABLE();
 8000f3a:	4b1b      	ldr	r3, [pc, #108]	; (8000fa8 <MX_GPIO_Init+0x84>)
 8000f3c:	6ada      	ldr	r2, [r3, #44]	; 0x2c
 8000f3e:	4b1a      	ldr	r3, [pc, #104]	; (8000fa8 <MX_GPIO_Init+0x84>)
 8000f40:	2101      	movs	r1, #1
 8000f42:	430a      	orrs	r2, r1
 8000f44:	62da      	str	r2, [r3, #44]	; 0x2c
 8000f46:	4b18      	ldr	r3, [pc, #96]	; (8000fa8 <MX_GPIO_Init+0x84>)
 8000f48:	6adb      	ldr	r3, [r3, #44]	; 0x2c
 8000f4a:	2201      	movs	r2, #1
 8000f4c:	4013      	ands	r3, r2
 8000f4e:	60bb      	str	r3, [r7, #8]
 8000f50:	68bb      	ldr	r3, [r7, #8]
  __HAL_RCC_GPIOC_CLK_ENABLE();
 8000f52:	4b15      	ldr	r3, [pc, #84]	; (8000fa8 <MX_GPIO_Init+0x84>)
 8000f54:	6ada      	ldr	r2, [r3, #44]	; 0x2c
 8000f56:	4b14      	ldr	r3, [pc, #80]	; (8000fa8 <MX_GPIO_Init+0x84>)
 8000f58:	2104      	movs	r1, #4
 8000f5a:	430a      	orrs	r2, r1
 8000f5c:	62da      	str	r2, [r3, #44]	; 0x2c
 8000f5e:	4b12      	ldr	r3, [pc, #72]	; (8000fa8 <MX_GPIO_Init+0x84>)
 8000f60:	6adb      	ldr	r3, [r3, #44]	; 0x2c
 8000f62:	2204      	movs	r2, #4
 8000f64:	4013      	ands	r3, r2
 8000f66:	607b      	str	r3, [r7, #4]
 8000f68:	687b      	ldr	r3, [r7, #4]

  /*Configure GPIO pin Output Level */
  HAL_GPIO_WritePin(LD2_GPIO_Port, LD2_Pin, GPIO_PIN_RESET);
 8000f6a:	23a0      	movs	r3, #160	; 0xa0
 8000f6c:	05db      	lsls	r3, r3, #23
 8000f6e:	2200      	movs	r2, #0
 8000f70:	2120      	movs	r1, #32
 8000f72:	0018      	movs	r0, r3
 8000f74:	f001 fcc2 	bl	80028fc <HAL_GPIO_WritePin>

  /*Configure GPIO pin : PtPin */
  GPIO_InitStruct.Pin = LD2_Pin;
 8000f78:	0021      	movs	r1, r4
 8000f7a:	187b      	adds	r3, r7, r1
 8000f7c:	2220      	movs	r2, #32
 8000f7e:	601a      	str	r2, [r3, #0]
  GPIO_InitStruct.Mode = GPIO_MODE_OUTPUT_PP;
 8000f80:	187b      	adds	r3, r7, r1
 8000f82:	2201      	movs	r2, #1
 8000f84:	605a      	str	r2, [r3, #4]
  GPIO_InitStruct.Pull = GPIO_NOPULL;
 8000f86:	187b      	adds	r3, r7, r1
 8000f88:	2200      	movs	r2, #0
 8000f8a:	609a      	str	r2, [r3, #8]
  GPIO_InitStruct.Speed = GPIO_SPEED_FREQ_LOW;
 8000f8c:	187b      	adds	r3, r7, r1
 8000f8e:	2200      	movs	r2, #0
 8000f90:	60da      	str	r2, [r3, #12]
  HAL_GPIO_Init(LD2_GPIO_Port, &GPIO_InitStruct);
 8000f92:	187a      	adds	r2, r7, r1
 8000f94:	23a0      	movs	r3, #160	; 0xa0
 8000f96:	05db      	lsls	r3, r3, #23
 8000f98:	0011      	movs	r1, r2
 8000f9a:	0018      	movs	r0, r3
 8000f9c:	f001 fb30 	bl	8002600 <HAL_GPIO_Init>

}
 8000fa0:	46c0      	nop			; (mov r8, r8)
 8000fa2:	46bd      	mov	sp, r7
 8000fa4:	b009      	add	sp, #36	; 0x24
 8000fa6:	bd90      	pop	{r4, r7, pc}
 8000fa8:	40021000 	.word	0x40021000

08000fac <main>:
/**
  * @brief  The application entry point.
  * @retval int
  */
int main(void)
{
 8000fac:	b580      	push	{r7, lr}
 8000fae:	af00      	add	r7, sp, #0
  /* USER CODE END 1 */

  /* MCU Configuration--------------------------------------------------------*/

  /* Reset of all peripherals, Initializes the Flash interface and the Systick. */
  HAL_Init();
 8000fb0:	f000 fcec 	bl	800198c <HAL_Init>
  /* USER CODE BEGIN Init */

  /* USER CODE END Init */

  /* Configure the system clock */
  SystemClock_Config();
 8000fb4:	f000 f84c 	bl	8001050 <SystemClock_Config>
  /* USER CODE BEGIN SysInit */

  /* USER CODE END SysInit */

  /* Initialize all configured peripherals */
  MX_GPIO_Init();
 8000fb8:	f7ff ffb4 	bl	8000f24 <MX_GPIO_Init>
  MX_ADC_Init();
 8000fbc:	f7ff fd1a 	bl	80009f4 <MX_ADC_Init>
  MX_TIM3_Init();
 8000fc0:	f000 fa3c 	bl	800143c <MX_TIM3_Init>
  MX_TIM6_Init();
 8000fc4:	f000 fac4 	bl	8001550 <MX_TIM6_Init>
  MX_TIM7_Init();
 8000fc8:	f000 fb00 	bl	80015cc <MX_TIM7_Init>
  MX_USART2_UART_Init();
 8000fcc:	f000 fbfe 	bl	80017cc <MX_USART2_UART_Init>
  MX_USART1_UART_Init();
 8000fd0:	f000 fbcc 	bl	800176c <MX_USART1_UART_Init>
  MX_TIM2_Init();
 8000fd4:	f000 f9dc 	bl	8001390 <MX_TIM2_Init>
  /* USER CODE BEGIN 2 */
  HAL_Delay(1200);
 8000fd8:	2396      	movs	r3, #150	; 0x96
 8000fda:	00db      	lsls	r3, r3, #3
 8000fdc:	0018      	movs	r0, r3
 8000fde:	f000 fd45 	bl	8001a6c <HAL_Delay>
  memset(buffer, 0, sizeof(buffer));
 8000fe2:	4b14      	ldr	r3, [pc, #80]	; (8001034 <main+0x88>)
 8000fe4:	2232      	movs	r2, #50	; 0x32
 8000fe6:	2100      	movs	r1, #0
 8000fe8:	0018      	movs	r0, r3
 8000fea:	f004 fcfe 	bl	80059ea <memset>
  HAL_TIM_PWM_Start(&htim3, TIM_CHANNEL_1);
 8000fee:	4b12      	ldr	r3, [pc, #72]	; (8001038 <main+0x8c>)
 8000ff0:	2100      	movs	r1, #0
 8000ff2:	0018      	movs	r0, r3
 8000ff4:	f002 fce6 	bl	80039c4 <HAL_TIM_PWM_Start>
  HAL_TIM_Base_Start_IT(&htim2);
 8000ff8:	4b10      	ldr	r3, [pc, #64]	; (800103c <main+0x90>)
 8000ffa:	0018      	movs	r0, r3
 8000ffc:	f002 fc48 	bl	8003890 <HAL_TIM_Base_Start_IT>
  HAL_TIM_Base_Start_IT(&htim6);
 8001000:	4b0f      	ldr	r3, [pc, #60]	; (8001040 <main+0x94>)
 8001002:	0018      	movs	r0, r3
 8001004:	f002 fc44 	bl	8003890 <HAL_TIM_Base_Start_IT>
  HAL_TIM_Base_Start_IT(&htim7);
 8001008:	4b0e      	ldr	r3, [pc, #56]	; (8001044 <main+0x98>)
 800100a:	0018      	movs	r0, r3
 800100c:	f002 fc40 	bl	8003890 <HAL_TIM_Base_Start_IT>
  __HAL_UART_ENABLE_IT(&huart1, UART_IT_RXNE);
 8001010:	4b0d      	ldr	r3, [pc, #52]	; (8001048 <main+0x9c>)
 8001012:	681b      	ldr	r3, [r3, #0]
 8001014:	681a      	ldr	r2, [r3, #0]
 8001016:	4b0c      	ldr	r3, [pc, #48]	; (8001048 <main+0x9c>)
 8001018:	681b      	ldr	r3, [r3, #0]
 800101a:	2120      	movs	r1, #32
 800101c:	430a      	orrs	r2, r1
 800101e:	601a      	str	r2, [r3, #0]
  __HAL_UART_ENABLE_IT(&huart2, UART_IT_RXNE);
 8001020:	4b0a      	ldr	r3, [pc, #40]	; (800104c <main+0xa0>)
 8001022:	681b      	ldr	r3, [r3, #0]
 8001024:	681a      	ldr	r2, [r3, #0]
 8001026:	4b09      	ldr	r3, [pc, #36]	; (800104c <main+0xa0>)
 8001028:	681b      	ldr	r3, [r3, #0]
 800102a:	2120      	movs	r1, #32
 800102c:	430a      	orrs	r2, r1
 800102e:	601a      	str	r2, [r3, #0]
  /* USER CODE END 2 */

  /* Infinite loop */
  /* USER CODE BEGIN WHILE */
  while (1)
 8001030:	e7fe      	b.n	8001030 <main+0x84>
 8001032:	46c0      	nop			; (mov r8, r8)
 8001034:	2000014c 	.word	0x2000014c
 8001038:	20000180 	.word	0x20000180
 800103c:	20000200 	.word	0x20000200
 8001040:	200001c0 	.word	0x200001c0
 8001044:	20000240 	.word	0x20000240
 8001048:	20000280 	.word	0x20000280
 800104c:	20000304 	.word	0x20000304

08001050 <SystemClock_Config>:
/**
  * @brief System Clock Configuration
  * @retval None
  */
void SystemClock_Config(void)
{
 8001050:	b590      	push	{r4, r7, lr}
 8001052:	b09f      	sub	sp, #124	; 0x7c
 8001054:	af00      	add	r7, sp, #0
  RCC_OscInitTypeDef RCC_OscInitStruct = {0};
 8001056:	2440      	movs	r4, #64	; 0x40
 8001058:	193b      	adds	r3, r7, r4
 800105a:	0018      	movs	r0, r3
 800105c:	2338      	movs	r3, #56	; 0x38
 800105e:	001a      	movs	r2, r3
 8001060:	2100      	movs	r1, #0
 8001062:	f004 fcc2 	bl	80059ea <memset>
  RCC_ClkInitTypeDef RCC_ClkInitStruct = {0};
 8001066:	232c      	movs	r3, #44	; 0x2c
 8001068:	18fb      	adds	r3, r7, r3
 800106a:	0018      	movs	r0, r3
 800106c:	2314      	movs	r3, #20
 800106e:	001a      	movs	r2, r3
 8001070:	2100      	movs	r1, #0
 8001072:	f004 fcba 	bl	80059ea <memset>
  RCC_PeriphCLKInitTypeDef PeriphClkInit = {0};
 8001076:	1d3b      	adds	r3, r7, #4
 8001078:	0018      	movs	r0, r3
 800107a:	2328      	movs	r3, #40	; 0x28
 800107c:	001a      	movs	r2, r3
 800107e:	2100      	movs	r1, #0
 8001080:	f004 fcb3 	bl	80059ea <memset>

  /** Configure the main internal regulator output voltage
  */
  __HAL_PWR_VOLTAGESCALING_CONFIG(PWR_REGULATOR_VOLTAGE_SCALE1);
 8001084:	4b25      	ldr	r3, [pc, #148]	; (800111c <SystemClock_Config+0xcc>)
 8001086:	681b      	ldr	r3, [r3, #0]
 8001088:	4a25      	ldr	r2, [pc, #148]	; (8001120 <SystemClock_Config+0xd0>)
 800108a:	401a      	ands	r2, r3
 800108c:	4b23      	ldr	r3, [pc, #140]	; (800111c <SystemClock_Config+0xcc>)
 800108e:	2180      	movs	r1, #128	; 0x80
 8001090:	0109      	lsls	r1, r1, #4
 8001092:	430a      	orrs	r2, r1
 8001094:	601a      	str	r2, [r3, #0]
  /** Initializes the RCC Oscillators according to the specified parameters
  * in the RCC_OscInitTypeDef structure.
  */
  RCC_OscInitStruct.OscillatorType = RCC_OSCILLATORTYPE_HSI;
 8001096:	0021      	movs	r1, r4
 8001098:	187b      	adds	r3, r7, r1
 800109a:	2202      	movs	r2, #2
 800109c:	601a      	str	r2, [r3, #0]
  RCC_OscInitStruct.HSIState = RCC_HSI_ON;
 800109e:	187b      	adds	r3, r7, r1
 80010a0:	2201      	movs	r2, #1
 80010a2:	60da      	str	r2, [r3, #12]
  RCC_OscInitStruct.HSICalibrationValue = RCC_HSICALIBRATION_DEFAULT;
 80010a4:	187b      	adds	r3, r7, r1
 80010a6:	2210      	movs	r2, #16
 80010a8:	611a      	str	r2, [r3, #16]
  RCC_OscInitStruct.PLL.PLLState = RCC_PLL_NONE;
 80010aa:	187b      	adds	r3, r7, r1
 80010ac:	2200      	movs	r2, #0
 80010ae:	629a      	str	r2, [r3, #40]	; 0x28
  if (HAL_RCC_OscConfig(&RCC_OscInitStruct) != HAL_OK)
 80010b0:	187b      	adds	r3, r7, r1
 80010b2:	0018      	movs	r0, r3
 80010b4:	f001 fc40 	bl	8002938 <HAL_RCC_OscConfig>
 80010b8:	1e03      	subs	r3, r0, #0
 80010ba:	d001      	beq.n	80010c0 <SystemClock_Config+0x70>
  {
    Error_Handler();
 80010bc:	f000 f87a 	bl	80011b4 <Error_Handler>
  }
  /** Initializes the CPU, AHB and APB buses clocks
  */
  RCC_ClkInitStruct.ClockType = RCC_CLOCKTYPE_HCLK|RCC_CLOCKTYPE_SYSCLK
 80010c0:	212c      	movs	r1, #44	; 0x2c
 80010c2:	187b      	adds	r3, r7, r1
 80010c4:	220f      	movs	r2, #15
 80010c6:	601a      	str	r2, [r3, #0]
                              |RCC_CLOCKTYPE_PCLK1|RCC_CLOCKTYPE_PCLK2;
  RCC_ClkInitStruct.SYSCLKSource = RCC_SYSCLKSOURCE_HSI;
 80010c8:	187b      	adds	r3, r7, r1
 80010ca:	2201      	movs	r2, #1
 80010cc:	605a      	str	r2, [r3, #4]
  RCC_ClkInitStruct.AHBCLKDivider = RCC_SYSCLK_DIV1;
 80010ce:	187b      	adds	r3, r7, r1
 80010d0:	2200      	movs	r2, #0
 80010d2:	609a      	str	r2, [r3, #8]
  RCC_ClkInitStruct.APB1CLKDivider = RCC_HCLK_DIV1;
 80010d4:	187b      	adds	r3, r7, r1
 80010d6:	2200      	movs	r2, #0
 80010d8:	60da      	str	r2, [r3, #12]
  RCC_ClkInitStruct.APB2CLKDivider = RCC_HCLK_DIV1;
 80010da:	187b      	adds	r3, r7, r1
 80010dc:	2200      	movs	r2, #0
 80010de:	611a      	str	r2, [r3, #16]

  if (HAL_RCC_ClockConfig(&RCC_ClkInitStruct, FLASH_LATENCY_0) != HAL_OK)
 80010e0:	187b      	adds	r3, r7, r1
 80010e2:	2100      	movs	r1, #0
 80010e4:	0018      	movs	r0, r3
 80010e6:	f001 fffb 	bl	80030e0 <HAL_RCC_ClockConfig>
 80010ea:	1e03      	subs	r3, r0, #0
 80010ec:	d001      	beq.n	80010f2 <SystemClock_Config+0xa2>
  {
    Error_Handler();
 80010ee:	f000 f861 	bl	80011b4 <Error_Handler>
  }
  PeriphClkInit.PeriphClockSelection = RCC_PERIPHCLK_USART1|RCC_PERIPHCLK_USART2;
 80010f2:	1d3b      	adds	r3, r7, #4
 80010f4:	2203      	movs	r2, #3
 80010f6:	601a      	str	r2, [r3, #0]
  PeriphClkInit.Usart1ClockSelection = RCC_USART1CLKSOURCE_PCLK2;
 80010f8:	1d3b      	adds	r3, r7, #4
 80010fa:	2200      	movs	r2, #0
 80010fc:	60da      	str	r2, [r3, #12]
  PeriphClkInit.Usart2ClockSelection = RCC_USART2CLKSOURCE_PCLK1;
 80010fe:	1d3b      	adds	r3, r7, #4
 8001100:	2200      	movs	r2, #0
 8001102:	611a      	str	r2, [r3, #16]
  if (HAL_RCCEx_PeriphCLKConfig(&PeriphClkInit) != HAL_OK)
 8001104:	1d3b      	adds	r3, r7, #4
 8001106:	0018      	movs	r0, r3
 8001108:	f002 fa0e 	bl	8003528 <HAL_RCCEx_PeriphCLKConfig>
 800110c:	1e03      	subs	r3, r0, #0
 800110e:	d001      	beq.n	8001114 <SystemClock_Config+0xc4>
  {
    Error_Handler();
 8001110:	f000 f850 	bl	80011b4 <Error_Handler>
  }
}
 8001114:	46c0      	nop			; (mov r8, r8)
 8001116:	46bd      	mov	sp, r7
 8001118:	b01f      	add	sp, #124	; 0x7c
 800111a:	bd90      	pop	{r4, r7, pc}
 800111c:	40007000 	.word	0x40007000
 8001120:	ffffe7ff 	.word	0xffffe7ff

08001124 <HAL_TIM_PeriodElapsedCallback>:

/* USER CODE BEGIN 4 */
void HAL_TIM_PeriodElapsedCallback(TIM_HandleTypeDef *htim) {
 8001124:	b580      	push	{r7, lr}
 8001126:	b082      	sub	sp, #8
 8001128:	af00      	add	r7, sp, #0
 800112a:	6078      	str	r0, [r7, #4]
	if (htim->Instance == TIM2)
 800112c:	687b      	ldr	r3, [r7, #4]
 800112e:	681a      	ldr	r2, [r3, #0]
 8001130:	2380      	movs	r3, #128	; 0x80
 8001132:	05db      	lsls	r3, r3, #23
 8001134:	429a      	cmp	r2, r3
 8001136:	d104      	bne.n	8001142 <HAL_TIM_PeriodElapsedCallback+0x1e>
		steer(&servo);
 8001138:	4b0c      	ldr	r3, [pc, #48]	; (800116c <HAL_TIM_PeriodElapsedCallback+0x48>)
 800113a:	0018      	movs	r0, r3
 800113c:	f7ff fadb 	bl	80006f6 <steer>
	else if (htim->Instance == TIM6) {
		if (areNewMeassures(&ldr))
			setBlindWithLDR();
		measure(&ldr);
	}
}
 8001140:	e010      	b.n	8001164 <HAL_TIM_PeriodElapsedCallback+0x40>
	else if (htim->Instance == TIM6) {
 8001142:	687b      	ldr	r3, [r7, #4]
 8001144:	681b      	ldr	r3, [r3, #0]
 8001146:	4a0a      	ldr	r2, [pc, #40]	; (8001170 <HAL_TIM_PeriodElapsedCallback+0x4c>)
 8001148:	4293      	cmp	r3, r2
 800114a:	d10b      	bne.n	8001164 <HAL_TIM_PeriodElapsedCallback+0x40>
		if (areNewMeassures(&ldr))
 800114c:	4b09      	ldr	r3, [pc, #36]	; (8001174 <HAL_TIM_PeriodElapsedCallback+0x50>)
 800114e:	0018      	movs	r0, r3
 8001150:	f7ff fa10 	bl	8000574 <areNewMeassures>
 8001154:	1e03      	subs	r3, r0, #0
 8001156:	d001      	beq.n	800115c <HAL_TIM_PeriodElapsedCallback+0x38>
			setBlindWithLDR();
 8001158:	f000 f80e 	bl	8001178 <setBlindWithLDR>
		measure(&ldr);
 800115c:	4b05      	ldr	r3, [pc, #20]	; (8001174 <HAL_TIM_PeriodElapsedCallback+0x50>)
 800115e:	0018      	movs	r0, r3
 8001160:	f7ff f9d6 	bl	8000510 <measure>
}
 8001164:	46c0      	nop			; (mov r8, r8)
 8001166:	46bd      	mov	sp, r7
 8001168:	b002      	add	sp, #8
 800116a:	bd80      	pop	{r7, pc}
 800116c:	20000018 	.word	0x20000018
 8001170:	40001000 	.word	0x40001000
 8001174:	20000000 	.word	0x20000000

08001178 <setBlindWithLDR>:

void setBlindWithLDR() {
 8001178:	b580      	push	{r7, lr}
 800117a:	af00      	add	r7, sp, #0
	if (isAboveUpperLimit(&ldr))
 800117c:	4b0b      	ldr	r3, [pc, #44]	; (80011ac <setBlindWithLDR+0x34>)
 800117e:	0018      	movs	r0, r3
 8001180:	f7ff fa2d 	bl	80005de <isAboveUpperLimit>
 8001184:	1e03      	subs	r3, r0, #0
 8001186:	d004      	beq.n	8001192 <setBlindWithLDR+0x1a>
		setPositionToMax(&servo);
 8001188:	4b09      	ldr	r3, [pc, #36]	; (80011b0 <setBlindWithLDR+0x38>)
 800118a:	0018      	movs	r0, r3
 800118c:	f7ff fb3f 	bl	800080e <setPositionToMax>
	else if (isBelowLowerLimit(&ldr))
		setPositionToMin(&servo);
}
 8001190:	e009      	b.n	80011a6 <setBlindWithLDR+0x2e>
	else if (isBelowLowerLimit(&ldr))
 8001192:	4b06      	ldr	r3, [pc, #24]	; (80011ac <setBlindWithLDR+0x34>)
 8001194:	0018      	movs	r0, r3
 8001196:	f7ff fa36 	bl	8000606 <isBelowLowerLimit>
 800119a:	1e03      	subs	r3, r0, #0
 800119c:	d003      	beq.n	80011a6 <setBlindWithLDR+0x2e>
		setPositionToMin(&servo);
 800119e:	4b04      	ldr	r3, [pc, #16]	; (80011b0 <setBlindWithLDR+0x38>)
 80011a0:	0018      	movs	r0, r3
 80011a2:	f7ff fb40 	bl	8000826 <setPositionToMin>
}
 80011a6:	46c0      	nop			; (mov r8, r8)
 80011a8:	46bd      	mov	sp, r7
 80011aa:	bd80      	pop	{r7, pc}
 80011ac:	20000000 	.word	0x20000000
 80011b0:	20000018 	.word	0x20000018

080011b4 <Error_Handler>:
/**
  * @brief  This function is executed in case of error occurrence.
  * @retval None
  */
void Error_Handler(void)
{
 80011b4:	b580      	push	{r7, lr}
 80011b6:	af00      	add	r7, sp, #0
  \details Disables IRQ interrupts by setting the I-bit in the CPSR.
           Can only be executed in Privileged modes.
 */
__STATIC_FORCEINLINE void __disable_irq(void)
{
  __ASM volatile ("cpsid i" : : : "memory");
 80011b8:	b672      	cpsid	i
}
 80011ba:	46c0      	nop			; (mov r8, r8)
  /* USER CODE BEGIN Error_Handler_Debug */
  /* User can add his own implementation to report the HAL error return state */
  __disable_irq();
  while (1)
 80011bc:	e7fe      	b.n	80011bc <Error_Handler+0x8>

080011be <getLastWordAsInt>:
char *getLastN(char *str, size_t n) {
    size_t len = strlen(str);
    return (char *)str + len - n;
}

uint16_t getLastWordAsInt(char *str) {
 80011be:	b580      	push	{r7, lr}
 80011c0:	b084      	sub	sp, #16
 80011c2:	af00      	add	r7, sp, #0
 80011c4:	6078      	str	r0, [r7, #4]
    char *word = strrchr(str, ' ') + 1;
 80011c6:	687b      	ldr	r3, [r7, #4]
 80011c8:	2120      	movs	r1, #32
 80011ca:	0018      	movs	r0, r3
 80011cc:	f004 fc47 	bl	8005a5e <strrchr>
 80011d0:	0003      	movs	r3, r0
 80011d2:	3301      	adds	r3, #1
 80011d4:	60fb      	str	r3, [r7, #12]
    return (uint16_t)atoi(word);
 80011d6:	68fb      	ldr	r3, [r7, #12]
 80011d8:	0018      	movs	r0, r3
 80011da:	f004 fbcd 	bl	8005978 <atoi>
 80011de:	0003      	movs	r3, r0
 80011e0:	b29b      	uxth	r3, r3
}
 80011e2:	0018      	movs	r0, r3
 80011e4:	46bd      	mov	sp, r7
 80011e6:	b004      	add	sp, #16
 80011e8:	bd80      	pop	{r7, pc}
	...

080011ec <HAL_MspInit>:
/* USER CODE END 0 */
/**
  * Initializes the Global MSP.
  */
void HAL_MspInit(void)
{
 80011ec:	b580      	push	{r7, lr}
 80011ee:	af00      	add	r7, sp, #0
  /* USER CODE BEGIN MspInit 0 */

  /* USER CODE END MspInit 0 */

  __HAL_RCC_SYSCFG_CLK_ENABLE();
 80011f0:	4b07      	ldr	r3, [pc, #28]	; (8001210 <HAL_MspInit+0x24>)
 80011f2:	6b5a      	ldr	r2, [r3, #52]	; 0x34
 80011f4:	4b06      	ldr	r3, [pc, #24]	; (8001210 <HAL_MspInit+0x24>)
 80011f6:	2101      	movs	r1, #1
 80011f8:	430a      	orrs	r2, r1
 80011fa:	635a      	str	r2, [r3, #52]	; 0x34
  __HAL_RCC_PWR_CLK_ENABLE();
 80011fc:	4b04      	ldr	r3, [pc, #16]	; (8001210 <HAL_MspInit+0x24>)
 80011fe:	6b9a      	ldr	r2, [r3, #56]	; 0x38
 8001200:	4b03      	ldr	r3, [pc, #12]	; (8001210 <HAL_MspInit+0x24>)
 8001202:	2180      	movs	r1, #128	; 0x80
 8001204:	0549      	lsls	r1, r1, #21
 8001206:	430a      	orrs	r2, r1
 8001208:	639a      	str	r2, [r3, #56]	; 0x38
  /* System interrupt init*/

  /* USER CODE BEGIN MspInit 1 */

  /* USER CODE END MspInit 1 */
}
 800120a:	46c0      	nop			; (mov r8, r8)
 800120c:	46bd      	mov	sp, r7
 800120e:	bd80      	pop	{r7, pc}
 8001210:	40021000 	.word	0x40021000

08001214 <NMI_Handler>:
/******************************************************************************/
/**
  * @brief This function handles Non maskable Interrupt.
  */
void NMI_Handler(void)
{
 8001214:	b580      	push	{r7, lr}
 8001216:	af00      	add	r7, sp, #0
  /* USER CODE BEGIN NonMaskableInt_IRQn 0 */

  /* USER CODE END NonMaskableInt_IRQn 0 */
  /* USER CODE BEGIN NonMaskableInt_IRQn 1 */
  while (1)
 8001218:	e7fe      	b.n	8001218 <NMI_Handler+0x4>

0800121a <HardFault_Handler>:

/**
  * @brief This function handles Hard fault interrupt.
  */
void HardFault_Handler(void)
{
 800121a:	b580      	push	{r7, lr}
 800121c:	af00      	add	r7, sp, #0
  /* USER CODE BEGIN HardFault_IRQn 0 */

  /* USER CODE END HardFault_IRQn 0 */
  while (1)
 800121e:	e7fe      	b.n	800121e <HardFault_Handler+0x4>

08001220 <SVC_Handler>:

/**
  * @brief This function handles System service call via SWI instruction.
  */
void SVC_Handler(void)
{
 8001220:	b580      	push	{r7, lr}
 8001222:	af00      	add	r7, sp, #0

  /* USER CODE END SVC_IRQn 0 */
  /* USER CODE BEGIN SVC_IRQn 1 */

  /* USER CODE END SVC_IRQn 1 */
}
 8001224:	46c0      	nop			; (mov r8, r8)
 8001226:	46bd      	mov	sp, r7
 8001228:	bd80      	pop	{r7, pc}

0800122a <PendSV_Handler>:

/**
  * @brief This function handles Pendable request for system service.
  */
void PendSV_Handler(void)
{
 800122a:	b580      	push	{r7, lr}
 800122c:	af00      	add	r7, sp, #0

  /* USER CODE END PendSV_IRQn 0 */
  /* USER CODE BEGIN PendSV_IRQn 1 */

  /* USER CODE END PendSV_IRQn 1 */
}
 800122e:	46c0      	nop			; (mov r8, r8)
 8001230:	46bd      	mov	sp, r7
 8001232:	bd80      	pop	{r7, pc}

08001234 <SysTick_Handler>:

/**
  * @brief This function handles System tick timer.
  */
void SysTick_Handler(void)
{
 8001234:	b580      	push	{r7, lr}
 8001236:	af00      	add	r7, sp, #0
  /* USER CODE BEGIN SysTick_IRQn 0 */

  /* USER CODE END SysTick_IRQn 0 */
  HAL_IncTick();
 8001238:	f000 fbfc 	bl	8001a34 <HAL_IncTick>
  /* USER CODE BEGIN SysTick_IRQn 1 */

  /* USER CODE END SysTick_IRQn 1 */
}
 800123c:	46c0      	nop			; (mov r8, r8)
 800123e:	46bd      	mov	sp, r7
 8001240:	bd80      	pop	{r7, pc}
	...

08001244 <TIM2_IRQHandler>:

/**
  * @brief This function handles TIM2 global interrupt.
  */
void TIM2_IRQHandler(void)
{
 8001244:	b580      	push	{r7, lr}
 8001246:	af00      	add	r7, sp, #0
  /* USER CODE BEGIN TIM2_IRQn 0 */

  /* USER CODE END TIM2_IRQn 0 */
  HAL_TIM_IRQHandler(&htim2);
 8001248:	4b03      	ldr	r3, [pc, #12]	; (8001258 <TIM2_IRQHandler+0x14>)
 800124a:	0018      	movs	r0, r3
 800124c:	f002 fc4c 	bl	8003ae8 <HAL_TIM_IRQHandler>
  /* USER CODE BEGIN TIM2_IRQn 1 */

  /* USER CODE END TIM2_IRQn 1 */
}
 8001250:	46c0      	nop			; (mov r8, r8)
 8001252:	46bd      	mov	sp, r7
 8001254:	bd80      	pop	{r7, pc}
 8001256:	46c0      	nop			; (mov r8, r8)
 8001258:	20000200 	.word	0x20000200

0800125c <TIM6_DAC_IRQHandler>:

/**
  * @brief This function handles TIM6 global interrupt and DAC1/DAC2 underrun error interrupts.
  */
void TIM6_DAC_IRQHandler(void)
{
 800125c:	b580      	push	{r7, lr}
 800125e:	af00      	add	r7, sp, #0
  /* USER CODE BEGIN TIM6_DAC_IRQn 0 */

  /* USER CODE END TIM6_DAC_IRQn 0 */
  HAL_TIM_IRQHandler(&htim6);
 8001260:	4b03      	ldr	r3, [pc, #12]	; (8001270 <TIM6_DAC_IRQHandler+0x14>)
 8001262:	0018      	movs	r0, r3
 8001264:	f002 fc40 	bl	8003ae8 <HAL_TIM_IRQHandler>
  /* USER CODE BEGIN TIM6_DAC_IRQn 1 */

  /* USER CODE END TIM6_DAC_IRQn 1 */
}
 8001268:	46c0      	nop			; (mov r8, r8)
 800126a:	46bd      	mov	sp, r7
 800126c:	bd80      	pop	{r7, pc}
 800126e:	46c0      	nop			; (mov r8, r8)
 8001270:	200001c0 	.word	0x200001c0

08001274 <TIM7_IRQHandler>:

/**
  * @brief This function handles TIM7 global interrupt.
  */
void TIM7_IRQHandler(void)
{
 8001274:	b580      	push	{r7, lr}
 8001276:	af00      	add	r7, sp, #0
  /* USER CODE BEGIN TIM7_IRQn 0 */
	if (strlen(buffer) > 0) timer_count++;
 8001278:	4b0b      	ldr	r3, [pc, #44]	; (80012a8 <TIM7_IRQHandler+0x34>)
 800127a:	781b      	ldrb	r3, [r3, #0]
 800127c:	2b00      	cmp	r3, #0
 800127e:	d005      	beq.n	800128c <TIM7_IRQHandler+0x18>
 8001280:	4b0a      	ldr	r3, [pc, #40]	; (80012ac <TIM7_IRQHandler+0x38>)
 8001282:	781b      	ldrb	r3, [r3, #0]
 8001284:	3301      	adds	r3, #1
 8001286:	b2da      	uxtb	r2, r3
 8001288:	4b08      	ldr	r3, [pc, #32]	; (80012ac <TIM7_IRQHandler+0x38>)
 800128a:	701a      	strb	r2, [r3, #0]
	if (timer_count > 5) msgHandler();
 800128c:	4b07      	ldr	r3, [pc, #28]	; (80012ac <TIM7_IRQHandler+0x38>)
 800128e:	781b      	ldrb	r3, [r3, #0]
 8001290:	2b05      	cmp	r3, #5
 8001292:	d901      	bls.n	8001298 <TIM7_IRQHandler+0x24>
 8001294:	f7ff fc62 	bl	8000b5c <msgHandler>
  /* USER CODE END TIM7_IRQn 0 */
  HAL_TIM_IRQHandler(&htim7);
 8001298:	4b05      	ldr	r3, [pc, #20]	; (80012b0 <TIM7_IRQHandler+0x3c>)
 800129a:	0018      	movs	r0, r3
 800129c:	f002 fc24 	bl	8003ae8 <HAL_TIM_IRQHandler>
  /* USER CODE BEGIN TIM7_IRQn 1 */

  /* USER CODE END TIM7_IRQn 1 */
}
 80012a0:	46c0      	nop			; (mov r8, r8)
 80012a2:	46bd      	mov	sp, r7
 80012a4:	bd80      	pop	{r7, pc}
 80012a6:	46c0      	nop			; (mov r8, r8)
 80012a8:	2000014c 	.word	0x2000014c
 80012ac:	200000ad 	.word	0x200000ad
 80012b0:	20000240 	.word	0x20000240

080012b4 <USART1_IRQHandler>:

/**
  * @brief This function handles USART1 global interrupt / USART1 wake-up interrupt through EXTI line 25.
  */
void USART1_IRQHandler(void)
{
 80012b4:	b580      	push	{r7, lr}
 80012b6:	af00      	add	r7, sp, #0
  /* USER CODE BEGIN USART1_IRQn 0 */
	HAL_UART_Receive(&huart1, (uint8_t*)&buffer[buffer_index++], 1, 10);
 80012b8:	4b0e      	ldr	r3, [pc, #56]	; (80012f4 <USART1_IRQHandler+0x40>)
 80012ba:	781b      	ldrb	r3, [r3, #0]
 80012bc:	1c5a      	adds	r2, r3, #1
 80012be:	b2d1      	uxtb	r1, r2
 80012c0:	4a0c      	ldr	r2, [pc, #48]	; (80012f4 <USART1_IRQHandler+0x40>)
 80012c2:	7011      	strb	r1, [r2, #0]
 80012c4:	001a      	movs	r2, r3
 80012c6:	4b0c      	ldr	r3, [pc, #48]	; (80012f8 <USART1_IRQHandler+0x44>)
 80012c8:	18d1      	adds	r1, r2, r3
 80012ca:	480c      	ldr	r0, [pc, #48]	; (80012fc <USART1_IRQHandler+0x48>)
 80012cc:	230a      	movs	r3, #10
 80012ce:	2201      	movs	r2, #1
 80012d0:	f003 fa44 	bl	800475c <HAL_UART_Receive>

	if (buffer[buffer_index-1] == '\n') msgHandler();
 80012d4:	4b07      	ldr	r3, [pc, #28]	; (80012f4 <USART1_IRQHandler+0x40>)
 80012d6:	781b      	ldrb	r3, [r3, #0]
 80012d8:	3b01      	subs	r3, #1
 80012da:	4a07      	ldr	r2, [pc, #28]	; (80012f8 <USART1_IRQHandler+0x44>)
 80012dc:	5cd3      	ldrb	r3, [r2, r3]
 80012de:	2b0a      	cmp	r3, #10
 80012e0:	d101      	bne.n	80012e6 <USART1_IRQHandler+0x32>
 80012e2:	f7ff fc3b 	bl	8000b5c <msgHandler>
  /* USER CODE END USART1_IRQn 0 */
  HAL_UART_IRQHandler(&huart1);
 80012e6:	4b05      	ldr	r3, [pc, #20]	; (80012fc <USART1_IRQHandler+0x48>)
 80012e8:	0018      	movs	r0, r3
 80012ea:	f003 fb25 	bl	8004938 <HAL_UART_IRQHandler>
  /* USER CODE BEGIN USART1_IRQn 1 */

  /* USER CODE END USART1_IRQn 1 */
}
 80012ee:	46c0      	nop			; (mov r8, r8)
 80012f0:	46bd      	mov	sp, r7
 80012f2:	bd80      	pop	{r7, pc}
 80012f4:	200000ac 	.word	0x200000ac
 80012f8:	2000014c 	.word	0x2000014c
 80012fc:	20000280 	.word	0x20000280

08001300 <USART2_IRQHandler>:

/**
  * @brief This function handles USART2 global interrupt / USART2 wake-up interrupt through EXTI line 26.
  */
void USART2_IRQHandler(void)
{
 8001300:	b580      	push	{r7, lr}
 8001302:	af00      	add	r7, sp, #0
  /* USER CODE BEGIN USART2_IRQn 0 */

  /* USER CODE END USART2_IRQn 0 */
  HAL_UART_IRQHandler(&huart2);
 8001304:	4b03      	ldr	r3, [pc, #12]	; (8001314 <USART2_IRQHandler+0x14>)
 8001306:	0018      	movs	r0, r3
 8001308:	f003 fb16 	bl	8004938 <HAL_UART_IRQHandler>
  /* USER CODE BEGIN USART2_IRQn 1 */

  /* USER CODE END USART2_IRQn 1 */
}
 800130c:	46c0      	nop			; (mov r8, r8)
 800130e:	46bd      	mov	sp, r7
 8001310:	bd80      	pop	{r7, pc}
 8001312:	46c0      	nop			; (mov r8, r8)
 8001314:	20000304 	.word	0x20000304

08001318 <_sbrk>:
 *
 * @param incr Memory size
 * @return Pointer to allocated memory
 */
void *_sbrk(ptrdiff_t incr)
{
 8001318:	b580      	push	{r7, lr}
 800131a:	b086      	sub	sp, #24
 800131c:	af00      	add	r7, sp, #0
 800131e:	6078      	str	r0, [r7, #4]
  extern uint8_t _end; /* Symbol defined in the linker script */
  extern uint8_t _estack; /* Symbol defined in the linker script */
  extern uint32_t _Min_Stack_Size; /* Symbol defined in the linker script */
  const uint32_t stack_limit = (uint32_t)&_estack - (uint32_t)&_Min_Stack_Size;
 8001320:	4a14      	ldr	r2, [pc, #80]	; (8001374 <_sbrk+0x5c>)
 8001322:	4b15      	ldr	r3, [pc, #84]	; (8001378 <_sbrk+0x60>)
 8001324:	1ad3      	subs	r3, r2, r3
 8001326:	617b      	str	r3, [r7, #20]
  const uint8_t *max_heap = (uint8_t *)stack_limit;
 8001328:	697b      	ldr	r3, [r7, #20]
 800132a:	613b      	str	r3, [r7, #16]
  uint8_t *prev_heap_end;

  /* Initialize heap end at first call */
  if (NULL == __sbrk_heap_end)
 800132c:	4b13      	ldr	r3, [pc, #76]	; (800137c <_sbrk+0x64>)
 800132e:	681b      	ldr	r3, [r3, #0]
 8001330:	2b00      	cmp	r3, #0
 8001332:	d102      	bne.n	800133a <_sbrk+0x22>
  {
    __sbrk_heap_end = &_end;
 8001334:	4b11      	ldr	r3, [pc, #68]	; (800137c <_sbrk+0x64>)
 8001336:	4a12      	ldr	r2, [pc, #72]	; (8001380 <_sbrk+0x68>)
 8001338:	601a      	str	r2, [r3, #0]
  }

  /* Protect heap from growing into the reserved MSP stack */
  if (__sbrk_heap_end + incr > max_heap)
 800133a:	4b10      	ldr	r3, [pc, #64]	; (800137c <_sbrk+0x64>)
 800133c:	681a      	ldr	r2, [r3, #0]
 800133e:	687b      	ldr	r3, [r7, #4]
 8001340:	18d3      	adds	r3, r2, r3
 8001342:	693a      	ldr	r2, [r7, #16]
 8001344:	429a      	cmp	r2, r3
 8001346:	d207      	bcs.n	8001358 <_sbrk+0x40>
  {
    errno = ENOMEM;
 8001348:	f004 fb1c 	bl	8005984 <__errno>
 800134c:	0003      	movs	r3, r0
 800134e:	220c      	movs	r2, #12
 8001350:	601a      	str	r2, [r3, #0]
    return (void *)-1;
 8001352:	2301      	movs	r3, #1
 8001354:	425b      	negs	r3, r3
 8001356:	e009      	b.n	800136c <_sbrk+0x54>
  }

  prev_heap_end = __sbrk_heap_end;
 8001358:	4b08      	ldr	r3, [pc, #32]	; (800137c <_sbrk+0x64>)
 800135a:	681b      	ldr	r3, [r3, #0]
 800135c:	60fb      	str	r3, [r7, #12]
  __sbrk_heap_end += incr;
 800135e:	4b07      	ldr	r3, [pc, #28]	; (800137c <_sbrk+0x64>)
 8001360:	681a      	ldr	r2, [r3, #0]
 8001362:	687b      	ldr	r3, [r7, #4]
 8001364:	18d2      	adds	r2, r2, r3
 8001366:	4b05      	ldr	r3, [pc, #20]	; (800137c <_sbrk+0x64>)
 8001368:	601a      	str	r2, [r3, #0]

  return (void *)prev_heap_end;
 800136a:	68fb      	ldr	r3, [r7, #12]
}
 800136c:	0018      	movs	r0, r3
 800136e:	46bd      	mov	sp, r7
 8001370:	b006      	add	sp, #24
 8001372:	bd80      	pop	{r7, pc}
 8001374:	20005000 	.word	0x20005000
 8001378:	00000400 	.word	0x00000400
 800137c:	200000b0 	.word	0x200000b0
 8001380:	200003a0 	.word	0x200003a0

08001384 <SystemInit>:
  * @brief  Setup the microcontroller system.
  * @param  None
  * @retval None
  */
void SystemInit (void)
{
 8001384:	b580      	push	{r7, lr}
 8001386:	af00      	add	r7, sp, #0
  /* Configure the Vector Table location add offset address ------------------*/
#if defined (USER_VECT_TAB_ADDRESS)
  SCB->VTOR = VECT_TAB_BASE_ADDRESS | VECT_TAB_OFFSET; /* Vector Table Relocation in Internal SRAM */
#endif /* USER_VECT_TAB_ADDRESS */
}
 8001388:	46c0      	nop			; (mov r8, r8)
 800138a:	46bd      	mov	sp, r7
 800138c:	bd80      	pop	{r7, pc}
	...

08001390 <MX_TIM2_Init>:
TIM_HandleTypeDef htim6;
TIM_HandleTypeDef htim7;

/* TIM2 init function */
void MX_TIM2_Init(void)
{
 8001390:	b580      	push	{r7, lr}
 8001392:	b086      	sub	sp, #24
 8001394:	af00      	add	r7, sp, #0

  /* USER CODE BEGIN TIM2_Init 0 */

  /* USER CODE END TIM2_Init 0 */

  TIM_ClockConfigTypeDef sClockSourceConfig = {0};
 8001396:	2308      	movs	r3, #8
 8001398:	18fb      	adds	r3, r7, r3
 800139a:	0018      	movs	r0, r3
 800139c:	2310      	movs	r3, #16
 800139e:	001a      	movs	r2, r3
 80013a0:	2100      	movs	r1, #0
 80013a2:	f004 fb22 	bl	80059ea <memset>
  TIM_MasterConfigTypeDef sMasterConfig = {0};
 80013a6:	003b      	movs	r3, r7
 80013a8:	0018      	movs	r0, r3
 80013aa:	2308      	movs	r3, #8
 80013ac:	001a      	movs	r2, r3
 80013ae:	2100      	movs	r1, #0
 80013b0:	f004 fb1b 	bl	80059ea <memset>

  /* USER CODE BEGIN TIM2_Init 1 */

  /* USER CODE END TIM2_Init 1 */
  htim2.Instance = TIM2;
 80013b4:	4b1e      	ldr	r3, [pc, #120]	; (8001430 <MX_TIM2_Init+0xa0>)
 80013b6:	2280      	movs	r2, #128	; 0x80
 80013b8:	05d2      	lsls	r2, r2, #23
 80013ba:	601a      	str	r2, [r3, #0]
  htim2.Init.Prescaler = 15999;
 80013bc:	4b1c      	ldr	r3, [pc, #112]	; (8001430 <MX_TIM2_Init+0xa0>)
 80013be:	4a1d      	ldr	r2, [pc, #116]	; (8001434 <MX_TIM2_Init+0xa4>)
 80013c0:	605a      	str	r2, [r3, #4]
  htim2.Init.CounterMode = TIM_COUNTERMODE_UP;
 80013c2:	4b1b      	ldr	r3, [pc, #108]	; (8001430 <MX_TIM2_Init+0xa0>)
 80013c4:	2200      	movs	r2, #0
 80013c6:	609a      	str	r2, [r3, #8]
  htim2.Init.Period = 8999;
 80013c8:	4b19      	ldr	r3, [pc, #100]	; (8001430 <MX_TIM2_Init+0xa0>)
 80013ca:	4a1b      	ldr	r2, [pc, #108]	; (8001438 <MX_TIM2_Init+0xa8>)
 80013cc:	60da      	str	r2, [r3, #12]
  htim2.Init.ClockDivision = TIM_CLOCKDIVISION_DIV1;
 80013ce:	4b18      	ldr	r3, [pc, #96]	; (8001430 <MX_TIM2_Init+0xa0>)
 80013d0:	2200      	movs	r2, #0
 80013d2:	611a      	str	r2, [r3, #16]
  htim2.Init.AutoReloadPreload = TIM_AUTORELOAD_PRELOAD_ENABLE;
 80013d4:	4b16      	ldr	r3, [pc, #88]	; (8001430 <MX_TIM2_Init+0xa0>)
 80013d6:	2280      	movs	r2, #128	; 0x80
 80013d8:	615a      	str	r2, [r3, #20]
  if (HAL_TIM_Base_Init(&htim2) != HAL_OK)
 80013da:	4b15      	ldr	r3, [pc, #84]	; (8001430 <MX_TIM2_Init+0xa0>)
 80013dc:	0018      	movs	r0, r3
 80013de:	f002 fa17 	bl	8003810 <HAL_TIM_Base_Init>
 80013e2:	1e03      	subs	r3, r0, #0
 80013e4:	d001      	beq.n	80013ea <MX_TIM2_Init+0x5a>
  {
    Error_Handler();
 80013e6:	f7ff fee5 	bl	80011b4 <Error_Handler>
  }
  sClockSourceConfig.ClockSource = TIM_CLOCKSOURCE_INTERNAL;
 80013ea:	2108      	movs	r1, #8
 80013ec:	187b      	adds	r3, r7, r1
 80013ee:	2280      	movs	r2, #128	; 0x80
 80013f0:	0152      	lsls	r2, r2, #5
 80013f2:	601a      	str	r2, [r3, #0]
  if (HAL_TIM_ConfigClockSource(&htim2, &sClockSourceConfig) != HAL_OK)
 80013f4:	187a      	adds	r2, r7, r1
 80013f6:	4b0e      	ldr	r3, [pc, #56]	; (8001430 <MX_TIM2_Init+0xa0>)
 80013f8:	0011      	movs	r1, r2
 80013fa:	0018      	movs	r0, r3
 80013fc:	f002 fd22 	bl	8003e44 <HAL_TIM_ConfigClockSource>
 8001400:	1e03      	subs	r3, r0, #0
 8001402:	d001      	beq.n	8001408 <MX_TIM2_Init+0x78>
  {
    Error_Handler();
 8001404:	f7ff fed6 	bl	80011b4 <Error_Handler>
  }
  sMasterConfig.MasterOutputTrigger = TIM_TRGO_RESET;
 8001408:	003b      	movs	r3, r7
 800140a:	2200      	movs	r2, #0
 800140c:	601a      	str	r2, [r3, #0]
  sMasterConfig.MasterSlaveMode = TIM_MASTERSLAVEMODE_DISABLE;
 800140e:	003b      	movs	r3, r7
 8001410:	2200      	movs	r2, #0
 8001412:	605a      	str	r2, [r3, #4]
  if (HAL_TIMEx_MasterConfigSynchronization(&htim2, &sMasterConfig) != HAL_OK)
 8001414:	003a      	movs	r2, r7
 8001416:	4b06      	ldr	r3, [pc, #24]	; (8001430 <MX_TIM2_Init+0xa0>)
 8001418:	0011      	movs	r1, r2
 800141a:	0018      	movs	r0, r3
 800141c:	f003 f826 	bl	800446c <HAL_TIMEx_MasterConfigSynchronization>
 8001420:	1e03      	subs	r3, r0, #0
 8001422:	d001      	beq.n	8001428 <MX_TIM2_Init+0x98>
  {
    Error_Handler();
 8001424:	f7ff fec6 	bl	80011b4 <Error_Handler>
  }
  /* USER CODE BEGIN TIM2_Init 2 */

  /* USER CODE END TIM2_Init 2 */

}
 8001428:	46c0      	nop			; (mov r8, r8)
 800142a:	46bd      	mov	sp, r7
 800142c:	b006      	add	sp, #24
 800142e:	bd80      	pop	{r7, pc}
 8001430:	20000200 	.word	0x20000200
 8001434:	00003e7f 	.word	0x00003e7f
 8001438:	00002327 	.word	0x00002327

0800143c <MX_TIM3_Init>:
/* TIM3 init function */
void MX_TIM3_Init(void)
{
 800143c:	b580      	push	{r7, lr}
 800143e:	b08a      	sub	sp, #40	; 0x28
 8001440:	af00      	add	r7, sp, #0

  /* USER CODE BEGIN TIM3_Init 0 */

  /* USER CODE END TIM3_Init 0 */

  TIM_ClockConfigTypeDef sClockSourceConfig = {0};
 8001442:	2318      	movs	r3, #24
 8001444:	18fb      	adds	r3, r7, r3
 8001446:	0018      	movs	r0, r3
 8001448:	2310      	movs	r3, #16
 800144a:	001a      	movs	r2, r3
 800144c:	2100      	movs	r1, #0
 800144e:	f004 facc 	bl	80059ea <memset>
  TIM_MasterConfigTypeDef sMasterConfig = {0};
 8001452:	2310      	movs	r3, #16
 8001454:	18fb      	adds	r3, r7, r3
 8001456:	0018      	movs	r0, r3
 8001458:	2308      	movs	r3, #8
 800145a:	001a      	movs	r2, r3
 800145c:	2100      	movs	r1, #0
 800145e:	f004 fac4 	bl	80059ea <memset>
  TIM_OC_InitTypeDef sConfigOC = {0};
 8001462:	003b      	movs	r3, r7
 8001464:	0018      	movs	r0, r3
 8001466:	2310      	movs	r3, #16
 8001468:	001a      	movs	r2, r3
 800146a:	2100      	movs	r1, #0
 800146c:	f004 fabd 	bl	80059ea <memset>

  /* USER CODE BEGIN TIM3_Init 1 */

  /* USER CODE END TIM3_Init 1 */
  htim3.Instance = TIM3;
 8001470:	4b34      	ldr	r3, [pc, #208]	; (8001544 <MX_TIM3_Init+0x108>)
 8001472:	4a35      	ldr	r2, [pc, #212]	; (8001548 <MX_TIM3_Init+0x10c>)
 8001474:	601a      	str	r2, [r3, #0]
  htim3.Init.Prescaler = 15;
 8001476:	4b33      	ldr	r3, [pc, #204]	; (8001544 <MX_TIM3_Init+0x108>)
 8001478:	220f      	movs	r2, #15
 800147a:	605a      	str	r2, [r3, #4]
  htim3.Init.CounterMode = TIM_COUNTERMODE_UP;
 800147c:	4b31      	ldr	r3, [pc, #196]	; (8001544 <MX_TIM3_Init+0x108>)
 800147e:	2200      	movs	r2, #0
 8001480:	609a      	str	r2, [r3, #8]
  htim3.Init.Period = 19999;
 8001482:	4b30      	ldr	r3, [pc, #192]	; (8001544 <MX_TIM3_Init+0x108>)
 8001484:	4a31      	ldr	r2, [pc, #196]	; (800154c <MX_TIM3_Init+0x110>)
 8001486:	60da      	str	r2, [r3, #12]
  htim3.Init.ClockDivision = TIM_CLOCKDIVISION_DIV1;
 8001488:	4b2e      	ldr	r3, [pc, #184]	; (8001544 <MX_TIM3_Init+0x108>)
 800148a:	2200      	movs	r2, #0
 800148c:	611a      	str	r2, [r3, #16]
  htim3.Init.AutoReloadPreload = TIM_AUTORELOAD_PRELOAD_ENABLE;
 800148e:	4b2d      	ldr	r3, [pc, #180]	; (8001544 <MX_TIM3_Init+0x108>)
 8001490:	2280      	movs	r2, #128	; 0x80
 8001492:	615a      	str	r2, [r3, #20]
  if (HAL_TIM_Base_Init(&htim3) != HAL_OK)
 8001494:	4b2b      	ldr	r3, [pc, #172]	; (8001544 <MX_TIM3_Init+0x108>)
 8001496:	0018      	movs	r0, r3
 8001498:	f002 f9ba 	bl	8003810 <HAL_TIM_Base_Init>
 800149c:	1e03      	subs	r3, r0, #0
 800149e:	d001      	beq.n	80014a4 <MX_TIM3_Init+0x68>
  {
    Error_Handler();
 80014a0:	f7ff fe88 	bl	80011b4 <Error_Handler>
  }
  sClockSourceConfig.ClockSource = TIM_CLOCKSOURCE_INTERNAL;
 80014a4:	2118      	movs	r1, #24
 80014a6:	187b      	adds	r3, r7, r1
 80014a8:	2280      	movs	r2, #128	; 0x80
 80014aa:	0152      	lsls	r2, r2, #5
 80014ac:	601a      	str	r2, [r3, #0]
  if (HAL_TIM_ConfigClockSource(&htim3, &sClockSourceConfig) != HAL_OK)
 80014ae:	187a      	adds	r2, r7, r1
 80014b0:	4b24      	ldr	r3, [pc, #144]	; (8001544 <MX_TIM3_Init+0x108>)
 80014b2:	0011      	movs	r1, r2
 80014b4:	0018      	movs	r0, r3
 80014b6:	f002 fcc5 	bl	8003e44 <HAL_TIM_ConfigClockSource>
 80014ba:	1e03      	subs	r3, r0, #0
 80014bc:	d001      	beq.n	80014c2 <MX_TIM3_Init+0x86>
  {
    Error_Handler();
 80014be:	f7ff fe79 	bl	80011b4 <Error_Handler>
  }
  if (HAL_TIM_PWM_Init(&htim3) != HAL_OK)
 80014c2:	4b20      	ldr	r3, [pc, #128]	; (8001544 <MX_TIM3_Init+0x108>)
 80014c4:	0018      	movs	r0, r3
 80014c6:	f002 fa35 	bl	8003934 <HAL_TIM_PWM_Init>
 80014ca:	1e03      	subs	r3, r0, #0
 80014cc:	d001      	beq.n	80014d2 <MX_TIM3_Init+0x96>
  {
    Error_Handler();
 80014ce:	f7ff fe71 	bl	80011b4 <Error_Handler>
  }
  sMasterConfig.MasterOutputTrigger = TIM_TRGO_RESET;
 80014d2:	2110      	movs	r1, #16
 80014d4:	187b      	adds	r3, r7, r1
 80014d6:	2200      	movs	r2, #0
 80014d8:	601a      	str	r2, [r3, #0]
  sMasterConfig.MasterSlaveMode = TIM_MASTERSLAVEMODE_DISABLE;
 80014da:	187b      	adds	r3, r7, r1
 80014dc:	2200      	movs	r2, #0
 80014de:	605a      	str	r2, [r3, #4]
  if (HAL_TIMEx_MasterConfigSynchronization(&htim3, &sMasterConfig) != HAL_OK)
 80014e0:	187a      	adds	r2, r7, r1
 80014e2:	4b18      	ldr	r3, [pc, #96]	; (8001544 <MX_TIM3_Init+0x108>)
 80014e4:	0011      	movs	r1, r2
 80014e6:	0018      	movs	r0, r3
 80014e8:	f002 ffc0 	bl	800446c <HAL_TIMEx_MasterConfigSynchronization>
 80014ec:	1e03      	subs	r3, r0, #0
 80014ee:	d001      	beq.n	80014f4 <MX_TIM3_Init+0xb8>
  {
    Error_Handler();
 80014f0:	f7ff fe60 	bl	80011b4 <Error_Handler>
  }
  sConfigOC.OCMode = TIM_OCMODE_PWM1;
 80014f4:	003b      	movs	r3, r7
 80014f6:	2260      	movs	r2, #96	; 0x60
 80014f8:	601a      	str	r2, [r3, #0]
  sConfigOC.Pulse = 0;
 80014fa:	003b      	movs	r3, r7
 80014fc:	2200      	movs	r2, #0
 80014fe:	605a      	str	r2, [r3, #4]
  sConfigOC.OCPolarity = TIM_OCPOLARITY_HIGH;
 8001500:	003b      	movs	r3, r7
 8001502:	2200      	movs	r2, #0
 8001504:	609a      	str	r2, [r3, #8]
  sConfigOC.OCFastMode = TIM_OCFAST_DISABLE;
 8001506:	003b      	movs	r3, r7
 8001508:	2200      	movs	r2, #0
 800150a:	60da      	str	r2, [r3, #12]
  if (HAL_TIM_PWM_ConfigChannel(&htim3, &sConfigOC, TIM_CHANNEL_1) != HAL_OK)
 800150c:	0039      	movs	r1, r7
 800150e:	4b0d      	ldr	r3, [pc, #52]	; (8001544 <MX_TIM3_Init+0x108>)
 8001510:	2200      	movs	r2, #0
 8001512:	0018      	movs	r0, r3
 8001514:	f002 fbd0 	bl	8003cb8 <HAL_TIM_PWM_ConfigChannel>
 8001518:	1e03      	subs	r3, r0, #0
 800151a:	d001      	beq.n	8001520 <MX_TIM3_Init+0xe4>
  {
    Error_Handler();
 800151c:	f7ff fe4a 	bl	80011b4 <Error_Handler>
  }
  if (HAL_TIMEx_RemapConfig(&htim3, TIM3_TI1_GPIO) != HAL_OK)
 8001520:	4b08      	ldr	r3, [pc, #32]	; (8001544 <MX_TIM3_Init+0x108>)
 8001522:	2104      	movs	r1, #4
 8001524:	0018      	movs	r0, r3
 8001526:	f002 ffff 	bl	8004528 <HAL_TIMEx_RemapConfig>
 800152a:	1e03      	subs	r3, r0, #0
 800152c:	d001      	beq.n	8001532 <MX_TIM3_Init+0xf6>
  {
    Error_Handler();
 800152e:	f7ff fe41 	bl	80011b4 <Error_Handler>
  }
  /* USER CODE BEGIN TIM3_Init 2 */

  /* USER CODE END TIM3_Init 2 */
  HAL_TIM_MspPostInit(&htim3);
 8001532:	4b04      	ldr	r3, [pc, #16]	; (8001544 <MX_TIM3_Init+0x108>)
 8001534:	0018      	movs	r0, r3
 8001536:	f000 f8dd 	bl	80016f4 <HAL_TIM_MspPostInit>

}
 800153a:	46c0      	nop			; (mov r8, r8)
 800153c:	46bd      	mov	sp, r7
 800153e:	b00a      	add	sp, #40	; 0x28
 8001540:	bd80      	pop	{r7, pc}
 8001542:	46c0      	nop			; (mov r8, r8)
 8001544:	20000180 	.word	0x20000180
 8001548:	40000400 	.word	0x40000400
 800154c:	00004e1f 	.word	0x00004e1f

08001550 <MX_TIM6_Init>:
/* TIM6 init function */
void MX_TIM6_Init(void)
{
 8001550:	b580      	push	{r7, lr}
 8001552:	b082      	sub	sp, #8
 8001554:	af00      	add	r7, sp, #0

  /* USER CODE BEGIN TIM6_Init 0 */

  /* USER CODE END TIM6_Init 0 */

  TIM_MasterConfigTypeDef sMasterConfig = {0};
 8001556:	003b      	movs	r3, r7
 8001558:	0018      	movs	r0, r3
 800155a:	2308      	movs	r3, #8
 800155c:	001a      	movs	r2, r3
 800155e:	2100      	movs	r1, #0
 8001560:	f004 fa43 	bl	80059ea <memset>

  /* USER CODE BEGIN TIM6_Init 1 */

  /* USER CODE END TIM6_Init 1 */
  htim6.Instance = TIM6;
 8001564:	4b15      	ldr	r3, [pc, #84]	; (80015bc <MX_TIM6_Init+0x6c>)
 8001566:	4a16      	ldr	r2, [pc, #88]	; (80015c0 <MX_TIM6_Init+0x70>)
 8001568:	601a      	str	r2, [r3, #0]
  htim6.Init.Prescaler = 15999;
 800156a:	4b14      	ldr	r3, [pc, #80]	; (80015bc <MX_TIM6_Init+0x6c>)
 800156c:	4a15      	ldr	r2, [pc, #84]	; (80015c4 <MX_TIM6_Init+0x74>)
 800156e:	605a      	str	r2, [r3, #4]
  htim6.Init.CounterMode = TIM_COUNTERMODE_UP;
 8001570:	4b12      	ldr	r3, [pc, #72]	; (80015bc <MX_TIM6_Init+0x6c>)
 8001572:	2200      	movs	r2, #0
 8001574:	609a      	str	r2, [r3, #8]
  htim6.Init.Period = 9999;
 8001576:	4b11      	ldr	r3, [pc, #68]	; (80015bc <MX_TIM6_Init+0x6c>)
 8001578:	4a13      	ldr	r2, [pc, #76]	; (80015c8 <MX_TIM6_Init+0x78>)
 800157a:	60da      	str	r2, [r3, #12]
  htim6.Init.AutoReloadPreload = TIM_AUTORELOAD_PRELOAD_ENABLE;
 800157c:	4b0f      	ldr	r3, [pc, #60]	; (80015bc <MX_TIM6_Init+0x6c>)
 800157e:	2280      	movs	r2, #128	; 0x80
 8001580:	615a      	str	r2, [r3, #20]
  if (HAL_TIM_Base_Init(&htim6) != HAL_OK)
 8001582:	4b0e      	ldr	r3, [pc, #56]	; (80015bc <MX_TIM6_Init+0x6c>)
 8001584:	0018      	movs	r0, r3
 8001586:	f002 f943 	bl	8003810 <HAL_TIM_Base_Init>
 800158a:	1e03      	subs	r3, r0, #0
 800158c:	d001      	beq.n	8001592 <MX_TIM6_Init+0x42>
  {
    Error_Handler();
 800158e:	f7ff fe11 	bl	80011b4 <Error_Handler>
  }
  sMasterConfig.MasterOutputTrigger = TIM_TRGO_RESET;
 8001592:	003b      	movs	r3, r7
 8001594:	2200      	movs	r2, #0
 8001596:	601a      	str	r2, [r3, #0]
  sMasterConfig.MasterSlaveMode = TIM_MASTERSLAVEMODE_DISABLE;
 8001598:	003b      	movs	r3, r7
 800159a:	2200      	movs	r2, #0
 800159c:	605a      	str	r2, [r3, #4]
  if (HAL_TIMEx_MasterConfigSynchronization(&htim6, &sMasterConfig) != HAL_OK)
 800159e:	003a      	movs	r2, r7
 80015a0:	4b06      	ldr	r3, [pc, #24]	; (80015bc <MX_TIM6_Init+0x6c>)
 80015a2:	0011      	movs	r1, r2
 80015a4:	0018      	movs	r0, r3
 80015a6:	f002 ff61 	bl	800446c <HAL_TIMEx_MasterConfigSynchronization>
 80015aa:	1e03      	subs	r3, r0, #0
 80015ac:	d001      	beq.n	80015b2 <MX_TIM6_Init+0x62>
  {
    Error_Handler();
 80015ae:	f7ff fe01 	bl	80011b4 <Error_Handler>
  }
  /* USER CODE BEGIN TIM6_Init 2 */

  /* USER CODE END TIM6_Init 2 */

}
 80015b2:	46c0      	nop			; (mov r8, r8)
 80015b4:	46bd      	mov	sp, r7
 80015b6:	b002      	add	sp, #8
 80015b8:	bd80      	pop	{r7, pc}
 80015ba:	46c0      	nop			; (mov r8, r8)
 80015bc:	200001c0 	.word	0x200001c0
 80015c0:	40001000 	.word	0x40001000
 80015c4:	00003e7f 	.word	0x00003e7f
 80015c8:	0000270f 	.word	0x0000270f

080015cc <MX_TIM7_Init>:
/* TIM7 init function */
void MX_TIM7_Init(void)
{
 80015cc:	b580      	push	{r7, lr}
 80015ce:	b082      	sub	sp, #8
 80015d0:	af00      	add	r7, sp, #0

  /* USER CODE BEGIN TIM7_Init 0 */

  /* USER CODE END TIM7_Init 0 */

  TIM_MasterConfigTypeDef sMasterConfig = {0};
 80015d2:	003b      	movs	r3, r7
 80015d4:	0018      	movs	r0, r3
 80015d6:	2308      	movs	r3, #8
 80015d8:	001a      	movs	r2, r3
 80015da:	2100      	movs	r1, #0
 80015dc:	f004 fa05 	bl	80059ea <memset>

  /* USER CODE BEGIN TIM7_Init 1 */

  /* USER CODE END TIM7_Init 1 */
  htim7.Instance = TIM7;
 80015e0:	4b15      	ldr	r3, [pc, #84]	; (8001638 <MX_TIM7_Init+0x6c>)
 80015e2:	4a16      	ldr	r2, [pc, #88]	; (800163c <MX_TIM7_Init+0x70>)
 80015e4:	601a      	str	r2, [r3, #0]
  htim7.Init.Prescaler = 15;
 80015e6:	4b14      	ldr	r3, [pc, #80]	; (8001638 <MX_TIM7_Init+0x6c>)
 80015e8:	220f      	movs	r2, #15
 80015ea:	605a      	str	r2, [r3, #4]
  htim7.Init.CounterMode = TIM_COUNTERMODE_UP;
 80015ec:	4b12      	ldr	r3, [pc, #72]	; (8001638 <MX_TIM7_Init+0x6c>)
 80015ee:	2200      	movs	r2, #0
 80015f0:	609a      	str	r2, [r3, #8]
  htim7.Init.Period = 19999;
 80015f2:	4b11      	ldr	r3, [pc, #68]	; (8001638 <MX_TIM7_Init+0x6c>)
 80015f4:	4a12      	ldr	r2, [pc, #72]	; (8001640 <MX_TIM7_Init+0x74>)
 80015f6:	60da      	str	r2, [r3, #12]
  htim7.Init.AutoReloadPreload = TIM_AUTORELOAD_PRELOAD_DISABLE;
 80015f8:	4b0f      	ldr	r3, [pc, #60]	; (8001638 <MX_TIM7_Init+0x6c>)
 80015fa:	2200      	movs	r2, #0
 80015fc:	615a      	str	r2, [r3, #20]
  if (HAL_TIM_Base_Init(&htim7) != HAL_OK)
 80015fe:	4b0e      	ldr	r3, [pc, #56]	; (8001638 <MX_TIM7_Init+0x6c>)
 8001600:	0018      	movs	r0, r3
 8001602:	f002 f905 	bl	8003810 <HAL_TIM_Base_Init>
 8001606:	1e03      	subs	r3, r0, #0
 8001608:	d001      	beq.n	800160e <MX_TIM7_Init+0x42>
  {
    Error_Handler();
 800160a:	f7ff fdd3 	bl	80011b4 <Error_Handler>
  }
  sMasterConfig.MasterOutputTrigger = TIM_TRGO_RESET;
 800160e:	003b      	movs	r3, r7
 8001610:	2200      	movs	r2, #0
 8001612:	601a      	str	r2, [r3, #0]
  sMasterConfig.MasterSlaveMode = TIM_MASTERSLAVEMODE_DISABLE;
 8001614:	003b      	movs	r3, r7
 8001616:	2200      	movs	r2, #0
 8001618:	605a      	str	r2, [r3, #4]
  if (HAL_TIMEx_MasterConfigSynchronization(&htim7, &sMasterConfig) != HAL_OK)
 800161a:	003a      	movs	r2, r7
 800161c:	4b06      	ldr	r3, [pc, #24]	; (8001638 <MX_TIM7_Init+0x6c>)
 800161e:	0011      	movs	r1, r2
 8001620:	0018      	movs	r0, r3
 8001622:	f002 ff23 	bl	800446c <HAL_TIMEx_MasterConfigSynchronization>
 8001626:	1e03      	subs	r3, r0, #0
 8001628:	d001      	beq.n	800162e <MX_TIM7_Init+0x62>
  {
    Error_Handler();
 800162a:	f7ff fdc3 	bl	80011b4 <Error_Handler>
  }
  /* USER CODE BEGIN TIM7_Init 2 */

  /* USER CODE END TIM7_Init 2 */

}
 800162e:	46c0      	nop			; (mov r8, r8)
 8001630:	46bd      	mov	sp, r7
 8001632:	b002      	add	sp, #8
 8001634:	bd80      	pop	{r7, pc}
 8001636:	46c0      	nop			; (mov r8, r8)
 8001638:	20000240 	.word	0x20000240
 800163c:	40001400 	.word	0x40001400
 8001640:	00004e1f 	.word	0x00004e1f

08001644 <HAL_TIM_Base_MspInit>:

void HAL_TIM_Base_MspInit(TIM_HandleTypeDef* tim_baseHandle)
{
 8001644:	b580      	push	{r7, lr}
 8001646:	b082      	sub	sp, #8
 8001648:	af00      	add	r7, sp, #0
 800164a:	6078      	str	r0, [r7, #4]

  if(tim_baseHandle->Instance==TIM2)
 800164c:	687b      	ldr	r3, [r7, #4]
 800164e:	681a      	ldr	r2, [r3, #0]
 8001650:	2380      	movs	r3, #128	; 0x80
 8001652:	05db      	lsls	r3, r3, #23
 8001654:	429a      	cmp	r2, r3
 8001656:	d10e      	bne.n	8001676 <HAL_TIM_Base_MspInit+0x32>
  {
  /* USER CODE BEGIN TIM2_MspInit 0 */

  /* USER CODE END TIM2_MspInit 0 */
    /* TIM2 clock enable */
    __HAL_RCC_TIM2_CLK_ENABLE();
 8001658:	4b22      	ldr	r3, [pc, #136]	; (80016e4 <HAL_TIM_Base_MspInit+0xa0>)
 800165a:	6b9a      	ldr	r2, [r3, #56]	; 0x38
 800165c:	4b21      	ldr	r3, [pc, #132]	; (80016e4 <HAL_TIM_Base_MspInit+0xa0>)
 800165e:	2101      	movs	r1, #1
 8001660:	430a      	orrs	r2, r1
 8001662:	639a      	str	r2, [r3, #56]	; 0x38

    /* TIM2 interrupt Init */
    HAL_NVIC_SetPriority(TIM2_IRQn, 0, 0);
 8001664:	2200      	movs	r2, #0
 8001666:	2100      	movs	r1, #0
 8001668:	200f      	movs	r0, #15
 800166a:	f000 ff0f 	bl	800248c <HAL_NVIC_SetPriority>
    HAL_NVIC_EnableIRQ(TIM2_IRQn);
 800166e:	200f      	movs	r0, #15
 8001670:	f000 ff21 	bl	80024b6 <HAL_NVIC_EnableIRQ>
    HAL_NVIC_EnableIRQ(TIM7_IRQn);
  /* USER CODE BEGIN TIM7_MspInit 1 */

  /* USER CODE END TIM7_MspInit 1 */
  }
}
 8001674:	e032      	b.n	80016dc <HAL_TIM_Base_MspInit+0x98>
  else if(tim_baseHandle->Instance==TIM3)
 8001676:	687b      	ldr	r3, [r7, #4]
 8001678:	681b      	ldr	r3, [r3, #0]
 800167a:	4a1b      	ldr	r2, [pc, #108]	; (80016e8 <HAL_TIM_Base_MspInit+0xa4>)
 800167c:	4293      	cmp	r3, r2
 800167e:	d106      	bne.n	800168e <HAL_TIM_Base_MspInit+0x4a>
    __HAL_RCC_TIM3_CLK_ENABLE();
 8001680:	4b18      	ldr	r3, [pc, #96]	; (80016e4 <HAL_TIM_Base_MspInit+0xa0>)
 8001682:	6b9a      	ldr	r2, [r3, #56]	; 0x38
 8001684:	4b17      	ldr	r3, [pc, #92]	; (80016e4 <HAL_TIM_Base_MspInit+0xa0>)
 8001686:	2102      	movs	r1, #2
 8001688:	430a      	orrs	r2, r1
 800168a:	639a      	str	r2, [r3, #56]	; 0x38
}
 800168c:	e026      	b.n	80016dc <HAL_TIM_Base_MspInit+0x98>
  else if(tim_baseHandle->Instance==TIM6)
 800168e:	687b      	ldr	r3, [r7, #4]
 8001690:	681b      	ldr	r3, [r3, #0]
 8001692:	4a16      	ldr	r2, [pc, #88]	; (80016ec <HAL_TIM_Base_MspInit+0xa8>)
 8001694:	4293      	cmp	r3, r2
 8001696:	d10e      	bne.n	80016b6 <HAL_TIM_Base_MspInit+0x72>
    __HAL_RCC_TIM6_CLK_ENABLE();
 8001698:	4b12      	ldr	r3, [pc, #72]	; (80016e4 <HAL_TIM_Base_MspInit+0xa0>)
 800169a:	6b9a      	ldr	r2, [r3, #56]	; 0x38
 800169c:	4b11      	ldr	r3, [pc, #68]	; (80016e4 <HAL_TIM_Base_MspInit+0xa0>)
 800169e:	2110      	movs	r1, #16
 80016a0:	430a      	orrs	r2, r1
 80016a2:	639a      	str	r2, [r3, #56]	; 0x38
    HAL_NVIC_SetPriority(TIM6_DAC_IRQn, 0, 0);
 80016a4:	2200      	movs	r2, #0
 80016a6:	2100      	movs	r1, #0
 80016a8:	2011      	movs	r0, #17
 80016aa:	f000 feef 	bl	800248c <HAL_NVIC_SetPriority>
    HAL_NVIC_EnableIRQ(TIM6_DAC_IRQn);
 80016ae:	2011      	movs	r0, #17
 80016b0:	f000 ff01 	bl	80024b6 <HAL_NVIC_EnableIRQ>
}
 80016b4:	e012      	b.n	80016dc <HAL_TIM_Base_MspInit+0x98>
  else if(tim_baseHandle->Instance==TIM7)
 80016b6:	687b      	ldr	r3, [r7, #4]
 80016b8:	681b      	ldr	r3, [r3, #0]
 80016ba:	4a0d      	ldr	r2, [pc, #52]	; (80016f0 <HAL_TIM_Base_MspInit+0xac>)
 80016bc:	4293      	cmp	r3, r2
 80016be:	d10d      	bne.n	80016dc <HAL_TIM_Base_MspInit+0x98>
    __HAL_RCC_TIM7_CLK_ENABLE();
 80016c0:	4b08      	ldr	r3, [pc, #32]	; (80016e4 <HAL_TIM_Base_MspInit+0xa0>)
 80016c2:	6b9a      	ldr	r2, [r3, #56]	; 0x38
 80016c4:	4b07      	ldr	r3, [pc, #28]	; (80016e4 <HAL_TIM_Base_MspInit+0xa0>)
 80016c6:	2120      	movs	r1, #32
 80016c8:	430a      	orrs	r2, r1
 80016ca:	639a      	str	r2, [r3, #56]	; 0x38
    HAL_NVIC_SetPriority(TIM7_IRQn, 0, 0);
 80016cc:	2200      	movs	r2, #0
 80016ce:	2100      	movs	r1, #0
 80016d0:	2012      	movs	r0, #18
 80016d2:	f000 fedb 	bl	800248c <HAL_NVIC_SetPriority>
    HAL_NVIC_EnableIRQ(TIM7_IRQn);
 80016d6:	2012      	movs	r0, #18
 80016d8:	f000 feed 	bl	80024b6 <HAL_NVIC_EnableIRQ>
}
 80016dc:	46c0      	nop			; (mov r8, r8)
 80016de:	46bd      	mov	sp, r7
 80016e0:	b002      	add	sp, #8
 80016e2:	bd80      	pop	{r7, pc}
 80016e4:	40021000 	.word	0x40021000
 80016e8:	40000400 	.word	0x40000400
 80016ec:	40001000 	.word	0x40001000
 80016f0:	40001400 	.word	0x40001400

080016f4 <HAL_TIM_MspPostInit>:
void HAL_TIM_MspPostInit(TIM_HandleTypeDef* timHandle)
{
 80016f4:	b590      	push	{r4, r7, lr}
 80016f6:	b089      	sub	sp, #36	; 0x24
 80016f8:	af00      	add	r7, sp, #0
 80016fa:	6078      	str	r0, [r7, #4]

  GPIO_InitTypeDef GPIO_InitStruct = {0};
 80016fc:	240c      	movs	r4, #12
 80016fe:	193b      	adds	r3, r7, r4
 8001700:	0018      	movs	r0, r3
 8001702:	2314      	movs	r3, #20
 8001704:	001a      	movs	r2, r3
 8001706:	2100      	movs	r1, #0
 8001708:	f004 f96f 	bl	80059ea <memset>
  if(timHandle->Instance==TIM3)
 800170c:	687b      	ldr	r3, [r7, #4]
 800170e:	681b      	ldr	r3, [r3, #0]
 8001710:	4a14      	ldr	r2, [pc, #80]	; (8001764 <HAL_TIM_MspPostInit+0x70>)
 8001712:	4293      	cmp	r3, r2
 8001714:	d122      	bne.n	800175c <HAL_TIM_MspPostInit+0x68>
  {
  /* USER CODE BEGIN TIM3_MspPostInit 0 */

  /* USER CODE END TIM3_MspPostInit 0 */

    __HAL_RCC_GPIOA_CLK_ENABLE();
 8001716:	4b14      	ldr	r3, [pc, #80]	; (8001768 <HAL_TIM_MspPostInit+0x74>)
 8001718:	6ada      	ldr	r2, [r3, #44]	; 0x2c
 800171a:	4b13      	ldr	r3, [pc, #76]	; (8001768 <HAL_TIM_MspPostInit+0x74>)
 800171c:	2101      	movs	r1, #1
 800171e:	430a      	orrs	r2, r1
 8001720:	62da      	str	r2, [r3, #44]	; 0x2c
 8001722:	4b11      	ldr	r3, [pc, #68]	; (8001768 <HAL_TIM_MspPostInit+0x74>)
 8001724:	6adb      	ldr	r3, [r3, #44]	; 0x2c
 8001726:	2201      	movs	r2, #1
 8001728:	4013      	ands	r3, r2
 800172a:	60bb      	str	r3, [r7, #8]
 800172c:	68bb      	ldr	r3, [r7, #8]
    /**TIM3 GPIO Configuration
    PA6     ------> TIM3_CH1
    */
    GPIO_InitStruct.Pin = GPIO_PIN_6;
 800172e:	0021      	movs	r1, r4
 8001730:	187b      	adds	r3, r7, r1
 8001732:	2240      	movs	r2, #64	; 0x40
 8001734:	601a      	str	r2, [r3, #0]
    GPIO_InitStruct.Mode = GPIO_MODE_AF_PP;
 8001736:	187b      	adds	r3, r7, r1
 8001738:	2202      	movs	r2, #2
 800173a:	605a      	str	r2, [r3, #4]
    GPIO_InitStruct.Pull = GPIO_NOPULL;
 800173c:	187b      	adds	r3, r7, r1
 800173e:	2200      	movs	r2, #0
 8001740:	609a      	str	r2, [r3, #8]
    GPIO_InitStruct.Speed = GPIO_SPEED_FREQ_LOW;
 8001742:	187b      	adds	r3, r7, r1
 8001744:	2200      	movs	r2, #0
 8001746:	60da      	str	r2, [r3, #12]
    GPIO_InitStruct.Alternate = GPIO_AF2_TIM3;
 8001748:	187b      	adds	r3, r7, r1
 800174a:	2202      	movs	r2, #2
 800174c:	611a      	str	r2, [r3, #16]
    HAL_GPIO_Init(GPIOA, &GPIO_InitStruct);
 800174e:	187a      	adds	r2, r7, r1
 8001750:	23a0      	movs	r3, #160	; 0xa0
 8001752:	05db      	lsls	r3, r3, #23
 8001754:	0011      	movs	r1, r2
 8001756:	0018      	movs	r0, r3
 8001758:	f000 ff52 	bl	8002600 <HAL_GPIO_Init>
  /* USER CODE BEGIN TIM3_MspPostInit 1 */

  /* USER CODE END TIM3_MspPostInit 1 */
  }

}
 800175c:	46c0      	nop			; (mov r8, r8)
 800175e:	46bd      	mov	sp, r7
 8001760:	b009      	add	sp, #36	; 0x24
 8001762:	bd90      	pop	{r4, r7, pc}
 8001764:	40000400 	.word	0x40000400
 8001768:	40021000 	.word	0x40021000

0800176c <MX_USART1_UART_Init>:
UART_HandleTypeDef huart2;

/* USART1 init function */

void MX_USART1_UART_Init(void)
{
 800176c:	b580      	push	{r7, lr}
 800176e:	af00      	add	r7, sp, #0
  /* USER CODE END USART1_Init 0 */

  /* USER CODE BEGIN USART1_Init 1 */

  /* USER CODE END USART1_Init 1 */
  huart1.Instance = USART1;
 8001770:	4b14      	ldr	r3, [pc, #80]	; (80017c4 <MX_USART1_UART_Init+0x58>)
 8001772:	4a15      	ldr	r2, [pc, #84]	; (80017c8 <MX_USART1_UART_Init+0x5c>)
 8001774:	601a      	str	r2, [r3, #0]
  huart1.Init.BaudRate = 9600;
 8001776:	4b13      	ldr	r3, [pc, #76]	; (80017c4 <MX_USART1_UART_Init+0x58>)
 8001778:	2296      	movs	r2, #150	; 0x96
 800177a:	0192      	lsls	r2, r2, #6
 800177c:	605a      	str	r2, [r3, #4]
  huart1.Init.WordLength = UART_WORDLENGTH_8B;
 800177e:	4b11      	ldr	r3, [pc, #68]	; (80017c4 <MX_USART1_UART_Init+0x58>)
 8001780:	2200      	movs	r2, #0
 8001782:	609a      	str	r2, [r3, #8]
  huart1.Init.StopBits = UART_STOPBITS_1;
 8001784:	4b0f      	ldr	r3, [pc, #60]	; (80017c4 <MX_USART1_UART_Init+0x58>)
 8001786:	2200      	movs	r2, #0
 8001788:	60da      	str	r2, [r3, #12]
  huart1.Init.Parity = UART_PARITY_NONE;
 800178a:	4b0e      	ldr	r3, [pc, #56]	; (80017c4 <MX_USART1_UART_Init+0x58>)
 800178c:	2200      	movs	r2, #0
 800178e:	611a      	str	r2, [r3, #16]
  huart1.Init.Mode = UART_MODE_TX_RX;
 8001790:	4b0c      	ldr	r3, [pc, #48]	; (80017c4 <MX_USART1_UART_Init+0x58>)
 8001792:	220c      	movs	r2, #12
 8001794:	615a      	str	r2, [r3, #20]
  huart1.Init.HwFlowCtl = UART_HWCONTROL_NONE;
 8001796:	4b0b      	ldr	r3, [pc, #44]	; (80017c4 <MX_USART1_UART_Init+0x58>)
 8001798:	2200      	movs	r2, #0
 800179a:	619a      	str	r2, [r3, #24]
  huart1.Init.OverSampling = UART_OVERSAMPLING_16;
 800179c:	4b09      	ldr	r3, [pc, #36]	; (80017c4 <MX_USART1_UART_Init+0x58>)
 800179e:	2200      	movs	r2, #0
 80017a0:	61da      	str	r2, [r3, #28]
  huart1.Init.OneBitSampling = UART_ONE_BIT_SAMPLE_DISABLE;
 80017a2:	4b08      	ldr	r3, [pc, #32]	; (80017c4 <MX_USART1_UART_Init+0x58>)
 80017a4:	2200      	movs	r2, #0
 80017a6:	621a      	str	r2, [r3, #32]
  huart1.AdvancedInit.AdvFeatureInit = UART_ADVFEATURE_NO_INIT;
 80017a8:	4b06      	ldr	r3, [pc, #24]	; (80017c4 <MX_USART1_UART_Init+0x58>)
 80017aa:	2200      	movs	r2, #0
 80017ac:	625a      	str	r2, [r3, #36]	; 0x24
  if (HAL_UART_Init(&huart1) != HAL_OK)
 80017ae:	4b05      	ldr	r3, [pc, #20]	; (80017c4 <MX_USART1_UART_Init+0x58>)
 80017b0:	0018      	movs	r0, r3
 80017b2:	f002 fed7 	bl	8004564 <HAL_UART_Init>
 80017b6:	1e03      	subs	r3, r0, #0
 80017b8:	d001      	beq.n	80017be <MX_USART1_UART_Init+0x52>
  {
    Error_Handler();
 80017ba:	f7ff fcfb 	bl	80011b4 <Error_Handler>
  }
  /* USER CODE BEGIN USART1_Init 2 */

  /* USER CODE END USART1_Init 2 */

}
 80017be:	46c0      	nop			; (mov r8, r8)
 80017c0:	46bd      	mov	sp, r7
 80017c2:	bd80      	pop	{r7, pc}
 80017c4:	20000280 	.word	0x20000280
 80017c8:	40013800 	.word	0x40013800

080017cc <MX_USART2_UART_Init>:
/* USART2 init function */

void MX_USART2_UART_Init(void)
{
 80017cc:	b580      	push	{r7, lr}
 80017ce:	af00      	add	r7, sp, #0
  /* USER CODE END USART2_Init 0 */

  /* USER CODE BEGIN USART2_Init 1 */

  /* USER CODE END USART2_Init 1 */
  huart2.Instance = USART2;
 80017d0:	4b14      	ldr	r3, [pc, #80]	; (8001824 <MX_USART2_UART_Init+0x58>)
 80017d2:	4a15      	ldr	r2, [pc, #84]	; (8001828 <MX_USART2_UART_Init+0x5c>)
 80017d4:	601a      	str	r2, [r3, #0]
  huart2.Init.BaudRate = 9600;
 80017d6:	4b13      	ldr	r3, [pc, #76]	; (8001824 <MX_USART2_UART_Init+0x58>)
 80017d8:	2296      	movs	r2, #150	; 0x96
 80017da:	0192      	lsls	r2, r2, #6
 80017dc:	605a      	str	r2, [r3, #4]
  huart2.Init.WordLength = UART_WORDLENGTH_8B;
 80017de:	4b11      	ldr	r3, [pc, #68]	; (8001824 <MX_USART2_UART_Init+0x58>)
 80017e0:	2200      	movs	r2, #0
 80017e2:	609a      	str	r2, [r3, #8]
  huart2.Init.StopBits = UART_STOPBITS_1;
 80017e4:	4b0f      	ldr	r3, [pc, #60]	; (8001824 <MX_USART2_UART_Init+0x58>)
 80017e6:	2200      	movs	r2, #0
 80017e8:	60da      	str	r2, [r3, #12]
  huart2.Init.Parity = UART_PARITY_NONE;
 80017ea:	4b0e      	ldr	r3, [pc, #56]	; (8001824 <MX_USART2_UART_Init+0x58>)
 80017ec:	2200      	movs	r2, #0
 80017ee:	611a      	str	r2, [r3, #16]
  huart2.Init.Mode = UART_MODE_TX_RX;
 80017f0:	4b0c      	ldr	r3, [pc, #48]	; (8001824 <MX_USART2_UART_Init+0x58>)
 80017f2:	220c      	movs	r2, #12
 80017f4:	615a      	str	r2, [r3, #20]
  huart2.Init.HwFlowCtl = UART_HWCONTROL_NONE;
 80017f6:	4b0b      	ldr	r3, [pc, #44]	; (8001824 <MX_USART2_UART_Init+0x58>)
 80017f8:	2200      	movs	r2, #0
 80017fa:	619a      	str	r2, [r3, #24]
  huart2.Init.OverSampling = UART_OVERSAMPLING_16;
 80017fc:	4b09      	ldr	r3, [pc, #36]	; (8001824 <MX_USART2_UART_Init+0x58>)
 80017fe:	2200      	movs	r2, #0
 8001800:	61da      	str	r2, [r3, #28]
  huart2.Init.OneBitSampling = UART_ONE_BIT_SAMPLE_DISABLE;
 8001802:	4b08      	ldr	r3, [pc, #32]	; (8001824 <MX_USART2_UART_Init+0x58>)
 8001804:	2200      	movs	r2, #0
 8001806:	621a      	str	r2, [r3, #32]
  huart2.AdvancedInit.AdvFeatureInit = UART_ADVFEATURE_NO_INIT;
 8001808:	4b06      	ldr	r3, [pc, #24]	; (8001824 <MX_USART2_UART_Init+0x58>)
 800180a:	2200      	movs	r2, #0
 800180c:	625a      	str	r2, [r3, #36]	; 0x24
  if (HAL_UART_Init(&huart2) != HAL_OK)
 800180e:	4b05      	ldr	r3, [pc, #20]	; (8001824 <MX_USART2_UART_Init+0x58>)
 8001810:	0018      	movs	r0, r3
 8001812:	f002 fea7 	bl	8004564 <HAL_UART_Init>
 8001816:	1e03      	subs	r3, r0, #0
 8001818:	d001      	beq.n	800181e <MX_USART2_UART_Init+0x52>
  {
    Error_Handler();
 800181a:	f7ff fccb 	bl	80011b4 <Error_Handler>
  }
  /* USER CODE BEGIN USART2_Init 2 */

  /* USER CODE END USART2_Init 2 */

}
 800181e:	46c0      	nop			; (mov r8, r8)
 8001820:	46bd      	mov	sp, r7
 8001822:	bd80      	pop	{r7, pc}
 8001824:	20000304 	.word	0x20000304
 8001828:	40004400 	.word	0x40004400

0800182c <HAL_UART_MspInit>:

void HAL_UART_MspInit(UART_HandleTypeDef* uartHandle)
{
 800182c:	b590      	push	{r4, r7, lr}
 800182e:	b08b      	sub	sp, #44	; 0x2c
 8001830:	af00      	add	r7, sp, #0
 8001832:	6078      	str	r0, [r7, #4]

  GPIO_InitTypeDef GPIO_InitStruct = {0};
 8001834:	2414      	movs	r4, #20
 8001836:	193b      	adds	r3, r7, r4
 8001838:	0018      	movs	r0, r3
 800183a:	2314      	movs	r3, #20
 800183c:	001a      	movs	r2, r3
 800183e:	2100      	movs	r1, #0
 8001840:	f004 f8d3 	bl	80059ea <memset>
  if(uartHandle->Instance==USART1)
 8001844:	687b      	ldr	r3, [r7, #4]
 8001846:	681b      	ldr	r3, [r3, #0]
 8001848:	4a38      	ldr	r2, [pc, #224]	; (800192c <HAL_UART_MspInit+0x100>)
 800184a:	4293      	cmp	r3, r2
 800184c:	d133      	bne.n	80018b6 <HAL_UART_MspInit+0x8a>
  {
  /* USER CODE BEGIN USART1_MspInit 0 */

  /* USER CODE END USART1_MspInit 0 */
    /* USART1 clock enable */
    __HAL_RCC_USART1_CLK_ENABLE();
 800184e:	4b38      	ldr	r3, [pc, #224]	; (8001930 <HAL_UART_MspInit+0x104>)
 8001850:	6b5a      	ldr	r2, [r3, #52]	; 0x34
 8001852:	4b37      	ldr	r3, [pc, #220]	; (8001930 <HAL_UART_MspInit+0x104>)
 8001854:	2180      	movs	r1, #128	; 0x80
 8001856:	01c9      	lsls	r1, r1, #7
 8001858:	430a      	orrs	r2, r1
 800185a:	635a      	str	r2, [r3, #52]	; 0x34

    __HAL_RCC_GPIOA_CLK_ENABLE();
 800185c:	4b34      	ldr	r3, [pc, #208]	; (8001930 <HAL_UART_MspInit+0x104>)
 800185e:	6ada      	ldr	r2, [r3, #44]	; 0x2c
 8001860:	4b33      	ldr	r3, [pc, #204]	; (8001930 <HAL_UART_MspInit+0x104>)
 8001862:	2101      	movs	r1, #1
 8001864:	430a      	orrs	r2, r1
 8001866:	62da      	str	r2, [r3, #44]	; 0x2c
 8001868:	4b31      	ldr	r3, [pc, #196]	; (8001930 <HAL_UART_MspInit+0x104>)
 800186a:	6adb      	ldr	r3, [r3, #44]	; 0x2c
 800186c:	2201      	movs	r2, #1
 800186e:	4013      	ands	r3, r2
 8001870:	613b      	str	r3, [r7, #16]
 8001872:	693b      	ldr	r3, [r7, #16]
    /**USART1 GPIO Configuration
    PA9     ------> USART1_TX
    PA10     ------> USART1_RX
    */
    GPIO_InitStruct.Pin = GPIO_PIN_9|GPIO_PIN_10;
 8001874:	193b      	adds	r3, r7, r4
 8001876:	22c0      	movs	r2, #192	; 0xc0
 8001878:	00d2      	lsls	r2, r2, #3
 800187a:	601a      	str	r2, [r3, #0]
    GPIO_InitStruct.Mode = GPIO_MODE_AF_PP;
 800187c:	0021      	movs	r1, r4
 800187e:	187b      	adds	r3, r7, r1
 8001880:	2202      	movs	r2, #2
 8001882:	605a      	str	r2, [r3, #4]
    GPIO_InitStruct.Pull = GPIO_NOPULL;
 8001884:	187b      	adds	r3, r7, r1
 8001886:	2200      	movs	r2, #0
 8001888:	609a      	str	r2, [r3, #8]
    GPIO_InitStruct.Speed = GPIO_SPEED_FREQ_VERY_HIGH;
 800188a:	187b      	adds	r3, r7, r1
 800188c:	2203      	movs	r2, #3
 800188e:	60da      	str	r2, [r3, #12]
    GPIO_InitStruct.Alternate = GPIO_AF4_USART1;
 8001890:	187b      	adds	r3, r7, r1
 8001892:	2204      	movs	r2, #4
 8001894:	611a      	str	r2, [r3, #16]
    HAL_GPIO_Init(GPIOA, &GPIO_InitStruct);
 8001896:	187a      	adds	r2, r7, r1
 8001898:	23a0      	movs	r3, #160	; 0xa0
 800189a:	05db      	lsls	r3, r3, #23
 800189c:	0011      	movs	r1, r2
 800189e:	0018      	movs	r0, r3
 80018a0:	f000 feae 	bl	8002600 <HAL_GPIO_Init>

    /* USART1 interrupt Init */
    HAL_NVIC_SetPriority(USART1_IRQn, 0, 0);
 80018a4:	2200      	movs	r2, #0
 80018a6:	2100      	movs	r1, #0
 80018a8:	201b      	movs	r0, #27
 80018aa:	f000 fdef 	bl	800248c <HAL_NVIC_SetPriority>
    HAL_NVIC_EnableIRQ(USART1_IRQn);
 80018ae:	201b      	movs	r0, #27
 80018b0:	f000 fe01 	bl	80024b6 <HAL_NVIC_EnableIRQ>
    HAL_NVIC_EnableIRQ(USART2_IRQn);
  /* USER CODE BEGIN USART2_MspInit 1 */

  /* USER CODE END USART2_MspInit 1 */
  }
}
 80018b4:	e036      	b.n	8001924 <HAL_UART_MspInit+0xf8>
  else if(uartHandle->Instance==USART2)
 80018b6:	687b      	ldr	r3, [r7, #4]
 80018b8:	681b      	ldr	r3, [r3, #0]
 80018ba:	4a1e      	ldr	r2, [pc, #120]	; (8001934 <HAL_UART_MspInit+0x108>)
 80018bc:	4293      	cmp	r3, r2
 80018be:	d131      	bne.n	8001924 <HAL_UART_MspInit+0xf8>
    __HAL_RCC_USART2_CLK_ENABLE();
 80018c0:	4b1b      	ldr	r3, [pc, #108]	; (8001930 <HAL_UART_MspInit+0x104>)
 80018c2:	6b9a      	ldr	r2, [r3, #56]	; 0x38
 80018c4:	4b1a      	ldr	r3, [pc, #104]	; (8001930 <HAL_UART_MspInit+0x104>)
 80018c6:	2180      	movs	r1, #128	; 0x80
 80018c8:	0289      	lsls	r1, r1, #10
 80018ca:	430a      	orrs	r2, r1
 80018cc:	639a      	str	r2, [r3, #56]	; 0x38
    __HAL_RCC_GPIOA_CLK_ENABLE();
 80018ce:	4b18      	ldr	r3, [pc, #96]	; (8001930 <HAL_UART_MspInit+0x104>)
 80018d0:	6ada      	ldr	r2, [r3, #44]	; 0x2c
 80018d2:	4b17      	ldr	r3, [pc, #92]	; (8001930 <HAL_UART_MspInit+0x104>)
 80018d4:	2101      	movs	r1, #1
 80018d6:	430a      	orrs	r2, r1
 80018d8:	62da      	str	r2, [r3, #44]	; 0x2c
 80018da:	4b15      	ldr	r3, [pc, #84]	; (8001930 <HAL_UART_MspInit+0x104>)
 80018dc:	6adb      	ldr	r3, [r3, #44]	; 0x2c
 80018de:	2201      	movs	r2, #1
 80018e0:	4013      	ands	r3, r2
 80018e2:	60fb      	str	r3, [r7, #12]
 80018e4:	68fb      	ldr	r3, [r7, #12]
    GPIO_InitStruct.Pin = GPIO_PIN_2|GPIO_PIN_3;
 80018e6:	2114      	movs	r1, #20
 80018e8:	187b      	adds	r3, r7, r1
 80018ea:	220c      	movs	r2, #12
 80018ec:	601a      	str	r2, [r3, #0]
    GPIO_InitStruct.Mode = GPIO_MODE_AF_PP;
 80018ee:	187b      	adds	r3, r7, r1
 80018f0:	2202      	movs	r2, #2
 80018f2:	605a      	str	r2, [r3, #4]
    GPIO_InitStruct.Pull = GPIO_NOPULL;
 80018f4:	187b      	adds	r3, r7, r1
 80018f6:	2200      	movs	r2, #0
 80018f8:	609a      	str	r2, [r3, #8]
    GPIO_InitStruct.Speed = GPIO_SPEED_FREQ_VERY_HIGH;
 80018fa:	187b      	adds	r3, r7, r1
 80018fc:	2203      	movs	r2, #3
 80018fe:	60da      	str	r2, [r3, #12]
    GPIO_InitStruct.Alternate = GPIO_AF4_USART2;
 8001900:	187b      	adds	r3, r7, r1
 8001902:	2204      	movs	r2, #4
 8001904:	611a      	str	r2, [r3, #16]
    HAL_GPIO_Init(GPIOA, &GPIO_InitStruct);
 8001906:	187a      	adds	r2, r7, r1
 8001908:	23a0      	movs	r3, #160	; 0xa0
 800190a:	05db      	lsls	r3, r3, #23
 800190c:	0011      	movs	r1, r2
 800190e:	0018      	movs	r0, r3
 8001910:	f000 fe76 	bl	8002600 <HAL_GPIO_Init>
    HAL_NVIC_SetPriority(USART2_IRQn, 0, 0);
 8001914:	2200      	movs	r2, #0
 8001916:	2100      	movs	r1, #0
 8001918:	201c      	movs	r0, #28
 800191a:	f000 fdb7 	bl	800248c <HAL_NVIC_SetPriority>
    HAL_NVIC_EnableIRQ(USART2_IRQn);
 800191e:	201c      	movs	r0, #28
 8001920:	f000 fdc9 	bl	80024b6 <HAL_NVIC_EnableIRQ>
}
 8001924:	46c0      	nop			; (mov r8, r8)
 8001926:	46bd      	mov	sp, r7
 8001928:	b00b      	add	sp, #44	; 0x2c
 800192a:	bd90      	pop	{r4, r7, pc}
 800192c:	40013800 	.word	0x40013800
 8001930:	40021000 	.word	0x40021000
 8001934:	40004400 	.word	0x40004400

08001938 <Reset_Handler>:

    .section  .text.Reset_Handler
  .weak  Reset_Handler
  .type  Reset_Handler, %function
Reset_Handler:  
   ldr   r0, =_estack
 8001938:	480d      	ldr	r0, [pc, #52]	; (8001970 <LoopForever+0x2>)
   mov   sp, r0          /* set stack pointer */
 800193a:	4685      	mov	sp, r0

/* Copy the data segment initializers from flash to SRAM */
  ldr r0, =_sdata
 800193c:	480d      	ldr	r0, [pc, #52]	; (8001974 <LoopForever+0x6>)
  ldr r1, =_edata
 800193e:	490e      	ldr	r1, [pc, #56]	; (8001978 <LoopForever+0xa>)
  ldr r2, =_sidata
 8001940:	4a0e      	ldr	r2, [pc, #56]	; (800197c <LoopForever+0xe>)
  movs r3, #0
 8001942:	2300      	movs	r3, #0
  b LoopCopyDataInit
 8001944:	e002      	b.n	800194c <LoopCopyDataInit>

08001946 <CopyDataInit>:

CopyDataInit:
  ldr r4, [r2, r3]
 8001946:	58d4      	ldr	r4, [r2, r3]
  str r4, [r0, r3]
 8001948:	50c4      	str	r4, [r0, r3]
  adds r3, r3, #4
 800194a:	3304      	adds	r3, #4

0800194c <LoopCopyDataInit>:

LoopCopyDataInit:
  adds r4, r0, r3
 800194c:	18c4      	adds	r4, r0, r3
  cmp r4, r1
 800194e:	428c      	cmp	r4, r1
  bcc CopyDataInit
 8001950:	d3f9      	bcc.n	8001946 <CopyDataInit>
  
/* Zero fill the bss segment. */
  ldr r2, =_sbss
 8001952:	4a0b      	ldr	r2, [pc, #44]	; (8001980 <LoopForever+0x12>)
  ldr r4, =_ebss
 8001954:	4c0b      	ldr	r4, [pc, #44]	; (8001984 <LoopForever+0x16>)
  movs r3, #0
 8001956:	2300      	movs	r3, #0
  b LoopFillZerobss
 8001958:	e001      	b.n	800195e <LoopFillZerobss>

0800195a <FillZerobss>:

FillZerobss:
  str  r3, [r2]
 800195a:	6013      	str	r3, [r2, #0]
  adds r2, r2, #4
 800195c:	3204      	adds	r2, #4

0800195e <LoopFillZerobss>:

LoopFillZerobss:
  cmp r2, r4
 800195e:	42a2      	cmp	r2, r4
  bcc FillZerobss
 8001960:	d3fb      	bcc.n	800195a <FillZerobss>

/* Call the clock system intitialization function.*/
  bl  SystemInit
 8001962:	f7ff fd0f 	bl	8001384 <SystemInit>
/* Call static constructors */
    bl __libc_init_array
 8001966:	f004 f813 	bl	8005990 <__libc_init_array>
/* Call the application's entry point.*/
  bl  main
 800196a:	f7ff fb1f 	bl	8000fac <main>

0800196e <LoopForever>:

LoopForever:
    b LoopForever
 800196e:	e7fe      	b.n	800196e <LoopForever>
   ldr   r0, =_estack
 8001970:	20005000 	.word	0x20005000
  ldr r0, =_sdata
 8001974:	20000000 	.word	0x20000000
  ldr r1, =_edata
 8001978:	20000090 	.word	0x20000090
  ldr r2, =_sidata
 800197c:	0800676c 	.word	0x0800676c
  ldr r2, =_sbss
 8001980:	20000090 	.word	0x20000090
  ldr r4, =_ebss
 8001984:	2000039c 	.word	0x2000039c

08001988 <ADC1_COMP_IRQHandler>:
 * @retval : None
*/
    .section  .text.Default_Handler,"ax",%progbits
Default_Handler:
Infinite_Loop:
  b  Infinite_Loop
 8001988:	e7fe      	b.n	8001988 <ADC1_COMP_IRQHandler>
	...

0800198c <HAL_Init>:
  *        In the default implementation,Systick is used as source of time base.
  *        the tick variable is incremented each 1ms in its ISR.
  * @retval HAL status
  */
HAL_StatusTypeDef HAL_Init(void)
{
 800198c:	b580      	push	{r7, lr}
 800198e:	b082      	sub	sp, #8
 8001990:	af00      	add	r7, sp, #0
  HAL_StatusTypeDef  status = HAL_OK;
 8001992:	1dfb      	adds	r3, r7, #7
 8001994:	2200      	movs	r2, #0
 8001996:	701a      	strb	r2, [r3, #0]
#if (BUFFER_CACHE_DISABLE != 0)
  __HAL_FLASH_BUFFER_CACHE_DISABLE();
#endif /* BUFFER_CACHE_DISABLE */

#if (PREREAD_ENABLE != 0)
  __HAL_FLASH_PREREAD_BUFFER_ENABLE();
 8001998:	4b0b      	ldr	r3, [pc, #44]	; (80019c8 <HAL_Init+0x3c>)
 800199a:	681a      	ldr	r2, [r3, #0]
 800199c:	4b0a      	ldr	r3, [pc, #40]	; (80019c8 <HAL_Init+0x3c>)
 800199e:	2140      	movs	r1, #64	; 0x40
 80019a0:	430a      	orrs	r2, r1
 80019a2:	601a      	str	r2, [r3, #0]
#if (PREFETCH_ENABLE != 0)
  __HAL_FLASH_PREFETCH_BUFFER_ENABLE();
#endif /* PREFETCH_ENABLE */

  /* Use SysTick as time base source and configure 1ms tick (default clock after Reset is MSI) */
  if (HAL_InitTick(TICK_INT_PRIORITY) != HAL_OK)
 80019a4:	2000      	movs	r0, #0
 80019a6:	f000 f811 	bl	80019cc <HAL_InitTick>
 80019aa:	1e03      	subs	r3, r0, #0
 80019ac:	d003      	beq.n	80019b6 <HAL_Init+0x2a>
  {
    status = HAL_ERROR;
 80019ae:	1dfb      	adds	r3, r7, #7
 80019b0:	2201      	movs	r2, #1
 80019b2:	701a      	strb	r2, [r3, #0]
 80019b4:	e001      	b.n	80019ba <HAL_Init+0x2e>
  }
  else
  {
    /* Init the low level hardware */
    HAL_MspInit();
 80019b6:	f7ff fc19 	bl	80011ec <HAL_MspInit>
  }

  /* Return function status */
  return status;
 80019ba:	1dfb      	adds	r3, r7, #7
 80019bc:	781b      	ldrb	r3, [r3, #0]
}
 80019be:	0018      	movs	r0, r3
 80019c0:	46bd      	mov	sp, r7
 80019c2:	b002      	add	sp, #8
 80019c4:	bd80      	pop	{r7, pc}
 80019c6:	46c0      	nop			; (mov r8, r8)
 80019c8:	40022000 	.word	0x40022000

080019cc <HAL_InitTick>:
  *       implementation  in user file.
  * @param TickPriority Tick interrupt priority.
  * @retval HAL status
  */
__weak HAL_StatusTypeDef HAL_InitTick(uint32_t TickPriority)
{
 80019cc:	b590      	push	{r4, r7, lr}
 80019ce:	b083      	sub	sp, #12
 80019d0:	af00      	add	r7, sp, #0
 80019d2:	6078      	str	r0, [r7, #4]
  /* Configure the SysTick to have interrupt in 1ms time basis*/
  if (HAL_SYSTICK_Config(SystemCoreClock / (1000U / uwTickFreq)) > 0U)
 80019d4:	4b14      	ldr	r3, [pc, #80]	; (8001a28 <HAL_InitTick+0x5c>)
 80019d6:	681c      	ldr	r4, [r3, #0]
 80019d8:	4b14      	ldr	r3, [pc, #80]	; (8001a2c <HAL_InitTick+0x60>)
 80019da:	781b      	ldrb	r3, [r3, #0]
 80019dc:	0019      	movs	r1, r3
 80019de:	23fa      	movs	r3, #250	; 0xfa
 80019e0:	0098      	lsls	r0, r3, #2
 80019e2:	f7fe fba3 	bl	800012c <__udivsi3>
 80019e6:	0003      	movs	r3, r0
 80019e8:	0019      	movs	r1, r3
 80019ea:	0020      	movs	r0, r4
 80019ec:	f7fe fb9e 	bl	800012c <__udivsi3>
 80019f0:	0003      	movs	r3, r0
 80019f2:	0018      	movs	r0, r3
 80019f4:	f000 fd6f 	bl	80024d6 <HAL_SYSTICK_Config>
 80019f8:	1e03      	subs	r3, r0, #0
 80019fa:	d001      	beq.n	8001a00 <HAL_InitTick+0x34>
  {
    return HAL_ERROR;
 80019fc:	2301      	movs	r3, #1
 80019fe:	e00f      	b.n	8001a20 <HAL_InitTick+0x54>
  }

  /* Configure the SysTick IRQ priority */
  if (TickPriority < (1UL << __NVIC_PRIO_BITS))
 8001a00:	687b      	ldr	r3, [r7, #4]
 8001a02:	2b03      	cmp	r3, #3
 8001a04:	d80b      	bhi.n	8001a1e <HAL_InitTick+0x52>
  {
    HAL_NVIC_SetPriority(SysTick_IRQn, TickPriority, 0U);
 8001a06:	6879      	ldr	r1, [r7, #4]
 8001a08:	2301      	movs	r3, #1
 8001a0a:	425b      	negs	r3, r3
 8001a0c:	2200      	movs	r2, #0
 8001a0e:	0018      	movs	r0, r3
 8001a10:	f000 fd3c 	bl	800248c <HAL_NVIC_SetPriority>
    uwTickPrio = TickPriority;
 8001a14:	4b06      	ldr	r3, [pc, #24]	; (8001a30 <HAL_InitTick+0x64>)
 8001a16:	687a      	ldr	r2, [r7, #4]
 8001a18:	601a      	str	r2, [r3, #0]
  {
    return HAL_ERROR;
  }

  /* Return function status */
  return HAL_OK;
 8001a1a:	2300      	movs	r3, #0
 8001a1c:	e000      	b.n	8001a20 <HAL_InitTick+0x54>
    return HAL_ERROR;
 8001a1e:	2301      	movs	r3, #1
}
 8001a20:	0018      	movs	r0, r3
 8001a22:	46bd      	mov	sp, r7
 8001a24:	b003      	add	sp, #12
 8001a26:	bd90      	pop	{r4, r7, pc}
 8001a28:	20000020 	.word	0x20000020
 8001a2c:	20000028 	.word	0x20000028
 8001a30:	20000024 	.word	0x20000024

08001a34 <HAL_IncTick>:
 * @note This function is declared as __weak to be overwritten in case of other
  *      implementations in user file.
  * @retval None
  */
__weak void HAL_IncTick(void)
{
 8001a34:	b580      	push	{r7, lr}
 8001a36:	af00      	add	r7, sp, #0
  uwTick += uwTickFreq;
 8001a38:	4b05      	ldr	r3, [pc, #20]	; (8001a50 <HAL_IncTick+0x1c>)
 8001a3a:	781b      	ldrb	r3, [r3, #0]
 8001a3c:	001a      	movs	r2, r3
 8001a3e:	4b05      	ldr	r3, [pc, #20]	; (8001a54 <HAL_IncTick+0x20>)
 8001a40:	681b      	ldr	r3, [r3, #0]
 8001a42:	18d2      	adds	r2, r2, r3
 8001a44:	4b03      	ldr	r3, [pc, #12]	; (8001a54 <HAL_IncTick+0x20>)
 8001a46:	601a      	str	r2, [r3, #0]
}
 8001a48:	46c0      	nop			; (mov r8, r8)
 8001a4a:	46bd      	mov	sp, r7
 8001a4c:	bd80      	pop	{r7, pc}
 8001a4e:	46c0      	nop			; (mov r8, r8)
 8001a50:	20000028 	.word	0x20000028
 8001a54:	20000388 	.word	0x20000388

08001a58 <HAL_GetTick>:
  * @note This function is declared as __weak to be overwritten in case of other
  *       implementations in user file.
  * @retval tick value
  */
__weak uint32_t HAL_GetTick(void)
{
 8001a58:	b580      	push	{r7, lr}
 8001a5a:	af00      	add	r7, sp, #0
  return uwTick;
 8001a5c:	4b02      	ldr	r3, [pc, #8]	; (8001a68 <HAL_GetTick+0x10>)
 8001a5e:	681b      	ldr	r3, [r3, #0]
}
 8001a60:	0018      	movs	r0, r3
 8001a62:	46bd      	mov	sp, r7
 8001a64:	bd80      	pop	{r7, pc}
 8001a66:	46c0      	nop			; (mov r8, r8)
 8001a68:	20000388 	.word	0x20000388

08001a6c <HAL_Delay>:
  *       implementations in user file.
  * @param Delay specifies the delay time length, in milliseconds.
  * @retval None
  */
__weak void HAL_Delay(uint32_t Delay)
{
 8001a6c:	b580      	push	{r7, lr}
 8001a6e:	b084      	sub	sp, #16
 8001a70:	af00      	add	r7, sp, #0
 8001a72:	6078      	str	r0, [r7, #4]
  uint32_t tickstart = HAL_GetTick();
 8001a74:	f7ff fff0 	bl	8001a58 <HAL_GetTick>
 8001a78:	0003      	movs	r3, r0
 8001a7a:	60bb      	str	r3, [r7, #8]
  uint32_t wait = Delay;
 8001a7c:	687b      	ldr	r3, [r7, #4]
 8001a7e:	60fb      	str	r3, [r7, #12]

  /* Add a freq to guarantee minimum wait */
  if (wait < HAL_MAX_DELAY)
 8001a80:	68fb      	ldr	r3, [r7, #12]
 8001a82:	3301      	adds	r3, #1
 8001a84:	d005      	beq.n	8001a92 <HAL_Delay+0x26>
  {
    wait += (uint32_t)(uwTickFreq);
 8001a86:	4b0a      	ldr	r3, [pc, #40]	; (8001ab0 <HAL_Delay+0x44>)
 8001a88:	781b      	ldrb	r3, [r3, #0]
 8001a8a:	001a      	movs	r2, r3
 8001a8c:	68fb      	ldr	r3, [r7, #12]
 8001a8e:	189b      	adds	r3, r3, r2
 8001a90:	60fb      	str	r3, [r7, #12]
  }

  while((HAL_GetTick() - tickstart) < wait)
 8001a92:	46c0      	nop			; (mov r8, r8)
 8001a94:	f7ff ffe0 	bl	8001a58 <HAL_GetTick>
 8001a98:	0002      	movs	r2, r0
 8001a9a:	68bb      	ldr	r3, [r7, #8]
 8001a9c:	1ad3      	subs	r3, r2, r3
 8001a9e:	68fa      	ldr	r2, [r7, #12]
 8001aa0:	429a      	cmp	r2, r3
 8001aa2:	d8f7      	bhi.n	8001a94 <HAL_Delay+0x28>
  {
  }
}
 8001aa4:	46c0      	nop			; (mov r8, r8)
 8001aa6:	46c0      	nop			; (mov r8, r8)
 8001aa8:	46bd      	mov	sp, r7
 8001aaa:	b004      	add	sp, #16
 8001aac:	bd80      	pop	{r7, pc}
 8001aae:	46c0      	nop			; (mov r8, r8)
 8001ab0:	20000028 	.word	0x20000028

08001ab4 <HAL_ADC_Init>:
  *         function "HAL_ADCEx_EnableVREFINTTempSensor()" must be called similarilly.  
  * @param  hadc ADC handle
  * @retval HAL status
  */
HAL_StatusTypeDef HAL_ADC_Init(ADC_HandleTypeDef* hadc)
{
 8001ab4:	b580      	push	{r7, lr}
 8001ab6:	b082      	sub	sp, #8
 8001ab8:	af00      	add	r7, sp, #0
 8001aba:	6078      	str	r0, [r7, #4]
 
  /* Check ADC handle */
  if(hadc == NULL)
 8001abc:	687b      	ldr	r3, [r7, #4]
 8001abe:	2b00      	cmp	r3, #0
 8001ac0:	d101      	bne.n	8001ac6 <HAL_ADC_Init+0x12>
  {
    return HAL_ERROR;
 8001ac2:	2301      	movs	r3, #1
 8001ac4:	e159      	b.n	8001d7a <HAL_ADC_Init+0x2c6>
  /* Refer to header of this file for more details on clock enabling procedure*/
  
  /* Actions performed only if ADC is coming from state reset:                */
  /* - Initialization of ADC MSP                                              */
  /* - ADC voltage regulator enable                                           */
  if(hadc->State == HAL_ADC_STATE_RESET)
 8001ac6:	687b      	ldr	r3, [r7, #4]
 8001ac8:	6d5b      	ldr	r3, [r3, #84]	; 0x54
 8001aca:	2b00      	cmp	r3, #0
 8001acc:	d10a      	bne.n	8001ae4 <HAL_ADC_Init+0x30>
  {
    /* Initialize ADC error code */
    ADC_CLEAR_ERRORCODE(hadc);
 8001ace:	687b      	ldr	r3, [r7, #4]
 8001ad0:	2200      	movs	r2, #0
 8001ad2:	659a      	str	r2, [r3, #88]	; 0x58
    
    /* Allocate lock resource and initialize it */
    hadc->Lock = HAL_UNLOCKED;
 8001ad4:	687b      	ldr	r3, [r7, #4]
 8001ad6:	2250      	movs	r2, #80	; 0x50
 8001ad8:	2100      	movs	r1, #0
 8001ada:	5499      	strb	r1, [r3, r2]
    
    /* Init the low level hardware */
    hadc->MspInitCallback(hadc);
#else
    /* Init the low level hardware */
    HAL_ADC_MspInit(hadc);
 8001adc:	687b      	ldr	r3, [r7, #4]
 8001ade:	0018      	movs	r0, r3
 8001ae0:	f7fe fffe 	bl	8000ae0 <HAL_ADC_MspInit>
  /* Configuration of ADC parameters if previous preliminary actions are      */ 
  /* correctly completed.                                                     */
  /* and if there is no conversion on going on regular group (ADC can be      */
  /* enabled anyway, in case of call of this function to update a parameter   */
  /* on the fly).                                                             */
  if (HAL_IS_BIT_SET(hadc->State, HAL_ADC_STATE_ERROR_INTERNAL) ||
 8001ae4:	687b      	ldr	r3, [r7, #4]
 8001ae6:	6d5b      	ldr	r3, [r3, #84]	; 0x54
 8001ae8:	2210      	movs	r2, #16
 8001aea:	4013      	ands	r3, r2
 8001aec:	2b10      	cmp	r3, #16
 8001aee:	d005      	beq.n	8001afc <HAL_ADC_Init+0x48>
     (ADC_IS_CONVERSION_ONGOING_REGULAR(hadc) != RESET)  )
 8001af0:	687b      	ldr	r3, [r7, #4]
 8001af2:	681b      	ldr	r3, [r3, #0]
 8001af4:	689b      	ldr	r3, [r3, #8]
 8001af6:	2204      	movs	r2, #4
 8001af8:	4013      	ands	r3, r2
  if (HAL_IS_BIT_SET(hadc->State, HAL_ADC_STATE_ERROR_INTERNAL) ||
 8001afa:	d00b      	beq.n	8001b14 <HAL_ADC_Init+0x60>
  {
    /* Update ADC state machine to error */
    SET_BIT(hadc->State, HAL_ADC_STATE_ERROR_INTERNAL);
 8001afc:	687b      	ldr	r3, [r7, #4]
 8001afe:	6d5b      	ldr	r3, [r3, #84]	; 0x54
 8001b00:	2210      	movs	r2, #16
 8001b02:	431a      	orrs	r2, r3
 8001b04:	687b      	ldr	r3, [r7, #4]
 8001b06:	655a      	str	r2, [r3, #84]	; 0x54
        
    /* Process unlocked */
    __HAL_UNLOCK(hadc);
 8001b08:	687b      	ldr	r3, [r7, #4]
 8001b0a:	2250      	movs	r2, #80	; 0x50
 8001b0c:	2100      	movs	r1, #0
 8001b0e:	5499      	strb	r1, [r3, r2]
    return HAL_ERROR;
 8001b10:	2301      	movs	r3, #1
 8001b12:	e132      	b.n	8001d7a <HAL_ADC_Init+0x2c6>
  }

  /* Set ADC state */
  ADC_STATE_CLR_SET(hadc->State,
 8001b14:	687b      	ldr	r3, [r7, #4]
 8001b16:	6d5b      	ldr	r3, [r3, #84]	; 0x54
 8001b18:	4a9a      	ldr	r2, [pc, #616]	; (8001d84 <HAL_ADC_Init+0x2d0>)
 8001b1a:	4013      	ands	r3, r2
 8001b1c:	2202      	movs	r2, #2
 8001b1e:	431a      	orrs	r2, r3
 8001b20:	687b      	ldr	r3, [r7, #4]
 8001b22:	655a      	str	r2, [r3, #84]	; 0x54
  /* Parameters update conditioned to ADC state:                            */
  /* Parameters that can be updated only when ADC is disabled:              */
  /*  - ADC clock mode                                                      */
  /*  - ADC clock prescaler                                                 */
  /*  - ADC Resolution                                                      */
  if (ADC_IS_ENABLE(hadc) == RESET)
 8001b24:	687b      	ldr	r3, [r7, #4]
 8001b26:	681b      	ldr	r3, [r3, #0]
 8001b28:	689b      	ldr	r3, [r3, #8]
 8001b2a:	2203      	movs	r2, #3
 8001b2c:	4013      	ands	r3, r2
 8001b2e:	2b01      	cmp	r3, #1
 8001b30:	d108      	bne.n	8001b44 <HAL_ADC_Init+0x90>
 8001b32:	687b      	ldr	r3, [r7, #4]
 8001b34:	681b      	ldr	r3, [r3, #0]
 8001b36:	681b      	ldr	r3, [r3, #0]
 8001b38:	2201      	movs	r2, #1
 8001b3a:	4013      	ands	r3, r2
 8001b3c:	2b01      	cmp	r3, #1
 8001b3e:	d101      	bne.n	8001b44 <HAL_ADC_Init+0x90>
 8001b40:	2301      	movs	r3, #1
 8001b42:	e000      	b.n	8001b46 <HAL_ADC_Init+0x92>
 8001b44:	2300      	movs	r3, #0
 8001b46:	2b00      	cmp	r3, #0
 8001b48:	d149      	bne.n	8001bde <HAL_ADC_Init+0x12a>
    /*   - internal measurement paths: Vbat, temperature sensor, Vref       */
    /*     (set into HAL_ADC_ConfigChannel() )                              */
   
    /* Configuration of ADC clock: clock source PCLK or asynchronous with 
    selectable prescaler */
    __HAL_ADC_CLOCK_PRESCALER(hadc);
 8001b4a:	687b      	ldr	r3, [r7, #4]
 8001b4c:	685a      	ldr	r2, [r3, #4]
 8001b4e:	23c0      	movs	r3, #192	; 0xc0
 8001b50:	061b      	lsls	r3, r3, #24
 8001b52:	429a      	cmp	r2, r3
 8001b54:	d00b      	beq.n	8001b6e <HAL_ADC_Init+0xba>
 8001b56:	687b      	ldr	r3, [r7, #4]
 8001b58:	685a      	ldr	r2, [r3, #4]
 8001b5a:	2380      	movs	r3, #128	; 0x80
 8001b5c:	05db      	lsls	r3, r3, #23
 8001b5e:	429a      	cmp	r2, r3
 8001b60:	d005      	beq.n	8001b6e <HAL_ADC_Init+0xba>
 8001b62:	687b      	ldr	r3, [r7, #4]
 8001b64:	685a      	ldr	r2, [r3, #4]
 8001b66:	2380      	movs	r3, #128	; 0x80
 8001b68:	061b      	lsls	r3, r3, #24
 8001b6a:	429a      	cmp	r2, r3
 8001b6c:	d111      	bne.n	8001b92 <HAL_ADC_Init+0xde>
 8001b6e:	687b      	ldr	r3, [r7, #4]
 8001b70:	681b      	ldr	r3, [r3, #0]
 8001b72:	691a      	ldr	r2, [r3, #16]
 8001b74:	687b      	ldr	r3, [r7, #4]
 8001b76:	681b      	ldr	r3, [r3, #0]
 8001b78:	0092      	lsls	r2, r2, #2
 8001b7a:	0892      	lsrs	r2, r2, #2
 8001b7c:	611a      	str	r2, [r3, #16]
 8001b7e:	687b      	ldr	r3, [r7, #4]
 8001b80:	681b      	ldr	r3, [r3, #0]
 8001b82:	6919      	ldr	r1, [r3, #16]
 8001b84:	687b      	ldr	r3, [r7, #4]
 8001b86:	685a      	ldr	r2, [r3, #4]
 8001b88:	687b      	ldr	r3, [r7, #4]
 8001b8a:	681b      	ldr	r3, [r3, #0]
 8001b8c:	430a      	orrs	r2, r1
 8001b8e:	611a      	str	r2, [r3, #16]
 8001b90:	e014      	b.n	8001bbc <HAL_ADC_Init+0x108>
 8001b92:	687b      	ldr	r3, [r7, #4]
 8001b94:	681b      	ldr	r3, [r3, #0]
 8001b96:	691a      	ldr	r2, [r3, #16]
 8001b98:	687b      	ldr	r3, [r7, #4]
 8001b9a:	681b      	ldr	r3, [r3, #0]
 8001b9c:	0092      	lsls	r2, r2, #2
 8001b9e:	0892      	lsrs	r2, r2, #2
 8001ba0:	611a      	str	r2, [r3, #16]
 8001ba2:	4b79      	ldr	r3, [pc, #484]	; (8001d88 <HAL_ADC_Init+0x2d4>)
 8001ba4:	681a      	ldr	r2, [r3, #0]
 8001ba6:	4b78      	ldr	r3, [pc, #480]	; (8001d88 <HAL_ADC_Init+0x2d4>)
 8001ba8:	4978      	ldr	r1, [pc, #480]	; (8001d8c <HAL_ADC_Init+0x2d8>)
 8001baa:	400a      	ands	r2, r1
 8001bac:	601a      	str	r2, [r3, #0]
 8001bae:	4b76      	ldr	r3, [pc, #472]	; (8001d88 <HAL_ADC_Init+0x2d4>)
 8001bb0:	6819      	ldr	r1, [r3, #0]
 8001bb2:	687b      	ldr	r3, [r7, #4]
 8001bb4:	685a      	ldr	r2, [r3, #4]
 8001bb6:	4b74      	ldr	r3, [pc, #464]	; (8001d88 <HAL_ADC_Init+0x2d4>)
 8001bb8:	430a      	orrs	r2, r1
 8001bba:	601a      	str	r2, [r3, #0]
    
    /* Configuration of ADC:                                                */
    /*  - Resolution                                                        */
    hadc->Instance->CFGR1 &= ~( ADC_CFGR1_RES);
 8001bbc:	687b      	ldr	r3, [r7, #4]
 8001bbe:	681b      	ldr	r3, [r3, #0]
 8001bc0:	68da      	ldr	r2, [r3, #12]
 8001bc2:	687b      	ldr	r3, [r7, #4]
 8001bc4:	681b      	ldr	r3, [r3, #0]
 8001bc6:	2118      	movs	r1, #24
 8001bc8:	438a      	bics	r2, r1
 8001bca:	60da      	str	r2, [r3, #12]
    hadc->Instance->CFGR1 |= hadc->Init.Resolution;    
 8001bcc:	687b      	ldr	r3, [r7, #4]
 8001bce:	681b      	ldr	r3, [r3, #0]
 8001bd0:	68d9      	ldr	r1, [r3, #12]
 8001bd2:	687b      	ldr	r3, [r7, #4]
 8001bd4:	689a      	ldr	r2, [r3, #8]
 8001bd6:	687b      	ldr	r3, [r7, #4]
 8001bd8:	681b      	ldr	r3, [r3, #0]
 8001bda:	430a      	orrs	r2, r1
 8001bdc:	60da      	str	r2, [r3, #12]
  }
  
  /* Set the Low Frequency mode */
  ADC->CCR &= (uint32_t)~ADC_CCR_LFMEN;
 8001bde:	4b6a      	ldr	r3, [pc, #424]	; (8001d88 <HAL_ADC_Init+0x2d4>)
 8001be0:	681a      	ldr	r2, [r3, #0]
 8001be2:	4b69      	ldr	r3, [pc, #420]	; (8001d88 <HAL_ADC_Init+0x2d4>)
 8001be4:	496a      	ldr	r1, [pc, #424]	; (8001d90 <HAL_ADC_Init+0x2dc>)
 8001be6:	400a      	ands	r2, r1
 8001be8:	601a      	str	r2, [r3, #0]
  ADC->CCR |=__HAL_ADC_CCR_LOWFREQUENCY(hadc->Init.LowPowerFrequencyMode);  
 8001bea:	4b67      	ldr	r3, [pc, #412]	; (8001d88 <HAL_ADC_Init+0x2d4>)
 8001bec:	6819      	ldr	r1, [r3, #0]
 8001bee:	687b      	ldr	r3, [r7, #4]
 8001bf0:	6b5b      	ldr	r3, [r3, #52]	; 0x34
 8001bf2:	065a      	lsls	r2, r3, #25
 8001bf4:	4b64      	ldr	r3, [pc, #400]	; (8001d88 <HAL_ADC_Init+0x2d4>)
 8001bf6:	430a      	orrs	r2, r1
 8001bf8:	601a      	str	r2, [r3, #0]
   
  /* Enable voltage regulator (if disabled at this step) */
  if (HAL_IS_BIT_CLR(hadc->Instance->CR, ADC_CR_ADVREGEN))
 8001bfa:	687b      	ldr	r3, [r7, #4]
 8001bfc:	681b      	ldr	r3, [r3, #0]
 8001bfe:	689a      	ldr	r2, [r3, #8]
 8001c00:	2380      	movs	r3, #128	; 0x80
 8001c02:	055b      	lsls	r3, r3, #21
 8001c04:	4013      	ands	r3, r2
 8001c06:	d108      	bne.n	8001c1a <HAL_ADC_Init+0x166>
  {
    /* Set ADVREGEN bit */
    hadc->Instance->CR |= ADC_CR_ADVREGEN;
 8001c08:	687b      	ldr	r3, [r7, #4]
 8001c0a:	681b      	ldr	r3, [r3, #0]
 8001c0c:	689a      	ldr	r2, [r3, #8]
 8001c0e:	687b      	ldr	r3, [r7, #4]
 8001c10:	681b      	ldr	r3, [r3, #0]
 8001c12:	2180      	movs	r1, #128	; 0x80
 8001c14:	0549      	lsls	r1, r1, #21
 8001c16:	430a      	orrs	r2, r1
 8001c18:	609a      	str	r2, [r3, #8]
  /*  - Continuous conversion mode                                            */
  /*  - DMA continuous request                                                */
  /*  - Overrun                                                               */
  /*  - AutoDelay feature                                                     */
  /*  - Discontinuous mode                                                    */
  hadc->Instance->CFGR1 &= ~(ADC_CFGR1_ALIGN   |
 8001c1a:	687b      	ldr	r3, [r7, #4]
 8001c1c:	681b      	ldr	r3, [r3, #0]
 8001c1e:	68da      	ldr	r2, [r3, #12]
 8001c20:	687b      	ldr	r3, [r7, #4]
 8001c22:	681b      	ldr	r3, [r3, #0]
 8001c24:	495b      	ldr	r1, [pc, #364]	; (8001d94 <HAL_ADC_Init+0x2e0>)
 8001c26:	400a      	ands	r2, r1
 8001c28:	60da      	str	r2, [r3, #12]
                             ADC_CFGR1_OVRMOD  |
                             ADC_CFGR1_AUTDLY  |
                             ADC_CFGR1_AUTOFF  |
                             ADC_CFGR1_DISCEN   );
  
  hadc->Instance->CFGR1 |= (hadc->Init.DataAlign                             |
 8001c2a:	687b      	ldr	r3, [r7, #4]
 8001c2c:	681b      	ldr	r3, [r3, #0]
 8001c2e:	68d9      	ldr	r1, [r3, #12]
 8001c30:	687b      	ldr	r3, [r7, #4]
 8001c32:	68da      	ldr	r2, [r3, #12]
                            ADC_SCANDIR(hadc->Init.ScanConvMode)             |
 8001c34:	687b      	ldr	r3, [r7, #4]
 8001c36:	691b      	ldr	r3, [r3, #16]
 8001c38:	2b02      	cmp	r3, #2
 8001c3a:	d101      	bne.n	8001c40 <HAL_ADC_Init+0x18c>
 8001c3c:	2304      	movs	r3, #4
 8001c3e:	e000      	b.n	8001c42 <HAL_ADC_Init+0x18e>
 8001c40:	2300      	movs	r3, #0
  hadc->Instance->CFGR1 |= (hadc->Init.DataAlign                             |
 8001c42:	431a      	orrs	r2, r3
                            ADC_CONTINUOUS((uint32_t)hadc->Init.ContinuousConvMode)    |
 8001c44:	687b      	ldr	r3, [r7, #4]
 8001c46:	2020      	movs	r0, #32
 8001c48:	5c1b      	ldrb	r3, [r3, r0]
 8001c4a:	035b      	lsls	r3, r3, #13
                            ADC_SCANDIR(hadc->Init.ScanConvMode)             |
 8001c4c:	431a      	orrs	r2, r3
                            ADC_DMACONTREQ((uint32_t)hadc->Init.DMAContinuousRequests) |
 8001c4e:	687b      	ldr	r3, [r7, #4]
 8001c50:	202c      	movs	r0, #44	; 0x2c
 8001c52:	5c1b      	ldrb	r3, [r3, r0]
 8001c54:	005b      	lsls	r3, r3, #1
                            ADC_CONTINUOUS((uint32_t)hadc->Init.ContinuousConvMode)    |
 8001c56:	431a      	orrs	r2, r3
                            hadc->Init.Overrun                               |
 8001c58:	687b      	ldr	r3, [r7, #4]
 8001c5a:	6b1b      	ldr	r3, [r3, #48]	; 0x30
                            ADC_DMACONTREQ((uint32_t)hadc->Init.DMAContinuousRequests) |
 8001c5c:	431a      	orrs	r2, r3
                            __HAL_ADC_CFGR1_AutoDelay(hadc->Init.LowPowerAutoWait) |
 8001c5e:	687b      	ldr	r3, [r7, #4]
 8001c60:	699b      	ldr	r3, [r3, #24]
 8001c62:	039b      	lsls	r3, r3, #14
                            hadc->Init.Overrun                               |
 8001c64:	431a      	orrs	r2, r3
                            __HAL_ADC_CFGR1_AUTOFF(hadc->Init.LowPowerAutoPowerOff));
 8001c66:	687b      	ldr	r3, [r7, #4]
 8001c68:	69db      	ldr	r3, [r3, #28]
 8001c6a:	03db      	lsls	r3, r3, #15
                            __HAL_ADC_CFGR1_AutoDelay(hadc->Init.LowPowerAutoWait) |
 8001c6c:	431a      	orrs	r2, r3
  hadc->Instance->CFGR1 |= (hadc->Init.DataAlign                             |
 8001c6e:	687b      	ldr	r3, [r7, #4]
 8001c70:	681b      	ldr	r3, [r3, #0]
 8001c72:	430a      	orrs	r2, r1
 8001c74:	60da      	str	r2, [r3, #12]
  /* Enable external trigger if trigger selection is different of software  */
  /* start.                                                                 */
  /* Note: This configuration keeps the hardware feature of parameter       */
  /*       ExternalTrigConvEdge "trigger edge none" equivalent to           */
  /*       software start.                                                  */
  if (hadc->Init.ExternalTrigConv != ADC_SOFTWARE_START)
 8001c76:	687b      	ldr	r3, [r7, #4]
 8001c78:	6a5a      	ldr	r2, [r3, #36]	; 0x24
 8001c7a:	23c2      	movs	r3, #194	; 0xc2
 8001c7c:	33ff      	adds	r3, #255	; 0xff
 8001c7e:	429a      	cmp	r2, r3
 8001c80:	d00b      	beq.n	8001c9a <HAL_ADC_Init+0x1e6>
  {
    hadc->Instance->CFGR1 |= hadc->Init.ExternalTrigConv |
 8001c82:	687b      	ldr	r3, [r7, #4]
 8001c84:	681b      	ldr	r3, [r3, #0]
 8001c86:	68d9      	ldr	r1, [r3, #12]
 8001c88:	687b      	ldr	r3, [r7, #4]
 8001c8a:	6a5a      	ldr	r2, [r3, #36]	; 0x24
                             hadc->Init.ExternalTrigConvEdge;
 8001c8c:	687b      	ldr	r3, [r7, #4]
 8001c8e:	6a9b      	ldr	r3, [r3, #40]	; 0x28
    hadc->Instance->CFGR1 |= hadc->Init.ExternalTrigConv |
 8001c90:	431a      	orrs	r2, r3
 8001c92:	687b      	ldr	r3, [r7, #4]
 8001c94:	681b      	ldr	r3, [r3, #0]
 8001c96:	430a      	orrs	r2, r1
 8001c98:	60da      	str	r2, [r3, #12]
  }
  
  /* Enable discontinuous mode only if continuous mode is disabled */
  if (hadc->Init.DiscontinuousConvMode == ENABLE)
 8001c9a:	687b      	ldr	r3, [r7, #4]
 8001c9c:	2221      	movs	r2, #33	; 0x21
 8001c9e:	5c9b      	ldrb	r3, [r3, r2]
 8001ca0:	2b01      	cmp	r3, #1
 8001ca2:	d11a      	bne.n	8001cda <HAL_ADC_Init+0x226>
  {
    if (hadc->Init.ContinuousConvMode == DISABLE)
 8001ca4:	687b      	ldr	r3, [r7, #4]
 8001ca6:	2220      	movs	r2, #32
 8001ca8:	5c9b      	ldrb	r3, [r3, r2]
 8001caa:	2b00      	cmp	r3, #0
 8001cac:	d109      	bne.n	8001cc2 <HAL_ADC_Init+0x20e>
    {
      /* Enable the selected ADC group regular discontinuous mode */
      hadc->Instance->CFGR1 |= (ADC_CFGR1_DISCEN);
 8001cae:	687b      	ldr	r3, [r7, #4]
 8001cb0:	681b      	ldr	r3, [r3, #0]
 8001cb2:	68da      	ldr	r2, [r3, #12]
 8001cb4:	687b      	ldr	r3, [r7, #4]
 8001cb6:	681b      	ldr	r3, [r3, #0]
 8001cb8:	2180      	movs	r1, #128	; 0x80
 8001cba:	0249      	lsls	r1, r1, #9
 8001cbc:	430a      	orrs	r2, r1
 8001cbe:	60da      	str	r2, [r3, #12]
 8001cc0:	e00b      	b.n	8001cda <HAL_ADC_Init+0x226>
      /* ADC regular group discontinuous was intended to be enabled,        */
      /* but ADC regular group modes continuous and sequencer discontinuous */
      /* cannot be enabled simultaneously.                                  */
      
      /* Update ADC state machine to error */
      SET_BIT(hadc->State, HAL_ADC_STATE_ERROR_CONFIG);
 8001cc2:	687b      	ldr	r3, [r7, #4]
 8001cc4:	6d5b      	ldr	r3, [r3, #84]	; 0x54
 8001cc6:	2220      	movs	r2, #32
 8001cc8:	431a      	orrs	r2, r3
 8001cca:	687b      	ldr	r3, [r7, #4]
 8001ccc:	655a      	str	r2, [r3, #84]	; 0x54
      
      /* Set ADC error code to ADC peripheral internal error */
      SET_BIT(hadc->ErrorCode, HAL_ADC_ERROR_INTERNAL);
 8001cce:	687b      	ldr	r3, [r7, #4]
 8001cd0:	6d9b      	ldr	r3, [r3, #88]	; 0x58
 8001cd2:	2201      	movs	r2, #1
 8001cd4:	431a      	orrs	r2, r3
 8001cd6:	687b      	ldr	r3, [r7, #4]
 8001cd8:	659a      	str	r2, [r3, #88]	; 0x58
    }
  }
  
  if (hadc->Init.OversamplingMode == ENABLE)
 8001cda:	687b      	ldr	r3, [r7, #4]
 8001cdc:	6bdb      	ldr	r3, [r3, #60]	; 0x3c
 8001cde:	2b01      	cmp	r3, #1
 8001ce0:	d11f      	bne.n	8001d22 <HAL_ADC_Init+0x26e>
    /* Configuration of Oversampler:                                          */
    /*  - Oversampling Ratio                                                  */
    /*  - Right bit shift                                                     */
    /*  - Triggered mode                                                      */
    
    hadc->Instance->CFGR2 &= ~( ADC_CFGR2_OVSR |
 8001ce2:	687b      	ldr	r3, [r7, #4]
 8001ce4:	681b      	ldr	r3, [r3, #0]
 8001ce6:	691a      	ldr	r2, [r3, #16]
 8001ce8:	687b      	ldr	r3, [r7, #4]
 8001cea:	681b      	ldr	r3, [r3, #0]
 8001cec:	492a      	ldr	r1, [pc, #168]	; (8001d98 <HAL_ADC_Init+0x2e4>)
 8001cee:	400a      	ands	r2, r1
 8001cf0:	611a      	str	r2, [r3, #16]
                                ADC_CFGR2_OVSS |
                                ADC_CFGR2_TOVS );
    
    hadc->Instance->CFGR2 |= ( hadc->Init.Oversample.Ratio         |
 8001cf2:	687b      	ldr	r3, [r7, #4]
 8001cf4:	681b      	ldr	r3, [r3, #0]
 8001cf6:	6919      	ldr	r1, [r3, #16]
 8001cf8:	687b      	ldr	r3, [r7, #4]
 8001cfa:	6c1a      	ldr	r2, [r3, #64]	; 0x40
                               hadc->Init.Oversample.RightBitShift             |
 8001cfc:	687b      	ldr	r3, [r7, #4]
 8001cfe:	6c5b      	ldr	r3, [r3, #68]	; 0x44
    hadc->Instance->CFGR2 |= ( hadc->Init.Oversample.Ratio         |
 8001d00:	431a      	orrs	r2, r3
                               hadc->Init.Oversample.TriggeredMode );
 8001d02:	687b      	ldr	r3, [r7, #4]
 8001d04:	6c9b      	ldr	r3, [r3, #72]	; 0x48
                               hadc->Init.Oversample.RightBitShift             |
 8001d06:	431a      	orrs	r2, r3
    hadc->Instance->CFGR2 |= ( hadc->Init.Oversample.Ratio         |
 8001d08:	687b      	ldr	r3, [r7, #4]
 8001d0a:	681b      	ldr	r3, [r3, #0]
 8001d0c:	430a      	orrs	r2, r1
 8001d0e:	611a      	str	r2, [r3, #16]
    
    /* Enable OverSampling mode */
     hadc->Instance->CFGR2 |= ADC_CFGR2_OVSE;
 8001d10:	687b      	ldr	r3, [r7, #4]
 8001d12:	681b      	ldr	r3, [r3, #0]
 8001d14:	691a      	ldr	r2, [r3, #16]
 8001d16:	687b      	ldr	r3, [r7, #4]
 8001d18:	681b      	ldr	r3, [r3, #0]
 8001d1a:	2101      	movs	r1, #1
 8001d1c:	430a      	orrs	r2, r1
 8001d1e:	611a      	str	r2, [r3, #16]
 8001d20:	e00e      	b.n	8001d40 <HAL_ADC_Init+0x28c>
  }
  else
  {
    if(HAL_IS_BIT_SET(hadc->Instance->CFGR2, ADC_CFGR2_OVSE))
 8001d22:	687b      	ldr	r3, [r7, #4]
 8001d24:	681b      	ldr	r3, [r3, #0]
 8001d26:	691b      	ldr	r3, [r3, #16]
 8001d28:	2201      	movs	r2, #1
 8001d2a:	4013      	ands	r3, r2
 8001d2c:	2b01      	cmp	r3, #1
 8001d2e:	d107      	bne.n	8001d40 <HAL_ADC_Init+0x28c>
    {
      /* Disable OverSampling mode if needed */
      hadc->Instance->CFGR2 &= ~ADC_CFGR2_OVSE;
 8001d30:	687b      	ldr	r3, [r7, #4]
 8001d32:	681b      	ldr	r3, [r3, #0]
 8001d34:	691a      	ldr	r2, [r3, #16]
 8001d36:	687b      	ldr	r3, [r7, #4]
 8001d38:	681b      	ldr	r3, [r3, #0]
 8001d3a:	2101      	movs	r1, #1
 8001d3c:	438a      	bics	r2, r1
 8001d3e:	611a      	str	r2, [r3, #16]
    }
  }    
  
  /* Clear the old sampling time */
  hadc->Instance->SMPR &= (uint32_t)(~ADC_SMPR_SMPR);
 8001d40:	687b      	ldr	r3, [r7, #4]
 8001d42:	681b      	ldr	r3, [r3, #0]
 8001d44:	695a      	ldr	r2, [r3, #20]
 8001d46:	687b      	ldr	r3, [r7, #4]
 8001d48:	681b      	ldr	r3, [r3, #0]
 8001d4a:	2107      	movs	r1, #7
 8001d4c:	438a      	bics	r2, r1
 8001d4e:	615a      	str	r2, [r3, #20]
  
  /* Set the new sample time */
  hadc->Instance->SMPR |= hadc->Init.SamplingTime;
 8001d50:	687b      	ldr	r3, [r7, #4]
 8001d52:	681b      	ldr	r3, [r3, #0]
 8001d54:	6959      	ldr	r1, [r3, #20]
 8001d56:	687b      	ldr	r3, [r7, #4]
 8001d58:	6b9a      	ldr	r2, [r3, #56]	; 0x38
 8001d5a:	687b      	ldr	r3, [r7, #4]
 8001d5c:	681b      	ldr	r3, [r3, #0]
 8001d5e:	430a      	orrs	r2, r1
 8001d60:	615a      	str	r2, [r3, #20]
  
  /* Clear ADC error code */
  ADC_CLEAR_ERRORCODE(hadc);
 8001d62:	687b      	ldr	r3, [r7, #4]
 8001d64:	2200      	movs	r2, #0
 8001d66:	659a      	str	r2, [r3, #88]	; 0x58

  /* Set the ADC state */
  ADC_STATE_CLR_SET(hadc->State,
 8001d68:	687b      	ldr	r3, [r7, #4]
 8001d6a:	6d5b      	ldr	r3, [r3, #84]	; 0x54
 8001d6c:	2203      	movs	r2, #3
 8001d6e:	4393      	bics	r3, r2
 8001d70:	2201      	movs	r2, #1
 8001d72:	431a      	orrs	r2, r3
 8001d74:	687b      	ldr	r3, [r7, #4]
 8001d76:	655a      	str	r2, [r3, #84]	; 0x54
                    HAL_ADC_STATE_BUSY_INTERNAL,
                    HAL_ADC_STATE_READY);


  /* Return function status */
  return HAL_OK;
 8001d78:	2300      	movs	r3, #0
}
 8001d7a:	0018      	movs	r0, r3
 8001d7c:	46bd      	mov	sp, r7
 8001d7e:	b002      	add	sp, #8
 8001d80:	bd80      	pop	{r7, pc}
 8001d82:	46c0      	nop			; (mov r8, r8)
 8001d84:	fffffefd 	.word	0xfffffefd
 8001d88:	40012708 	.word	0x40012708
 8001d8c:	ffc3ffff 	.word	0xffc3ffff
 8001d90:	fdffffff 	.word	0xfdffffff
 8001d94:	fffe0219 	.word	0xfffe0219
 8001d98:	fffffc03 	.word	0xfffffc03

08001d9c <HAL_ADC_Start>:
  * @note   Interruptions enabled in this function: None.
  * @param  hadc ADC handle
  * @retval HAL status
  */
HAL_StatusTypeDef HAL_ADC_Start(ADC_HandleTypeDef* hadc)
{
 8001d9c:	b590      	push	{r4, r7, lr}
 8001d9e:	b085      	sub	sp, #20
 8001da0:	af00      	add	r7, sp, #0
 8001da2:	6078      	str	r0, [r7, #4]
  HAL_StatusTypeDef tmp_hal_status = HAL_OK;
 8001da4:	230f      	movs	r3, #15
 8001da6:	18fb      	adds	r3, r7, r3
 8001da8:	2200      	movs	r2, #0
 8001daa:	701a      	strb	r2, [r3, #0]
  
  /* Check the parameters */
  assert_param(IS_ADC_ALL_INSTANCE(hadc->Instance));
  
  /* Perform ADC enable and conversion start if no conversion is on going */
  if (ADC_IS_CONVERSION_ONGOING_REGULAR(hadc) == RESET)
 8001dac:	687b      	ldr	r3, [r7, #4]
 8001dae:	681b      	ldr	r3, [r3, #0]
 8001db0:	689b      	ldr	r3, [r3, #8]
 8001db2:	2204      	movs	r2, #4
 8001db4:	4013      	ands	r3, r2
 8001db6:	d138      	bne.n	8001e2a <HAL_ADC_Start+0x8e>
  {
    /* Process locked */
    __HAL_LOCK(hadc);
 8001db8:	687b      	ldr	r3, [r7, #4]
 8001dba:	2250      	movs	r2, #80	; 0x50
 8001dbc:	5c9b      	ldrb	r3, [r3, r2]
 8001dbe:	2b01      	cmp	r3, #1
 8001dc0:	d101      	bne.n	8001dc6 <HAL_ADC_Start+0x2a>
 8001dc2:	2302      	movs	r3, #2
 8001dc4:	e038      	b.n	8001e38 <HAL_ADC_Start+0x9c>
 8001dc6:	687b      	ldr	r3, [r7, #4]
 8001dc8:	2250      	movs	r2, #80	; 0x50
 8001dca:	2101      	movs	r1, #1
 8001dcc:	5499      	strb	r1, [r3, r2]
    
    /* Enable the ADC peripheral */
    /* If low power mode AutoPowerOff is enabled, power-on/off phases are     */
    /* performed automatically by hardware.                                   */
    if (hadc->Init.LowPowerAutoPowerOff != ENABLE)
 8001dce:	687b      	ldr	r3, [r7, #4]
 8001dd0:	69db      	ldr	r3, [r3, #28]
 8001dd2:	2b01      	cmp	r3, #1
 8001dd4:	d007      	beq.n	8001de6 <HAL_ADC_Start+0x4a>
    {
      tmp_hal_status = ADC_Enable(hadc);
 8001dd6:	230f      	movs	r3, #15
 8001dd8:	18fc      	adds	r4, r7, r3
 8001dda:	687b      	ldr	r3, [r7, #4]
 8001ddc:	0018      	movs	r0, r3
 8001dde:	f000 f983 	bl	80020e8 <ADC_Enable>
 8001de2:	0003      	movs	r3, r0
 8001de4:	7023      	strb	r3, [r4, #0]
    }
    
    /* Start conversion if ADC is effectively enabled */
    if (tmp_hal_status == HAL_OK)
 8001de6:	230f      	movs	r3, #15
 8001de8:	18fb      	adds	r3, r7, r3
 8001dea:	781b      	ldrb	r3, [r3, #0]
 8001dec:	2b00      	cmp	r3, #0
 8001dee:	d120      	bne.n	8001e32 <HAL_ADC_Start+0x96>
    {
      /* Set ADC state                                                        */
      /* - Clear state bitfield related to regular group conversion results   */
      /* - Set state bitfield related to regular operation                    */
      ADC_STATE_CLR_SET(hadc->State,
 8001df0:	687b      	ldr	r3, [r7, #4]
 8001df2:	6d5b      	ldr	r3, [r3, #84]	; 0x54
 8001df4:	4a12      	ldr	r2, [pc, #72]	; (8001e40 <HAL_ADC_Start+0xa4>)
 8001df6:	4013      	ands	r3, r2
 8001df8:	2280      	movs	r2, #128	; 0x80
 8001dfa:	0052      	lsls	r2, r2, #1
 8001dfc:	431a      	orrs	r2, r3
 8001dfe:	687b      	ldr	r3, [r7, #4]
 8001e00:	655a      	str	r2, [r3, #84]	; 0x54
                        HAL_ADC_STATE_READY | HAL_ADC_STATE_REG_EOC | HAL_ADC_STATE_REG_OVR | HAL_ADC_STATE_REG_EOSMP,
                        HAL_ADC_STATE_REG_BUSY);
      
      /* Reset ADC all error code fields */
      ADC_CLEAR_ERRORCODE(hadc);
 8001e02:	687b      	ldr	r3, [r7, #4]
 8001e04:	2200      	movs	r2, #0
 8001e06:	659a      	str	r2, [r3, #88]	; 0x58
      
      /* Process unlocked */
      /* Unlock before starting ADC conversions: in case of potential         */
      /* interruption, to let the process to ADC IRQ Handler.                 */
      __HAL_UNLOCK(hadc);
 8001e08:	687b      	ldr	r3, [r7, #4]
 8001e0a:	2250      	movs	r2, #80	; 0x50
 8001e0c:	2100      	movs	r1, #0
 8001e0e:	5499      	strb	r1, [r3, r2]
      
      /* Clear regular group conversion flag and overrun flag */
      /* (To ensure of no unknown state from potential previous ADC           */
      /* operations)                                                          */
      __HAL_ADC_CLEAR_FLAG(hadc, (ADC_FLAG_EOC | ADC_FLAG_EOS | ADC_FLAG_OVR));
 8001e10:	687b      	ldr	r3, [r7, #4]
 8001e12:	681b      	ldr	r3, [r3, #0]
 8001e14:	221c      	movs	r2, #28
 8001e16:	601a      	str	r2, [r3, #0]
      
      /* Enable conversion of regular group.                                  */
      /* If software start has been selected, conversion starts immediately.  */
      /* If external trigger has been selected, conversion will start at next */
      /* trigger event.                                                       */
      hadc->Instance->CR |= ADC_CR_ADSTART;
 8001e18:	687b      	ldr	r3, [r7, #4]
 8001e1a:	681b      	ldr	r3, [r3, #0]
 8001e1c:	689a      	ldr	r2, [r3, #8]
 8001e1e:	687b      	ldr	r3, [r7, #4]
 8001e20:	681b      	ldr	r3, [r3, #0]
 8001e22:	2104      	movs	r1, #4
 8001e24:	430a      	orrs	r2, r1
 8001e26:	609a      	str	r2, [r3, #8]
 8001e28:	e003      	b.n	8001e32 <HAL_ADC_Start+0x96>
    }
  }
  else
  {
    tmp_hal_status = HAL_BUSY;
 8001e2a:	230f      	movs	r3, #15
 8001e2c:	18fb      	adds	r3, r7, r3
 8001e2e:	2202      	movs	r2, #2
 8001e30:	701a      	strb	r2, [r3, #0]
  }
  
  /* Return function status */
  return tmp_hal_status;
 8001e32:	230f      	movs	r3, #15
 8001e34:	18fb      	adds	r3, r7, r3
 8001e36:	781b      	ldrb	r3, [r3, #0]
}
 8001e38:	0018      	movs	r0, r3
 8001e3a:	46bd      	mov	sp, r7
 8001e3c:	b005      	add	sp, #20
 8001e3e:	bd90      	pop	{r4, r7, pc}
 8001e40:	fffff0fe 	.word	0xfffff0fe

08001e44 <HAL_ADC_PollForConversion>:
  * @param  hadc ADC handle
  * @param  Timeout Timeout value in millisecond.
  * @retval HAL status
  */
HAL_StatusTypeDef HAL_ADC_PollForConversion(ADC_HandleTypeDef* hadc, uint32_t Timeout)
{
 8001e44:	b580      	push	{r7, lr}
 8001e46:	b084      	sub	sp, #16
 8001e48:	af00      	add	r7, sp, #0
 8001e4a:	6078      	str	r0, [r7, #4]
 8001e4c:	6039      	str	r1, [r7, #0]
  uint32_t tickstart = 0;
 8001e4e:	2300      	movs	r3, #0
 8001e50:	60bb      	str	r3, [r7, #8]
  uint32_t tmp_Flag_EOC   = 0x00;
 8001e52:	2300      	movs	r3, #0
 8001e54:	60fb      	str	r3, [r7, #12]
  
  /* Check the parameters */
  assert_param(IS_ADC_ALL_INSTANCE(hadc->Instance));
  
  /* If end of conversion selected to end of sequence conversions */
  if (hadc->Init.EOCSelection == ADC_EOC_SEQ_CONV)
 8001e56:	687b      	ldr	r3, [r7, #4]
 8001e58:	695b      	ldr	r3, [r3, #20]
 8001e5a:	2b08      	cmp	r3, #8
 8001e5c:	d102      	bne.n	8001e64 <HAL_ADC_PollForConversion+0x20>
  {
    tmp_Flag_EOC = ADC_FLAG_EOS;
 8001e5e:	2308      	movs	r3, #8
 8001e60:	60fb      	str	r3, [r7, #12]
 8001e62:	e014      	b.n	8001e8e <HAL_ADC_PollForConversion+0x4a>
    /* each conversion:                                                       */
    /* Particular case is ADC configured in DMA mode and ADC sequencer with   */
    /* several ranks and polling for end of each conversion.                  */
    /* For code simplicity sake, this particular case is generalized to       */
    /* ADC configured in DMA mode and and polling for end of each conversion. */
    if (HAL_IS_BIT_SET(hadc->Instance->CFGR1, ADC_CFGR1_DMAEN))
 8001e64:	687b      	ldr	r3, [r7, #4]
 8001e66:	681b      	ldr	r3, [r3, #0]
 8001e68:	68db      	ldr	r3, [r3, #12]
 8001e6a:	2201      	movs	r2, #1
 8001e6c:	4013      	ands	r3, r2
 8001e6e:	2b01      	cmp	r3, #1
 8001e70:	d10b      	bne.n	8001e8a <HAL_ADC_PollForConversion+0x46>
    {
      /* Update ADC state machine to error */
      SET_BIT(hadc->State, HAL_ADC_STATE_ERROR_CONFIG);
 8001e72:	687b      	ldr	r3, [r7, #4]
 8001e74:	6d5b      	ldr	r3, [r3, #84]	; 0x54
 8001e76:	2220      	movs	r2, #32
 8001e78:	431a      	orrs	r2, r3
 8001e7a:	687b      	ldr	r3, [r7, #4]
 8001e7c:	655a      	str	r2, [r3, #84]	; 0x54
      
      /* Process unlocked */
      __HAL_UNLOCK(hadc);
 8001e7e:	687b      	ldr	r3, [r7, #4]
 8001e80:	2250      	movs	r2, #80	; 0x50
 8001e82:	2100      	movs	r1, #0
 8001e84:	5499      	strb	r1, [r3, r2]
      
      return HAL_ERROR;
 8001e86:	2301      	movs	r3, #1
 8001e88:	e072      	b.n	8001f70 <HAL_ADC_PollForConversion+0x12c>
    }
    else
    {
      tmp_Flag_EOC = (ADC_FLAG_EOC | ADC_FLAG_EOS);
 8001e8a:	230c      	movs	r3, #12
 8001e8c:	60fb      	str	r3, [r7, #12]
    }
  }
  
  /* Get tick count */
  tickstart = HAL_GetTick();
 8001e8e:	f7ff fde3 	bl	8001a58 <HAL_GetTick>
 8001e92:	0003      	movs	r3, r0
 8001e94:	60bb      	str	r3, [r7, #8]
  
  /* Wait until End of unitary conversion or sequence conversions flag is raised */
  while(HAL_IS_BIT_CLR(hadc->Instance->ISR, tmp_Flag_EOC))
 8001e96:	e01f      	b.n	8001ed8 <HAL_ADC_PollForConversion+0x94>
  {
    /* Check if timeout is disabled (set to infinite wait) */
    if(Timeout != HAL_MAX_DELAY)
 8001e98:	683b      	ldr	r3, [r7, #0]
 8001e9a:	3301      	adds	r3, #1
 8001e9c:	d01c      	beq.n	8001ed8 <HAL_ADC_PollForConversion+0x94>
    {
      if((Timeout == 0U) || ((HAL_GetTick()-tickstart) > Timeout))
 8001e9e:	683b      	ldr	r3, [r7, #0]
 8001ea0:	2b00      	cmp	r3, #0
 8001ea2:	d007      	beq.n	8001eb4 <HAL_ADC_PollForConversion+0x70>
 8001ea4:	f7ff fdd8 	bl	8001a58 <HAL_GetTick>
 8001ea8:	0002      	movs	r2, r0
 8001eaa:	68bb      	ldr	r3, [r7, #8]
 8001eac:	1ad3      	subs	r3, r2, r3
 8001eae:	683a      	ldr	r2, [r7, #0]
 8001eb0:	429a      	cmp	r2, r3
 8001eb2:	d211      	bcs.n	8001ed8 <HAL_ADC_PollForConversion+0x94>
      {
        /* New check to avoid false timeout detection in case of preemption */
        if(HAL_IS_BIT_CLR(hadc->Instance->ISR, tmp_Flag_EOC))
 8001eb4:	687b      	ldr	r3, [r7, #4]
 8001eb6:	681b      	ldr	r3, [r3, #0]
 8001eb8:	681b      	ldr	r3, [r3, #0]
 8001eba:	68fa      	ldr	r2, [r7, #12]
 8001ebc:	4013      	ands	r3, r2
 8001ebe:	d10b      	bne.n	8001ed8 <HAL_ADC_PollForConversion+0x94>
        {
          /* Update ADC state machine to timeout */
          SET_BIT(hadc->State, HAL_ADC_STATE_TIMEOUT);
 8001ec0:	687b      	ldr	r3, [r7, #4]
 8001ec2:	6d5b      	ldr	r3, [r3, #84]	; 0x54
 8001ec4:	2204      	movs	r2, #4
 8001ec6:	431a      	orrs	r2, r3
 8001ec8:	687b      	ldr	r3, [r7, #4]
 8001eca:	655a      	str	r2, [r3, #84]	; 0x54

          /* Process unlocked */
          __HAL_UNLOCK(hadc);
 8001ecc:	687b      	ldr	r3, [r7, #4]
 8001ece:	2250      	movs	r2, #80	; 0x50
 8001ed0:	2100      	movs	r1, #0
 8001ed2:	5499      	strb	r1, [r3, r2]

          return HAL_TIMEOUT;
 8001ed4:	2303      	movs	r3, #3
 8001ed6:	e04b      	b.n	8001f70 <HAL_ADC_PollForConversion+0x12c>
  while(HAL_IS_BIT_CLR(hadc->Instance->ISR, tmp_Flag_EOC))
 8001ed8:	687b      	ldr	r3, [r7, #4]
 8001eda:	681b      	ldr	r3, [r3, #0]
 8001edc:	681b      	ldr	r3, [r3, #0]
 8001ede:	68fa      	ldr	r2, [r7, #12]
 8001ee0:	4013      	ands	r3, r2
 8001ee2:	d0d9      	beq.n	8001e98 <HAL_ADC_PollForConversion+0x54>
      }
    }
  }
  
  /* Update ADC state machine */
  SET_BIT(hadc->State, HAL_ADC_STATE_REG_EOC);
 8001ee4:	687b      	ldr	r3, [r7, #4]
 8001ee6:	6d5b      	ldr	r3, [r3, #84]	; 0x54
 8001ee8:	2280      	movs	r2, #128	; 0x80
 8001eea:	0092      	lsls	r2, r2, #2
 8001eec:	431a      	orrs	r2, r3
 8001eee:	687b      	ldr	r3, [r7, #4]
 8001ef0:	655a      	str	r2, [r3, #84]	; 0x54
  
  /* Determine whether any further conversion upcoming on group regular       */
  /* by external trigger, continuous mode or scan sequence on going.          */
  if(ADC_IS_SOFTWARE_START_REGULAR(hadc)        && 
 8001ef2:	687b      	ldr	r3, [r7, #4]
 8001ef4:	681b      	ldr	r3, [r3, #0]
 8001ef6:	68da      	ldr	r2, [r3, #12]
 8001ef8:	23c0      	movs	r3, #192	; 0xc0
 8001efa:	011b      	lsls	r3, r3, #4
 8001efc:	4013      	ands	r3, r2
 8001efe:	d12e      	bne.n	8001f5e <HAL_ADC_PollForConversion+0x11a>
     (hadc->Init.ContinuousConvMode == DISABLE)   )
 8001f00:	687b      	ldr	r3, [r7, #4]
 8001f02:	2220      	movs	r2, #32
 8001f04:	5c9b      	ldrb	r3, [r3, r2]
  if(ADC_IS_SOFTWARE_START_REGULAR(hadc)        && 
 8001f06:	2b00      	cmp	r3, #0
 8001f08:	d129      	bne.n	8001f5e <HAL_ADC_PollForConversion+0x11a>
  {
    /* If End of Sequence is reached, disable interrupts */
    if( __HAL_ADC_GET_FLAG(hadc, ADC_FLAG_EOS) )
 8001f0a:	687b      	ldr	r3, [r7, #4]
 8001f0c:	681b      	ldr	r3, [r3, #0]
 8001f0e:	681b      	ldr	r3, [r3, #0]
 8001f10:	2208      	movs	r2, #8
 8001f12:	4013      	ands	r3, r2
 8001f14:	2b08      	cmp	r3, #8
 8001f16:	d122      	bne.n	8001f5e <HAL_ADC_PollForConversion+0x11a>
    {
      /* Allowed to modify bits ADC_IT_EOC/ADC_IT_EOS only if bit             */
      /* ADSTART==0 (no conversion on going)                                  */
      if (ADC_IS_CONVERSION_ONGOING_REGULAR(hadc) == RESET)
 8001f18:	687b      	ldr	r3, [r7, #4]
 8001f1a:	681b      	ldr	r3, [r3, #0]
 8001f1c:	689b      	ldr	r3, [r3, #8]
 8001f1e:	2204      	movs	r2, #4
 8001f20:	4013      	ands	r3, r2
 8001f22:	d110      	bne.n	8001f46 <HAL_ADC_PollForConversion+0x102>
      {
        /* Disable ADC end of single conversion interrupt on group regular */
        /* Note: Overrun interrupt was enabled with EOC interrupt in          */
        /* HAL_Start_IT(), but is not disabled here because can be used       */
        /* by overrun IRQ process below.                                      */
        __HAL_ADC_DISABLE_IT(hadc, ADC_IT_EOC | ADC_IT_EOS);
 8001f24:	687b      	ldr	r3, [r7, #4]
 8001f26:	681b      	ldr	r3, [r3, #0]
 8001f28:	685a      	ldr	r2, [r3, #4]
 8001f2a:	687b      	ldr	r3, [r7, #4]
 8001f2c:	681b      	ldr	r3, [r3, #0]
 8001f2e:	210c      	movs	r1, #12
 8001f30:	438a      	bics	r2, r1
 8001f32:	605a      	str	r2, [r3, #4]
        
        /* Set ADC state */
        ADC_STATE_CLR_SET(hadc->State,
 8001f34:	687b      	ldr	r3, [r7, #4]
 8001f36:	6d5b      	ldr	r3, [r3, #84]	; 0x54
 8001f38:	4a0f      	ldr	r2, [pc, #60]	; (8001f78 <HAL_ADC_PollForConversion+0x134>)
 8001f3a:	4013      	ands	r3, r2
 8001f3c:	2201      	movs	r2, #1
 8001f3e:	431a      	orrs	r2, r3
 8001f40:	687b      	ldr	r3, [r7, #4]
 8001f42:	655a      	str	r2, [r3, #84]	; 0x54
 8001f44:	e00b      	b.n	8001f5e <HAL_ADC_PollForConversion+0x11a>
                          HAL_ADC_STATE_READY);
      }
      else
      {
        /* Change ADC state to error state */
        SET_BIT(hadc->State, HAL_ADC_STATE_ERROR_CONFIG);
 8001f46:	687b      	ldr	r3, [r7, #4]
 8001f48:	6d5b      	ldr	r3, [r3, #84]	; 0x54
 8001f4a:	2220      	movs	r2, #32
 8001f4c:	431a      	orrs	r2, r3
 8001f4e:	687b      	ldr	r3, [r7, #4]
 8001f50:	655a      	str	r2, [r3, #84]	; 0x54
        
        /* Set ADC error code to ADC peripheral internal error */
        SET_BIT(hadc->ErrorCode, HAL_ADC_ERROR_INTERNAL);
 8001f52:	687b      	ldr	r3, [r7, #4]
 8001f54:	6d9b      	ldr	r3, [r3, #88]	; 0x58
 8001f56:	2201      	movs	r2, #1
 8001f58:	431a      	orrs	r2, r3
 8001f5a:	687b      	ldr	r3, [r7, #4]
 8001f5c:	659a      	str	r2, [r3, #88]	; 0x58
  }
  
  /* Clear end of conversion flag of regular group if low power feature       */
  /* "LowPowerAutoWait " is disabled, to not interfere with this feature      */
  /* until data register is read using function HAL_ADC_GetValue().           */
  if (hadc->Init.LowPowerAutoWait == DISABLE)
 8001f5e:	687b      	ldr	r3, [r7, #4]
 8001f60:	699b      	ldr	r3, [r3, #24]
 8001f62:	2b00      	cmp	r3, #0
 8001f64:	d103      	bne.n	8001f6e <HAL_ADC_PollForConversion+0x12a>
  {
    /* Clear regular group conversion flag */
    __HAL_ADC_CLEAR_FLAG(hadc, (ADC_FLAG_EOC | ADC_FLAG_EOS));
 8001f66:	687b      	ldr	r3, [r7, #4]
 8001f68:	681b      	ldr	r3, [r3, #0]
 8001f6a:	220c      	movs	r2, #12
 8001f6c:	601a      	str	r2, [r3, #0]
  }
  
  /* Return function status */
  return HAL_OK;
 8001f6e:	2300      	movs	r3, #0
}
 8001f70:	0018      	movs	r0, r3
 8001f72:	46bd      	mov	sp, r7
 8001f74:	b004      	add	sp, #16
 8001f76:	bd80      	pop	{r7, pc}
 8001f78:	fffffefe 	.word	0xfffffefe

08001f7c <HAL_ADC_GetValue>:
  *         or @ref __HAL_ADC_CLEAR_FLAG(&hadc, ADC_FLAG_EOS).
  * @param  hadc ADC handle
  * @retval ADC group regular conversion data
  */
uint32_t HAL_ADC_GetValue(ADC_HandleTypeDef* hadc)
{
 8001f7c:	b580      	push	{r7, lr}
 8001f7e:	b082      	sub	sp, #8
 8001f80:	af00      	add	r7, sp, #0
 8001f82:	6078      	str	r0, [r7, #4]

  /* Note: EOC flag is not cleared here by software because automatically     */
  /*       cleared by hardware when reading register DR.                      */
  
  /* Return ADC converted value */ 
  return hadc->Instance->DR;
 8001f84:	687b      	ldr	r3, [r7, #4]
 8001f86:	681b      	ldr	r3, [r3, #0]
 8001f88:	6c1b      	ldr	r3, [r3, #64]	; 0x40
}
 8001f8a:	0018      	movs	r0, r3
 8001f8c:	46bd      	mov	sp, r7
 8001f8e:	b002      	add	sp, #8
 8001f90:	bd80      	pop	{r7, pc}
	...

08001f94 <HAL_ADC_ConfigChannel>:
  * @param  hadc ADC handle
  * @param  sConfig Structure of ADC channel assigned to ADC group regular.
  * @retval HAL status
  */
HAL_StatusTypeDef HAL_ADC_ConfigChannel(ADC_HandleTypeDef* hadc, ADC_ChannelConfTypeDef* sConfig)
{
 8001f94:	b580      	push	{r7, lr}
 8001f96:	b082      	sub	sp, #8
 8001f98:	af00      	add	r7, sp, #0
 8001f9a:	6078      	str	r0, [r7, #4]
 8001f9c:	6039      	str	r1, [r7, #0]
  assert_param(IS_ADC_ALL_INSTANCE(hadc->Instance));
  assert_param(IS_ADC_CHANNEL(sConfig->Channel));
  assert_param(IS_ADC_RANK(sConfig->Rank));
  
  /* Process locked */
  __HAL_LOCK(hadc);
 8001f9e:	687b      	ldr	r3, [r7, #4]
 8001fa0:	2250      	movs	r2, #80	; 0x50
 8001fa2:	5c9b      	ldrb	r3, [r3, r2]
 8001fa4:	2b01      	cmp	r3, #1
 8001fa6:	d101      	bne.n	8001fac <HAL_ADC_ConfigChannel+0x18>
 8001fa8:	2302      	movs	r3, #2
 8001faa:	e085      	b.n	80020b8 <HAL_ADC_ConfigChannel+0x124>
 8001fac:	687b      	ldr	r3, [r7, #4]
 8001fae:	2250      	movs	r2, #80	; 0x50
 8001fb0:	2101      	movs	r1, #1
 8001fb2:	5499      	strb	r1, [r3, r2]
  /* Parameters update conditioned to ADC state:                              */
  /* Parameters that can be updated when ADC is disabled or enabled without   */
  /* conversion on going on regular group:                                    */
  /*  - Channel number                                                        */
  /*  - Management of internal measurement channels: Vbat/VrefInt/TempSensor  */
  if (ADC_IS_CONVERSION_ONGOING_REGULAR(hadc) != RESET)
 8001fb4:	687b      	ldr	r3, [r7, #4]
 8001fb6:	681b      	ldr	r3, [r3, #0]
 8001fb8:	689b      	ldr	r3, [r3, #8]
 8001fba:	2204      	movs	r2, #4
 8001fbc:	4013      	ands	r3, r2
 8001fbe:	d00b      	beq.n	8001fd8 <HAL_ADC_ConfigChannel+0x44>
  {
    /* Update ADC state machine to error */
    SET_BIT(hadc->State, HAL_ADC_STATE_ERROR_CONFIG);
 8001fc0:	687b      	ldr	r3, [r7, #4]
 8001fc2:	6d5b      	ldr	r3, [r3, #84]	; 0x54
 8001fc4:	2220      	movs	r2, #32
 8001fc6:	431a      	orrs	r2, r3
 8001fc8:	687b      	ldr	r3, [r7, #4]
 8001fca:	655a      	str	r2, [r3, #84]	; 0x54
    /* Process unlocked */
    __HAL_UNLOCK(hadc);
 8001fcc:	687b      	ldr	r3, [r7, #4]
 8001fce:	2250      	movs	r2, #80	; 0x50
 8001fd0:	2100      	movs	r1, #0
 8001fd2:	5499      	strb	r1, [r3, r2]
    return HAL_ERROR;
 8001fd4:	2301      	movs	r3, #1
 8001fd6:	e06f      	b.n	80020b8 <HAL_ADC_ConfigChannel+0x124>
  }
  
  if (sConfig->Rank != ADC_RANK_NONE)
 8001fd8:	683b      	ldr	r3, [r7, #0]
 8001fda:	685b      	ldr	r3, [r3, #4]
 8001fdc:	4a38      	ldr	r2, [pc, #224]	; (80020c0 <HAL_ADC_ConfigChannel+0x12c>)
 8001fde:	4293      	cmp	r3, r2
 8001fe0:	d035      	beq.n	800204e <HAL_ADC_ConfigChannel+0xba>
  {
    /* Enable selected channels */
    hadc->Instance->CHSELR |= (uint32_t)(sConfig->Channel & ADC_CHANNEL_MASK);
 8001fe2:	687b      	ldr	r3, [r7, #4]
 8001fe4:	681b      	ldr	r3, [r3, #0]
 8001fe6:	6a99      	ldr	r1, [r3, #40]	; 0x28
 8001fe8:	683b      	ldr	r3, [r7, #0]
 8001fea:	681b      	ldr	r3, [r3, #0]
 8001fec:	035b      	lsls	r3, r3, #13
 8001fee:	0b5a      	lsrs	r2, r3, #13
 8001ff0:	687b      	ldr	r3, [r7, #4]
 8001ff2:	681b      	ldr	r3, [r3, #0]
 8001ff4:	430a      	orrs	r2, r1
 8001ff6:	629a      	str	r2, [r3, #40]	; 0x28
    /* dedicated internal buffers and path.                                     */
    
    #if defined(ADC_CCR_TSEN)
    /* If Temperature sensor channel is selected, then enable the internal      */
    /* buffers and path  */
    if (((sConfig->Channel & ADC_CHANNEL_MASK) & ADC_CHANNEL_TEMPSENSOR ) == (ADC_CHANNEL_TEMPSENSOR & ADC_CHANNEL_MASK))
 8001ff8:	683b      	ldr	r3, [r7, #0]
 8001ffa:	681a      	ldr	r2, [r3, #0]
 8001ffc:	2380      	movs	r3, #128	; 0x80
 8001ffe:	02db      	lsls	r3, r3, #11
 8002000:	4013      	ands	r3, r2
 8002002:	d009      	beq.n	8002018 <HAL_ADC_ConfigChannel+0x84>
    {
      ADC->CCR |= ADC_CCR_TSEN;   
 8002004:	4b2f      	ldr	r3, [pc, #188]	; (80020c4 <HAL_ADC_ConfigChannel+0x130>)
 8002006:	681a      	ldr	r2, [r3, #0]
 8002008:	4b2e      	ldr	r3, [pc, #184]	; (80020c4 <HAL_ADC_ConfigChannel+0x130>)
 800200a:	2180      	movs	r1, #128	; 0x80
 800200c:	0409      	lsls	r1, r1, #16
 800200e:	430a      	orrs	r2, r1
 8002010:	601a      	str	r2, [r3, #0]
      
      /* Delay for temperature sensor stabilization time */
      ADC_DelayMicroSecond(ADC_TEMPSENSOR_DELAY_US);
 8002012:	200a      	movs	r0, #10
 8002014:	f000 f8d0 	bl	80021b8 <ADC_DelayMicroSecond>
    }
    #endif
    
    /* If VRefInt channel is selected, then enable the internal buffers and path   */
    if (((sConfig->Channel & ADC_CHANNEL_MASK) & ADC_CHANNEL_VREFINT) == (ADC_CHANNEL_VREFINT & ADC_CHANNEL_MASK))
 8002018:	683b      	ldr	r3, [r7, #0]
 800201a:	681a      	ldr	r2, [r3, #0]
 800201c:	2380      	movs	r3, #128	; 0x80
 800201e:	029b      	lsls	r3, r3, #10
 8002020:	4013      	ands	r3, r2
 8002022:	d006      	beq.n	8002032 <HAL_ADC_ConfigChannel+0x9e>
    {
      ADC->CCR |= ADC_CCR_VREFEN;   
 8002024:	4b27      	ldr	r3, [pc, #156]	; (80020c4 <HAL_ADC_ConfigChannel+0x130>)
 8002026:	681a      	ldr	r2, [r3, #0]
 8002028:	4b26      	ldr	r3, [pc, #152]	; (80020c4 <HAL_ADC_ConfigChannel+0x130>)
 800202a:	2180      	movs	r1, #128	; 0x80
 800202c:	03c9      	lsls	r1, r1, #15
 800202e:	430a      	orrs	r2, r1
 8002030:	601a      	str	r2, [r3, #0]
    }
    
#if defined (STM32L053xx) || defined (STM32L063xx) || defined (STM32L073xx) || defined (STM32L083xx)
    /* If Vlcd channel is selected, then enable the internal buffers and path   */
    if (((sConfig->Channel & ADC_CHANNEL_MASK) & ADC_CHANNEL_VLCD) == (ADC_CHANNEL_VLCD & ADC_CHANNEL_MASK))
 8002032:	683b      	ldr	r3, [r7, #0]
 8002034:	681a      	ldr	r2, [r3, #0]
 8002036:	2380      	movs	r3, #128	; 0x80
 8002038:	025b      	lsls	r3, r3, #9
 800203a:	4013      	ands	r3, r2
 800203c:	d037      	beq.n	80020ae <HAL_ADC_ConfigChannel+0x11a>
    {
      ADC->CCR |= ADC_CCR_VLCDEN;   
 800203e:	4b21      	ldr	r3, [pc, #132]	; (80020c4 <HAL_ADC_ConfigChannel+0x130>)
 8002040:	681a      	ldr	r2, [r3, #0]
 8002042:	4b20      	ldr	r3, [pc, #128]	; (80020c4 <HAL_ADC_ConfigChannel+0x130>)
 8002044:	2180      	movs	r1, #128	; 0x80
 8002046:	0449      	lsls	r1, r1, #17
 8002048:	430a      	orrs	r2, r1
 800204a:	601a      	str	r2, [r3, #0]
 800204c:	e02f      	b.n	80020ae <HAL_ADC_ConfigChannel+0x11a>
  }
  else
  {
    /* Regular sequence configuration */
    /* Reset the channel selection register from the selected channel */
    hadc->Instance->CHSELR &= ~((uint32_t)(sConfig->Channel & ADC_CHANNEL_MASK));
 800204e:	687b      	ldr	r3, [r7, #4]
 8002050:	681b      	ldr	r3, [r3, #0]
 8002052:	6a9a      	ldr	r2, [r3, #40]	; 0x28
 8002054:	683b      	ldr	r3, [r7, #0]
 8002056:	681b      	ldr	r3, [r3, #0]
 8002058:	035b      	lsls	r3, r3, #13
 800205a:	0b5b      	lsrs	r3, r3, #13
 800205c:	43d9      	mvns	r1, r3
 800205e:	687b      	ldr	r3, [r7, #4]
 8002060:	681b      	ldr	r3, [r3, #0]
 8002062:	400a      	ands	r2, r1
 8002064:	629a      	str	r2, [r3, #40]	; 0x28
    
    /* Management of internal measurement channels: VrefInt/TempSensor/Vbat */
    /* internal measurement paths disable: If internal channel selected,    */
    /* disable dedicated internal buffers and path.                         */
    #if defined(ADC_CCR_TSEN)
    if (((sConfig->Channel & ADC_CHANNEL_MASK) & ADC_CHANNEL_TEMPSENSOR ) == (ADC_CHANNEL_TEMPSENSOR & ADC_CHANNEL_MASK))
 8002066:	683b      	ldr	r3, [r7, #0]
 8002068:	681a      	ldr	r2, [r3, #0]
 800206a:	2380      	movs	r3, #128	; 0x80
 800206c:	02db      	lsls	r3, r3, #11
 800206e:	4013      	ands	r3, r2
 8002070:	d005      	beq.n	800207e <HAL_ADC_ConfigChannel+0xea>
    {
      ADC->CCR &= ~ADC_CCR_TSEN;   
 8002072:	4b14      	ldr	r3, [pc, #80]	; (80020c4 <HAL_ADC_ConfigChannel+0x130>)
 8002074:	681a      	ldr	r2, [r3, #0]
 8002076:	4b13      	ldr	r3, [pc, #76]	; (80020c4 <HAL_ADC_ConfigChannel+0x130>)
 8002078:	4913      	ldr	r1, [pc, #76]	; (80020c8 <HAL_ADC_ConfigChannel+0x134>)
 800207a:	400a      	ands	r2, r1
 800207c:	601a      	str	r2, [r3, #0]
    }
    #endif
    
    /* If VRefInt channel is selected, then enable the internal buffers and path   */
    if (((sConfig->Channel & ADC_CHANNEL_MASK) & ADC_CHANNEL_VREFINT) == (ADC_CHANNEL_VREFINT & ADC_CHANNEL_MASK))
 800207e:	683b      	ldr	r3, [r7, #0]
 8002080:	681a      	ldr	r2, [r3, #0]
 8002082:	2380      	movs	r3, #128	; 0x80
 8002084:	029b      	lsls	r3, r3, #10
 8002086:	4013      	ands	r3, r2
 8002088:	d005      	beq.n	8002096 <HAL_ADC_ConfigChannel+0x102>
    {
      ADC->CCR &= ~ADC_CCR_VREFEN;   
 800208a:	4b0e      	ldr	r3, [pc, #56]	; (80020c4 <HAL_ADC_ConfigChannel+0x130>)
 800208c:	681a      	ldr	r2, [r3, #0]
 800208e:	4b0d      	ldr	r3, [pc, #52]	; (80020c4 <HAL_ADC_ConfigChannel+0x130>)
 8002090:	490e      	ldr	r1, [pc, #56]	; (80020cc <HAL_ADC_ConfigChannel+0x138>)
 8002092:	400a      	ands	r2, r1
 8002094:	601a      	str	r2, [r3, #0]
    }
    
#if defined (STM32L053xx) || defined (STM32L063xx) || defined (STM32L073xx) || defined (STM32L083xx)
    /* If Vlcd channel is selected, then enable the internal buffers and path   */
    if (((sConfig->Channel & ADC_CHANNEL_MASK) & ADC_CHANNEL_VLCD) == (ADC_CHANNEL_VLCD & ADC_CHANNEL_MASK))
 8002096:	683b      	ldr	r3, [r7, #0]
 8002098:	681a      	ldr	r2, [r3, #0]
 800209a:	2380      	movs	r3, #128	; 0x80
 800209c:	025b      	lsls	r3, r3, #9
 800209e:	4013      	ands	r3, r2
 80020a0:	d005      	beq.n	80020ae <HAL_ADC_ConfigChannel+0x11a>
    {
      ADC->CCR &= ~ADC_CCR_VLCDEN;   
 80020a2:	4b08      	ldr	r3, [pc, #32]	; (80020c4 <HAL_ADC_ConfigChannel+0x130>)
 80020a4:	681a      	ldr	r2, [r3, #0]
 80020a6:	4b07      	ldr	r3, [pc, #28]	; (80020c4 <HAL_ADC_ConfigChannel+0x130>)
 80020a8:	4909      	ldr	r1, [pc, #36]	; (80020d0 <HAL_ADC_ConfigChannel+0x13c>)
 80020aa:	400a      	ands	r2, r1
 80020ac:	601a      	str	r2, [r3, #0]
    }
#endif
  }
  
  /* Process unlocked */
  __HAL_UNLOCK(hadc);
 80020ae:	687b      	ldr	r3, [r7, #4]
 80020b0:	2250      	movs	r2, #80	; 0x50
 80020b2:	2100      	movs	r1, #0
 80020b4:	5499      	strb	r1, [r3, r2]
  
  /* Return function status */
  return HAL_OK;
 80020b6:	2300      	movs	r3, #0
}
 80020b8:	0018      	movs	r0, r3
 80020ba:	46bd      	mov	sp, r7
 80020bc:	b002      	add	sp, #8
 80020be:	bd80      	pop	{r7, pc}
 80020c0:	00001001 	.word	0x00001001
 80020c4:	40012708 	.word	0x40012708
 80020c8:	ff7fffff 	.word	0xff7fffff
 80020cc:	ffbfffff 	.word	0xffbfffff
 80020d0:	feffffff 	.word	0xfeffffff

080020d4 <HAL_ADC_GetState>:
  *           " if (HAL_IS_BIT_SET(HAL_ADC_GetState(hadc1), HAL_ADC_STATE_AWD1)    ) "
  * @param  hadc ADC handle
  * @retval ADC handle state (bitfield on 32 bits)
  */
uint32_t HAL_ADC_GetState(ADC_HandleTypeDef* hadc)
{
 80020d4:	b580      	push	{r7, lr}
 80020d6:	b082      	sub	sp, #8
 80020d8:	af00      	add	r7, sp, #0
 80020da:	6078      	str	r0, [r7, #4]
  /* Check the parameters */
  assert_param(IS_ADC_ALL_INSTANCE(hadc->Instance));
  
  /* Return ADC handle state */
  return hadc->State;
 80020dc:	687b      	ldr	r3, [r7, #4]
 80020de:	6d5b      	ldr	r3, [r3, #84]	; 0x54
}
 80020e0:	0018      	movs	r0, r3
 80020e2:	46bd      	mov	sp, r7
 80020e4:	b002      	add	sp, #8
 80020e6:	bd80      	pop	{r7, pc}

080020e8 <ADC_Enable>:
  *         "if (hadc->Init.LowPowerAutoPowerOff != ENABLE)".
  * @param  hadc ADC handle
  * @retval HAL status.
  */
static HAL_StatusTypeDef ADC_Enable(ADC_HandleTypeDef* hadc)
{
 80020e8:	b580      	push	{r7, lr}
 80020ea:	b084      	sub	sp, #16
 80020ec:	af00      	add	r7, sp, #0
 80020ee:	6078      	str	r0, [r7, #4]
  uint32_t tickstart = 0U;
 80020f0:	2300      	movs	r3, #0
 80020f2:	60fb      	str	r3, [r7, #12]

  /* ADC enable and wait for ADC ready (in case of ADC is disabled or         */
  /* enabling phase not yet completed: flag ADC ready not yet set).           */
  /* Timeout implemented to not be stuck if ADC cannot be enabled (possible   */
  /* causes: ADC clock not running, ...).                                     */
  if (ADC_IS_ENABLE(hadc) == RESET)
 80020f4:	687b      	ldr	r3, [r7, #4]
 80020f6:	681b      	ldr	r3, [r3, #0]
 80020f8:	689b      	ldr	r3, [r3, #8]
 80020fa:	2203      	movs	r2, #3
 80020fc:	4013      	ands	r3, r2
 80020fe:	2b01      	cmp	r3, #1
 8002100:	d108      	bne.n	8002114 <ADC_Enable+0x2c>
 8002102:	687b      	ldr	r3, [r7, #4]
 8002104:	681b      	ldr	r3, [r3, #0]
 8002106:	681b      	ldr	r3, [r3, #0]
 8002108:	2201      	movs	r2, #1
 800210a:	4013      	ands	r3, r2
 800210c:	2b01      	cmp	r3, #1
 800210e:	d101      	bne.n	8002114 <ADC_Enable+0x2c>
 8002110:	2301      	movs	r3, #1
 8002112:	e000      	b.n	8002116 <ADC_Enable+0x2e>
 8002114:	2300      	movs	r3, #0
 8002116:	2b00      	cmp	r3, #0
 8002118:	d146      	bne.n	80021a8 <ADC_Enable+0xc0>
  {
    /* Check if conditions to enable the ADC are fulfilled */
    if (ADC_ENABLING_CONDITIONS(hadc) == RESET)
 800211a:	687b      	ldr	r3, [r7, #4]
 800211c:	681b      	ldr	r3, [r3, #0]
 800211e:	689b      	ldr	r3, [r3, #8]
 8002120:	4a24      	ldr	r2, [pc, #144]	; (80021b4 <ADC_Enable+0xcc>)
 8002122:	4013      	ands	r3, r2
 8002124:	d00d      	beq.n	8002142 <ADC_Enable+0x5a>
    {
      /* Update ADC state machine to error */
      SET_BIT(hadc->State, HAL_ADC_STATE_ERROR_INTERNAL);
 8002126:	687b      	ldr	r3, [r7, #4]
 8002128:	6d5b      	ldr	r3, [r3, #84]	; 0x54
 800212a:	2210      	movs	r2, #16
 800212c:	431a      	orrs	r2, r3
 800212e:	687b      	ldr	r3, [r7, #4]
 8002130:	655a      	str	r2, [r3, #84]	; 0x54
      
      /* Set ADC error code to ADC peripheral internal error */
      SET_BIT(hadc->ErrorCode, HAL_ADC_ERROR_INTERNAL);
 8002132:	687b      	ldr	r3, [r7, #4]
 8002134:	6d9b      	ldr	r3, [r3, #88]	; 0x58
 8002136:	2201      	movs	r2, #1
 8002138:	431a      	orrs	r2, r3
 800213a:	687b      	ldr	r3, [r7, #4]
 800213c:	659a      	str	r2, [r3, #88]	; 0x58
      
      return HAL_ERROR;
 800213e:	2301      	movs	r3, #1
 8002140:	e033      	b.n	80021aa <ADC_Enable+0xc2>
    }
    
    /* Enable the ADC peripheral */
    __HAL_ADC_ENABLE(hadc);
 8002142:	687b      	ldr	r3, [r7, #4]
 8002144:	681b      	ldr	r3, [r3, #0]
 8002146:	689a      	ldr	r2, [r3, #8]
 8002148:	687b      	ldr	r3, [r7, #4]
 800214a:	681b      	ldr	r3, [r3, #0]
 800214c:	2101      	movs	r1, #1
 800214e:	430a      	orrs	r2, r1
 8002150:	609a      	str	r2, [r3, #8]
    
    /* Delay for ADC stabilization time. */
    ADC_DelayMicroSecond(ADC_STAB_DELAY_US);
 8002152:	2001      	movs	r0, #1
 8002154:	f000 f830 	bl	80021b8 <ADC_DelayMicroSecond>

    /* Get tick count */
    tickstart = HAL_GetTick();
 8002158:	f7ff fc7e 	bl	8001a58 <HAL_GetTick>
 800215c:	0003      	movs	r3, r0
 800215e:	60fb      	str	r3, [r7, #12]
    
    /* Wait for ADC effectively enabled */
    while(__HAL_ADC_GET_FLAG(hadc, ADC_FLAG_RDY) == RESET)
 8002160:	e01b      	b.n	800219a <ADC_Enable+0xb2>
    {
      if((HAL_GetTick() - tickstart) > ADC_ENABLE_TIMEOUT)
 8002162:	f7ff fc79 	bl	8001a58 <HAL_GetTick>
 8002166:	0002      	movs	r2, r0
 8002168:	68fb      	ldr	r3, [r7, #12]
 800216a:	1ad3      	subs	r3, r2, r3
 800216c:	2b0a      	cmp	r3, #10
 800216e:	d914      	bls.n	800219a <ADC_Enable+0xb2>
      {
        /* New check to avoid false timeout detection in case of preemption */
        if(__HAL_ADC_GET_FLAG(hadc, ADC_FLAG_RDY) == RESET)
 8002170:	687b      	ldr	r3, [r7, #4]
 8002172:	681b      	ldr	r3, [r3, #0]
 8002174:	681b      	ldr	r3, [r3, #0]
 8002176:	2201      	movs	r2, #1
 8002178:	4013      	ands	r3, r2
 800217a:	2b01      	cmp	r3, #1
 800217c:	d00d      	beq.n	800219a <ADC_Enable+0xb2>
        {
          /* Update ADC state machine to error */
          SET_BIT(hadc->State, HAL_ADC_STATE_ERROR_INTERNAL);
 800217e:	687b      	ldr	r3, [r7, #4]
 8002180:	6d5b      	ldr	r3, [r3, #84]	; 0x54
 8002182:	2210      	movs	r2, #16
 8002184:	431a      	orrs	r2, r3
 8002186:	687b      	ldr	r3, [r7, #4]
 8002188:	655a      	str	r2, [r3, #84]	; 0x54

          /* Set ADC error code to ADC peripheral internal error */
          SET_BIT(hadc->ErrorCode, HAL_ADC_ERROR_INTERNAL);
 800218a:	687b      	ldr	r3, [r7, #4]
 800218c:	6d9b      	ldr	r3, [r3, #88]	; 0x58
 800218e:	2201      	movs	r2, #1
 8002190:	431a      	orrs	r2, r3
 8002192:	687b      	ldr	r3, [r7, #4]
 8002194:	659a      	str	r2, [r3, #88]	; 0x58

          return HAL_ERROR;
 8002196:	2301      	movs	r3, #1
 8002198:	e007      	b.n	80021aa <ADC_Enable+0xc2>
    while(__HAL_ADC_GET_FLAG(hadc, ADC_FLAG_RDY) == RESET)
 800219a:	687b      	ldr	r3, [r7, #4]
 800219c:	681b      	ldr	r3, [r3, #0]
 800219e:	681b      	ldr	r3, [r3, #0]
 80021a0:	2201      	movs	r2, #1
 80021a2:	4013      	ands	r3, r2
 80021a4:	2b01      	cmp	r3, #1
 80021a6:	d1dc      	bne.n	8002162 <ADC_Enable+0x7a>
      }
    }
  }
   
  /* Return HAL status */
  return HAL_OK;
 80021a8:	2300      	movs	r3, #0
}
 80021aa:	0018      	movs	r0, r3
 80021ac:	46bd      	mov	sp, r7
 80021ae:	b004      	add	sp, #16
 80021b0:	bd80      	pop	{r7, pc}
 80021b2:	46c0      	nop			; (mov r8, r8)
 80021b4:	80000017 	.word	0x80000017

080021b8 <ADC_DelayMicroSecond>:
  * @brief  Delay micro seconds 
  * @param  microSecond  delay
  * @retval None
  */
static void ADC_DelayMicroSecond(uint32_t microSecond)
{
 80021b8:	b580      	push	{r7, lr}
 80021ba:	b084      	sub	sp, #16
 80021bc:	af00      	add	r7, sp, #0
 80021be:	6078      	str	r0, [r7, #4]
  /* Compute number of CPU cycles to wait for */
  __IO uint32_t waitLoopIndex = (microSecond * (SystemCoreClock / 1000000U));
 80021c0:	4b0b      	ldr	r3, [pc, #44]	; (80021f0 <ADC_DelayMicroSecond+0x38>)
 80021c2:	681b      	ldr	r3, [r3, #0]
 80021c4:	490b      	ldr	r1, [pc, #44]	; (80021f4 <ADC_DelayMicroSecond+0x3c>)
 80021c6:	0018      	movs	r0, r3
 80021c8:	f7fd ffb0 	bl	800012c <__udivsi3>
 80021cc:	0003      	movs	r3, r0
 80021ce:	001a      	movs	r2, r3
 80021d0:	687b      	ldr	r3, [r7, #4]
 80021d2:	4353      	muls	r3, r2
 80021d4:	60fb      	str	r3, [r7, #12]

  while(waitLoopIndex != 0U)
 80021d6:	e002      	b.n	80021de <ADC_DelayMicroSecond+0x26>
  {
    waitLoopIndex--;
 80021d8:	68fb      	ldr	r3, [r7, #12]
 80021da:	3b01      	subs	r3, #1
 80021dc:	60fb      	str	r3, [r7, #12]
  while(waitLoopIndex != 0U)
 80021de:	68fb      	ldr	r3, [r7, #12]
 80021e0:	2b00      	cmp	r3, #0
 80021e2:	d1f9      	bne.n	80021d8 <ADC_DelayMicroSecond+0x20>
  } 
}
 80021e4:	46c0      	nop			; (mov r8, r8)
 80021e6:	46c0      	nop			; (mov r8, r8)
 80021e8:	46bd      	mov	sp, r7
 80021ea:	b004      	add	sp, #16
 80021ec:	bd80      	pop	{r7, pc}
 80021ee:	46c0      	nop			; (mov r8, r8)
 80021f0:	20000020 	.word	0x20000020
 80021f4:	000f4240 	.word	0x000f4240

080021f8 <HAL_ADCEx_Calibration_Start>:
  *          This parameter can be only of the following values:
  *            @arg ADC_SINGLE_ENDED: Channel in mode input single ended
  * @retval HAL status
  */
HAL_StatusTypeDef HAL_ADCEx_Calibration_Start(ADC_HandleTypeDef* hadc, uint32_t SingleDiff)
{
 80021f8:	b580      	push	{r7, lr}
 80021fa:	b086      	sub	sp, #24
 80021fc:	af00      	add	r7, sp, #0
 80021fe:	6078      	str	r0, [r7, #4]
 8002200:	6039      	str	r1, [r7, #0]
  HAL_StatusTypeDef tmp_hal_status = HAL_OK;
 8002202:	2317      	movs	r3, #23
 8002204:	18fb      	adds	r3, r7, r3
 8002206:	2200      	movs	r2, #0
 8002208:	701a      	strb	r2, [r3, #0]
  uint32_t tickstart = 0U;
 800220a:	2300      	movs	r3, #0
 800220c:	613b      	str	r3, [r7, #16]
  uint32_t backup_setting_adc_dma_transfer = 0U; /* Note: Variable not declared as volatile because register read is already declared as volatile */
 800220e:	2300      	movs	r3, #0
 8002210:	60fb      	str	r3, [r7, #12]
  
  /* Check the parameters */
  assert_param(IS_ADC_ALL_INSTANCE(hadc->Instance));

  /* Process locked */
  __HAL_LOCK(hadc);
 8002212:	687b      	ldr	r3, [r7, #4]
 8002214:	2250      	movs	r2, #80	; 0x50
 8002216:	5c9b      	ldrb	r3, [r3, r2]
 8002218:	2b01      	cmp	r3, #1
 800221a:	d101      	bne.n	8002220 <HAL_ADCEx_Calibration_Start+0x28>
 800221c:	2302      	movs	r3, #2
 800221e:	e083      	b.n	8002328 <HAL_ADCEx_Calibration_Start+0x130>
 8002220:	687b      	ldr	r3, [r7, #4]
 8002222:	2250      	movs	r2, #80	; 0x50
 8002224:	2101      	movs	r1, #1
 8002226:	5499      	strb	r1, [r3, r2]
  
  /* Calibration prerequisite: ADC must be disabled. */
  if (ADC_IS_ENABLE(hadc) == RESET)
 8002228:	687b      	ldr	r3, [r7, #4]
 800222a:	681b      	ldr	r3, [r3, #0]
 800222c:	689b      	ldr	r3, [r3, #8]
 800222e:	2203      	movs	r2, #3
 8002230:	4013      	ands	r3, r2
 8002232:	2b01      	cmp	r3, #1
 8002234:	d108      	bne.n	8002248 <HAL_ADCEx_Calibration_Start+0x50>
 8002236:	687b      	ldr	r3, [r7, #4]
 8002238:	681b      	ldr	r3, [r3, #0]
 800223a:	681b      	ldr	r3, [r3, #0]
 800223c:	2201      	movs	r2, #1
 800223e:	4013      	ands	r3, r2
 8002240:	2b01      	cmp	r3, #1
 8002242:	d101      	bne.n	8002248 <HAL_ADCEx_Calibration_Start+0x50>
 8002244:	2301      	movs	r3, #1
 8002246:	e000      	b.n	800224a <HAL_ADCEx_Calibration_Start+0x52>
 8002248:	2300      	movs	r3, #0
 800224a:	2b00      	cmp	r3, #0
 800224c:	d15b      	bne.n	8002306 <HAL_ADCEx_Calibration_Start+0x10e>
  {
    /* Set ADC state */
    ADC_STATE_CLR_SET(hadc->State, 
 800224e:	687b      	ldr	r3, [r7, #4]
 8002250:	6d5b      	ldr	r3, [r3, #84]	; 0x54
 8002252:	4a37      	ldr	r2, [pc, #220]	; (8002330 <HAL_ADCEx_Calibration_Start+0x138>)
 8002254:	4013      	ands	r3, r2
 8002256:	2202      	movs	r2, #2
 8002258:	431a      	orrs	r2, r3
 800225a:	687b      	ldr	r3, [r7, #4]
 800225c:	655a      	str	r2, [r3, #84]	; 0x54
    /* Note: Specificity of this STM32 serie: Calibration factor is           */
    /*       available in data register and also transfered by DMA.           */
    /*       To not insert ADC calibration factor among ADC conversion data   */
    /*       in array variable, DMA transfer must be disabled during          */
    /*       calibration.                                                     */
    backup_setting_adc_dma_transfer = READ_BIT(hadc->Instance->CFGR1, ADC_CFGR1_DMAEN | ADC_CFGR1_DMACFG);
 800225e:	687b      	ldr	r3, [r7, #4]
 8002260:	681b      	ldr	r3, [r3, #0]
 8002262:	68db      	ldr	r3, [r3, #12]
 8002264:	2203      	movs	r2, #3
 8002266:	4013      	ands	r3, r2
 8002268:	60fb      	str	r3, [r7, #12]
    CLEAR_BIT(hadc->Instance->CFGR1, ADC_CFGR1_DMAEN | ADC_CFGR1_DMACFG);
 800226a:	687b      	ldr	r3, [r7, #4]
 800226c:	681b      	ldr	r3, [r3, #0]
 800226e:	68da      	ldr	r2, [r3, #12]
 8002270:	687b      	ldr	r3, [r7, #4]
 8002272:	681b      	ldr	r3, [r3, #0]
 8002274:	2103      	movs	r1, #3
 8002276:	438a      	bics	r2, r1
 8002278:	60da      	str	r2, [r3, #12]
    
    /* Start ADC calibration */
    hadc->Instance->CR |= ADC_CR_ADCAL;
 800227a:	687b      	ldr	r3, [r7, #4]
 800227c:	681b      	ldr	r3, [r3, #0]
 800227e:	689a      	ldr	r2, [r3, #8]
 8002280:	687b      	ldr	r3, [r7, #4]
 8002282:	681b      	ldr	r3, [r3, #0]
 8002284:	2180      	movs	r1, #128	; 0x80
 8002286:	0609      	lsls	r1, r1, #24
 8002288:	430a      	orrs	r2, r1
 800228a:	609a      	str	r2, [r3, #8]
    
    tickstart = HAL_GetTick();  
 800228c:	f7ff fbe4 	bl	8001a58 <HAL_GetTick>
 8002290:	0003      	movs	r3, r0
 8002292:	613b      	str	r3, [r7, #16]
    
    /* Wait for calibration completion */
    while(HAL_IS_BIT_SET(hadc->Instance->CR, ADC_CR_ADCAL))
 8002294:	e01d      	b.n	80022d2 <HAL_ADCEx_Calibration_Start+0xda>
    {
      if((HAL_GetTick() - tickstart) > ADC_CALIBRATION_TIMEOUT)
 8002296:	f7ff fbdf 	bl	8001a58 <HAL_GetTick>
 800229a:	0002      	movs	r2, r0
 800229c:	693b      	ldr	r3, [r7, #16]
 800229e:	1ad3      	subs	r3, r2, r3
 80022a0:	2b0a      	cmp	r3, #10
 80022a2:	d916      	bls.n	80022d2 <HAL_ADCEx_Calibration_Start+0xda>
      {
        /* New check to avoid false timeout detection in case of preemption */
        if(HAL_IS_BIT_SET(hadc->Instance->CR, ADC_CR_ADCAL))
 80022a4:	687b      	ldr	r3, [r7, #4]
 80022a6:	681b      	ldr	r3, [r3, #0]
 80022a8:	689b      	ldr	r3, [r3, #8]
 80022aa:	0fdb      	lsrs	r3, r3, #31
 80022ac:	07da      	lsls	r2, r3, #31
 80022ae:	2380      	movs	r3, #128	; 0x80
 80022b0:	061b      	lsls	r3, r3, #24
 80022b2:	429a      	cmp	r2, r3
 80022b4:	d10d      	bne.n	80022d2 <HAL_ADCEx_Calibration_Start+0xda>
        {
          /* Update ADC state machine to error */
          ADC_STATE_CLR_SET(hadc->State,
 80022b6:	687b      	ldr	r3, [r7, #4]
 80022b8:	6d5b      	ldr	r3, [r3, #84]	; 0x54
 80022ba:	2212      	movs	r2, #18
 80022bc:	4393      	bics	r3, r2
 80022be:	2210      	movs	r2, #16
 80022c0:	431a      	orrs	r2, r3
 80022c2:	687b      	ldr	r3, [r7, #4]
 80022c4:	655a      	str	r2, [r3, #84]	; 0x54
                            HAL_ADC_STATE_BUSY_INTERNAL,
                            HAL_ADC_STATE_ERROR_INTERNAL);

          /* Process unlocked */
          __HAL_UNLOCK(hadc);
 80022c6:	687b      	ldr	r3, [r7, #4]
 80022c8:	2250      	movs	r2, #80	; 0x50
 80022ca:	2100      	movs	r1, #0
 80022cc:	5499      	strb	r1, [r3, r2]

          return HAL_ERROR;
 80022ce:	2301      	movs	r3, #1
 80022d0:	e02a      	b.n	8002328 <HAL_ADCEx_Calibration_Start+0x130>
    while(HAL_IS_BIT_SET(hadc->Instance->CR, ADC_CR_ADCAL))
 80022d2:	687b      	ldr	r3, [r7, #4]
 80022d4:	681b      	ldr	r3, [r3, #0]
 80022d6:	689b      	ldr	r3, [r3, #8]
 80022d8:	0fdb      	lsrs	r3, r3, #31
 80022da:	07da      	lsls	r2, r3, #31
 80022dc:	2380      	movs	r3, #128	; 0x80
 80022de:	061b      	lsls	r3, r3, #24
 80022e0:	429a      	cmp	r2, r3
 80022e2:	d0d8      	beq.n	8002296 <HAL_ADCEx_Calibration_Start+0x9e>
        }
      }
    }
    
    /* Restore ADC DMA transfer request after calibration */
    SET_BIT(hadc->Instance->CFGR1, backup_setting_adc_dma_transfer);
 80022e4:	687b      	ldr	r3, [r7, #4]
 80022e6:	681b      	ldr	r3, [r3, #0]
 80022e8:	68d9      	ldr	r1, [r3, #12]
 80022ea:	687b      	ldr	r3, [r7, #4]
 80022ec:	681b      	ldr	r3, [r3, #0]
 80022ee:	68fa      	ldr	r2, [r7, #12]
 80022f0:	430a      	orrs	r2, r1
 80022f2:	60da      	str	r2, [r3, #12]
    
    /* Set ADC state */
    ADC_STATE_CLR_SET(hadc->State,
 80022f4:	687b      	ldr	r3, [r7, #4]
 80022f6:	6d5b      	ldr	r3, [r3, #84]	; 0x54
 80022f8:	2203      	movs	r2, #3
 80022fa:	4393      	bics	r3, r2
 80022fc:	2201      	movs	r2, #1
 80022fe:	431a      	orrs	r2, r3
 8002300:	687b      	ldr	r3, [r7, #4]
 8002302:	655a      	str	r2, [r3, #84]	; 0x54
 8002304:	e009      	b.n	800231a <HAL_ADCEx_Calibration_Start+0x122>
                      HAL_ADC_STATE_READY);
  }
  else
  {
    /* Update ADC state machine to error */
    SET_BIT(hadc->State, HAL_ADC_STATE_ERROR_CONFIG);
 8002306:	687b      	ldr	r3, [r7, #4]
 8002308:	6d5b      	ldr	r3, [r3, #84]	; 0x54
 800230a:	2220      	movs	r2, #32
 800230c:	431a      	orrs	r2, r3
 800230e:	687b      	ldr	r3, [r7, #4]
 8002310:	655a      	str	r2, [r3, #84]	; 0x54
    
    tmp_hal_status = HAL_ERROR;
 8002312:	2317      	movs	r3, #23
 8002314:	18fb      	adds	r3, r7, r3
 8002316:	2201      	movs	r2, #1
 8002318:	701a      	strb	r2, [r3, #0]
  }
  
  /* Process unlocked */
  __HAL_UNLOCK(hadc);
 800231a:	687b      	ldr	r3, [r7, #4]
 800231c:	2250      	movs	r2, #80	; 0x50
 800231e:	2100      	movs	r1, #0
 8002320:	5499      	strb	r1, [r3, r2]
  
  /* Return function status */
  return tmp_hal_status;
 8002322:	2317      	movs	r3, #23
 8002324:	18fb      	adds	r3, r7, r3
 8002326:	781b      	ldrb	r3, [r3, #0]
}
 8002328:	0018      	movs	r0, r3
 800232a:	46bd      	mov	sp, r7
 800232c:	b006      	add	sp, #24
 800232e:	bd80      	pop	{r7, pc}
 8002330:	fffffefd 	.word	0xfffffefd

08002334 <__NVIC_EnableIRQ>:
  \details Enables a device specific interrupt in the NVIC interrupt controller.
  \param [in]      IRQn  Device specific interrupt number.
  \note    IRQn must not be negative.
 */
__STATIC_INLINE void __NVIC_EnableIRQ(IRQn_Type IRQn)
{
 8002334:	b580      	push	{r7, lr}
 8002336:	b082      	sub	sp, #8
 8002338:	af00      	add	r7, sp, #0
 800233a:	0002      	movs	r2, r0
 800233c:	1dfb      	adds	r3, r7, #7
 800233e:	701a      	strb	r2, [r3, #0]
  if ((int32_t)(IRQn) >= 0)
 8002340:	1dfb      	adds	r3, r7, #7
 8002342:	781b      	ldrb	r3, [r3, #0]
 8002344:	2b7f      	cmp	r3, #127	; 0x7f
 8002346:	d809      	bhi.n	800235c <__NVIC_EnableIRQ+0x28>
  {
    NVIC->ISER[0U] = (uint32_t)(1UL << (((uint32_t)IRQn) & 0x1FUL));
 8002348:	1dfb      	adds	r3, r7, #7
 800234a:	781b      	ldrb	r3, [r3, #0]
 800234c:	001a      	movs	r2, r3
 800234e:	231f      	movs	r3, #31
 8002350:	401a      	ands	r2, r3
 8002352:	4b04      	ldr	r3, [pc, #16]	; (8002364 <__NVIC_EnableIRQ+0x30>)
 8002354:	2101      	movs	r1, #1
 8002356:	4091      	lsls	r1, r2
 8002358:	000a      	movs	r2, r1
 800235a:	601a      	str	r2, [r3, #0]
  }
}
 800235c:	46c0      	nop			; (mov r8, r8)
 800235e:	46bd      	mov	sp, r7
 8002360:	b002      	add	sp, #8
 8002362:	bd80      	pop	{r7, pc}
 8002364:	e000e100 	.word	0xe000e100

08002368 <__NVIC_SetPriority>:
  \param [in]      IRQn  Interrupt number.
  \param [in]  priority  Priority to set.
  \note    The priority cannot be set for every processor exception.
 */
__STATIC_INLINE void __NVIC_SetPriority(IRQn_Type IRQn, uint32_t priority)
{
 8002368:	b590      	push	{r4, r7, lr}
 800236a:	b083      	sub	sp, #12
 800236c:	af00      	add	r7, sp, #0
 800236e:	0002      	movs	r2, r0
 8002370:	6039      	str	r1, [r7, #0]
 8002372:	1dfb      	adds	r3, r7, #7
 8002374:	701a      	strb	r2, [r3, #0]
  if ((int32_t)(IRQn) >= 0)
 8002376:	1dfb      	adds	r3, r7, #7
 8002378:	781b      	ldrb	r3, [r3, #0]
 800237a:	2b7f      	cmp	r3, #127	; 0x7f
 800237c:	d828      	bhi.n	80023d0 <__NVIC_SetPriority+0x68>
  {
    NVIC->IP[_IP_IDX(IRQn)]  = ((uint32_t)(NVIC->IP[_IP_IDX(IRQn)]  & ~(0xFFUL << _BIT_SHIFT(IRQn))) |
 800237e:	4a2f      	ldr	r2, [pc, #188]	; (800243c <__NVIC_SetPriority+0xd4>)
 8002380:	1dfb      	adds	r3, r7, #7
 8002382:	781b      	ldrb	r3, [r3, #0]
 8002384:	b25b      	sxtb	r3, r3
 8002386:	089b      	lsrs	r3, r3, #2
 8002388:	33c0      	adds	r3, #192	; 0xc0
 800238a:	009b      	lsls	r3, r3, #2
 800238c:	589b      	ldr	r3, [r3, r2]
 800238e:	1dfa      	adds	r2, r7, #7
 8002390:	7812      	ldrb	r2, [r2, #0]
 8002392:	0011      	movs	r1, r2
 8002394:	2203      	movs	r2, #3
 8002396:	400a      	ands	r2, r1
 8002398:	00d2      	lsls	r2, r2, #3
 800239a:	21ff      	movs	r1, #255	; 0xff
 800239c:	4091      	lsls	r1, r2
 800239e:	000a      	movs	r2, r1
 80023a0:	43d2      	mvns	r2, r2
 80023a2:	401a      	ands	r2, r3
 80023a4:	0011      	movs	r1, r2
       (((priority << (8U - __NVIC_PRIO_BITS)) & (uint32_t)0xFFUL) << _BIT_SHIFT(IRQn)));
 80023a6:	683b      	ldr	r3, [r7, #0]
 80023a8:	019b      	lsls	r3, r3, #6
 80023aa:	22ff      	movs	r2, #255	; 0xff
 80023ac:	401a      	ands	r2, r3
 80023ae:	1dfb      	adds	r3, r7, #7
 80023b0:	781b      	ldrb	r3, [r3, #0]
 80023b2:	0018      	movs	r0, r3
 80023b4:	2303      	movs	r3, #3
 80023b6:	4003      	ands	r3, r0
 80023b8:	00db      	lsls	r3, r3, #3
 80023ba:	409a      	lsls	r2, r3
    NVIC->IP[_IP_IDX(IRQn)]  = ((uint32_t)(NVIC->IP[_IP_IDX(IRQn)]  & ~(0xFFUL << _BIT_SHIFT(IRQn))) |
 80023bc:	481f      	ldr	r0, [pc, #124]	; (800243c <__NVIC_SetPriority+0xd4>)
 80023be:	1dfb      	adds	r3, r7, #7
 80023c0:	781b      	ldrb	r3, [r3, #0]
 80023c2:	b25b      	sxtb	r3, r3
 80023c4:	089b      	lsrs	r3, r3, #2
 80023c6:	430a      	orrs	r2, r1
 80023c8:	33c0      	adds	r3, #192	; 0xc0
 80023ca:	009b      	lsls	r3, r3, #2
 80023cc:	501a      	str	r2, [r3, r0]
  else
  {
    SCB->SHP[_SHP_IDX(IRQn)] = ((uint32_t)(SCB->SHP[_SHP_IDX(IRQn)] & ~(0xFFUL << _BIT_SHIFT(IRQn))) |
       (((priority << (8U - __NVIC_PRIO_BITS)) & (uint32_t)0xFFUL) << _BIT_SHIFT(IRQn)));
  }
}
 80023ce:	e031      	b.n	8002434 <__NVIC_SetPriority+0xcc>
    SCB->SHP[_SHP_IDX(IRQn)] = ((uint32_t)(SCB->SHP[_SHP_IDX(IRQn)] & ~(0xFFUL << _BIT_SHIFT(IRQn))) |
 80023d0:	4a1b      	ldr	r2, [pc, #108]	; (8002440 <__NVIC_SetPriority+0xd8>)
 80023d2:	1dfb      	adds	r3, r7, #7
 80023d4:	781b      	ldrb	r3, [r3, #0]
 80023d6:	0019      	movs	r1, r3
 80023d8:	230f      	movs	r3, #15
 80023da:	400b      	ands	r3, r1
 80023dc:	3b08      	subs	r3, #8
 80023de:	089b      	lsrs	r3, r3, #2
 80023e0:	3306      	adds	r3, #6
 80023e2:	009b      	lsls	r3, r3, #2
 80023e4:	18d3      	adds	r3, r2, r3
 80023e6:	3304      	adds	r3, #4
 80023e8:	681b      	ldr	r3, [r3, #0]
 80023ea:	1dfa      	adds	r2, r7, #7
 80023ec:	7812      	ldrb	r2, [r2, #0]
 80023ee:	0011      	movs	r1, r2
 80023f0:	2203      	movs	r2, #3
 80023f2:	400a      	ands	r2, r1
 80023f4:	00d2      	lsls	r2, r2, #3
 80023f6:	21ff      	movs	r1, #255	; 0xff
 80023f8:	4091      	lsls	r1, r2
 80023fa:	000a      	movs	r2, r1
 80023fc:	43d2      	mvns	r2, r2
 80023fe:	401a      	ands	r2, r3
 8002400:	0011      	movs	r1, r2
       (((priority << (8U - __NVIC_PRIO_BITS)) & (uint32_t)0xFFUL) << _BIT_SHIFT(IRQn)));
 8002402:	683b      	ldr	r3, [r7, #0]
 8002404:	019b      	lsls	r3, r3, #6
 8002406:	22ff      	movs	r2, #255	; 0xff
 8002408:	401a      	ands	r2, r3
 800240a:	1dfb      	adds	r3, r7, #7
 800240c:	781b      	ldrb	r3, [r3, #0]
 800240e:	0018      	movs	r0, r3
 8002410:	2303      	movs	r3, #3
 8002412:	4003      	ands	r3, r0
 8002414:	00db      	lsls	r3, r3, #3
 8002416:	409a      	lsls	r2, r3
    SCB->SHP[_SHP_IDX(IRQn)] = ((uint32_t)(SCB->SHP[_SHP_IDX(IRQn)] & ~(0xFFUL << _BIT_SHIFT(IRQn))) |
 8002418:	4809      	ldr	r0, [pc, #36]	; (8002440 <__NVIC_SetPriority+0xd8>)
 800241a:	1dfb      	adds	r3, r7, #7
 800241c:	781b      	ldrb	r3, [r3, #0]
 800241e:	001c      	movs	r4, r3
 8002420:	230f      	movs	r3, #15
 8002422:	4023      	ands	r3, r4
 8002424:	3b08      	subs	r3, #8
 8002426:	089b      	lsrs	r3, r3, #2
 8002428:	430a      	orrs	r2, r1
 800242a:	3306      	adds	r3, #6
 800242c:	009b      	lsls	r3, r3, #2
 800242e:	18c3      	adds	r3, r0, r3
 8002430:	3304      	adds	r3, #4
 8002432:	601a      	str	r2, [r3, #0]
}
 8002434:	46c0      	nop			; (mov r8, r8)
 8002436:	46bd      	mov	sp, r7
 8002438:	b003      	add	sp, #12
 800243a:	bd90      	pop	{r4, r7, pc}
 800243c:	e000e100 	.word	0xe000e100
 8002440:	e000ed00 	.word	0xe000ed00

08002444 <SysTick_Config>:
  \note    When the variable <b>__Vendor_SysTickConfig</b> is set to 1, then the
           function <b>SysTick_Config</b> is not included. In this case, the file <b><i>device</i>.h</b>
           must contain a vendor-specific implementation of this function.
 */
__STATIC_INLINE uint32_t SysTick_Config(uint32_t ticks)
{
 8002444:	b580      	push	{r7, lr}
 8002446:	b082      	sub	sp, #8
 8002448:	af00      	add	r7, sp, #0
 800244a:	6078      	str	r0, [r7, #4]
  if ((ticks - 1UL) > SysTick_LOAD_RELOAD_Msk)
 800244c:	687b      	ldr	r3, [r7, #4]
 800244e:	1e5a      	subs	r2, r3, #1
 8002450:	2380      	movs	r3, #128	; 0x80
 8002452:	045b      	lsls	r3, r3, #17
 8002454:	429a      	cmp	r2, r3
 8002456:	d301      	bcc.n	800245c <SysTick_Config+0x18>
  {
    return (1UL);                                                   /* Reload value impossible */
 8002458:	2301      	movs	r3, #1
 800245a:	e010      	b.n	800247e <SysTick_Config+0x3a>
  }

  SysTick->LOAD  = (uint32_t)(ticks - 1UL);                         /* set reload register */
 800245c:	4b0a      	ldr	r3, [pc, #40]	; (8002488 <SysTick_Config+0x44>)
 800245e:	687a      	ldr	r2, [r7, #4]
 8002460:	3a01      	subs	r2, #1
 8002462:	605a      	str	r2, [r3, #4]
  NVIC_SetPriority (SysTick_IRQn, (1UL << __NVIC_PRIO_BITS) - 1UL); /* set Priority for Systick Interrupt */
 8002464:	2301      	movs	r3, #1
 8002466:	425b      	negs	r3, r3
 8002468:	2103      	movs	r1, #3
 800246a:	0018      	movs	r0, r3
 800246c:	f7ff ff7c 	bl	8002368 <__NVIC_SetPriority>
  SysTick->VAL   = 0UL;                                             /* Load the SysTick Counter Value */
 8002470:	4b05      	ldr	r3, [pc, #20]	; (8002488 <SysTick_Config+0x44>)
 8002472:	2200      	movs	r2, #0
 8002474:	609a      	str	r2, [r3, #8]
  SysTick->CTRL  = SysTick_CTRL_CLKSOURCE_Msk |
 8002476:	4b04      	ldr	r3, [pc, #16]	; (8002488 <SysTick_Config+0x44>)
 8002478:	2207      	movs	r2, #7
 800247a:	601a      	str	r2, [r3, #0]
                   SysTick_CTRL_TICKINT_Msk   |
                   SysTick_CTRL_ENABLE_Msk;                         /* Enable SysTick IRQ and SysTick Timer */
  return (0UL);                                                     /* Function successful */
 800247c:	2300      	movs	r3, #0
}
 800247e:	0018      	movs	r0, r3
 8002480:	46bd      	mov	sp, r7
 8002482:	b002      	add	sp, #8
 8002484:	bd80      	pop	{r7, pc}
 8002486:	46c0      	nop			; (mov r8, r8)
 8002488:	e000e010 	.word	0xe000e010

0800248c <HAL_NVIC_SetPriority>:
  *         with stm32l0xx devices, this parameter is a dummy value and it is ignored, because 
  *         no subpriority supported in Cortex M0+ based products.   
  * @retval None
  */
void HAL_NVIC_SetPriority(IRQn_Type IRQn, uint32_t PreemptPriority, uint32_t SubPriority)
{ 
 800248c:	b580      	push	{r7, lr}
 800248e:	b084      	sub	sp, #16
 8002490:	af00      	add	r7, sp, #0
 8002492:	60b9      	str	r1, [r7, #8]
 8002494:	607a      	str	r2, [r7, #4]
 8002496:	210f      	movs	r1, #15
 8002498:	187b      	adds	r3, r7, r1
 800249a:	1c02      	adds	r2, r0, #0
 800249c:	701a      	strb	r2, [r3, #0]
    /* Check the parameters */
  assert_param(IS_NVIC_PREEMPTION_PRIORITY(PreemptPriority));
  NVIC_SetPriority(IRQn,PreemptPriority);
 800249e:	68ba      	ldr	r2, [r7, #8]
 80024a0:	187b      	adds	r3, r7, r1
 80024a2:	781b      	ldrb	r3, [r3, #0]
 80024a4:	b25b      	sxtb	r3, r3
 80024a6:	0011      	movs	r1, r2
 80024a8:	0018      	movs	r0, r3
 80024aa:	f7ff ff5d 	bl	8002368 <__NVIC_SetPriority>
}
 80024ae:	46c0      	nop			; (mov r8, r8)
 80024b0:	46bd      	mov	sp, r7
 80024b2:	b004      	add	sp, #16
 80024b4:	bd80      	pop	{r7, pc}

080024b6 <HAL_NVIC_EnableIRQ>:
  *         This parameter can be an enumerator of  IRQn_Type enumeration
  *         (For the complete STM32 Devices IRQ Channels list, please refer to stm32l0xx.h file)  
  * @retval None
  */
void HAL_NVIC_EnableIRQ(IRQn_Type IRQn)
{
 80024b6:	b580      	push	{r7, lr}
 80024b8:	b082      	sub	sp, #8
 80024ba:	af00      	add	r7, sp, #0
 80024bc:	0002      	movs	r2, r0
 80024be:	1dfb      	adds	r3, r7, #7
 80024c0:	701a      	strb	r2, [r3, #0]
  /* Check the parameters */
  assert_param(IS_NVIC_DEVICE_IRQ(IRQn));
  
  /* Enable interrupt */
  NVIC_EnableIRQ(IRQn);
 80024c2:	1dfb      	adds	r3, r7, #7
 80024c4:	781b      	ldrb	r3, [r3, #0]
 80024c6:	b25b      	sxtb	r3, r3
 80024c8:	0018      	movs	r0, r3
 80024ca:	f7ff ff33 	bl	8002334 <__NVIC_EnableIRQ>
}
 80024ce:	46c0      	nop			; (mov r8, r8)
 80024d0:	46bd      	mov	sp, r7
 80024d2:	b002      	add	sp, #8
 80024d4:	bd80      	pop	{r7, pc}

080024d6 <HAL_SYSTICK_Config>:
  * @param  TicksNumb Specifies the ticks Number of ticks between two interrupts.
  * @retval status:  - 0  Function succeeded.
  *                  - 1  Function failed.
  */
uint32_t HAL_SYSTICK_Config(uint32_t TicksNumb)
{
 80024d6:	b580      	push	{r7, lr}
 80024d8:	b082      	sub	sp, #8
 80024da:	af00      	add	r7, sp, #0
 80024dc:	6078      	str	r0, [r7, #4]
   return SysTick_Config(TicksNumb);
 80024de:	687b      	ldr	r3, [r7, #4]
 80024e0:	0018      	movs	r0, r3
 80024e2:	f7ff ffaf 	bl	8002444 <SysTick_Config>
 80024e6:	0003      	movs	r3, r0
}
 80024e8:	0018      	movs	r0, r3
 80024ea:	46bd      	mov	sp, r7
 80024ec:	b002      	add	sp, #8
 80024ee:	bd80      	pop	{r7, pc}

080024f0 <HAL_DMA_Abort>:
  * @param  hdma pointer to a DMA_HandleTypeDef structure that contains
  *               the configuration information for the specified DMA Channel.
    * @retval HAL status
  */
HAL_StatusTypeDef HAL_DMA_Abort(DMA_HandleTypeDef *hdma)
{
 80024f0:	b580      	push	{r7, lr}
 80024f2:	b084      	sub	sp, #16
 80024f4:	af00      	add	r7, sp, #0
 80024f6:	6078      	str	r0, [r7, #4]
  HAL_StatusTypeDef status = HAL_OK;
 80024f8:	230f      	movs	r3, #15
 80024fa:	18fb      	adds	r3, r7, r3
 80024fc:	2200      	movs	r2, #0
 80024fe:	701a      	strb	r2, [r3, #0]

  /* Check the DMA peripheral state */
  if(hdma->State != HAL_DMA_STATE_BUSY)
 8002500:	687b      	ldr	r3, [r7, #4]
 8002502:	2225      	movs	r2, #37	; 0x25
 8002504:	5c9b      	ldrb	r3, [r3, r2]
 8002506:	b2db      	uxtb	r3, r3
 8002508:	2b02      	cmp	r3, #2
 800250a:	d008      	beq.n	800251e <HAL_DMA_Abort+0x2e>
  {
    hdma->ErrorCode = HAL_DMA_ERROR_NO_XFER;
 800250c:	687b      	ldr	r3, [r7, #4]
 800250e:	2204      	movs	r2, #4
 8002510:	63da      	str	r2, [r3, #60]	; 0x3c

    /* Process Unlocked */
    __HAL_UNLOCK(hdma);
 8002512:	687b      	ldr	r3, [r7, #4]
 8002514:	2224      	movs	r2, #36	; 0x24
 8002516:	2100      	movs	r1, #0
 8002518:	5499      	strb	r1, [r3, r2]

    return HAL_ERROR;
 800251a:	2301      	movs	r3, #1
 800251c:	e024      	b.n	8002568 <HAL_DMA_Abort+0x78>
  }
  else
  {
    /* Disable DMA IT */
    __HAL_DMA_DISABLE_IT(hdma, (DMA_IT_TC | DMA_IT_HT | DMA_IT_TE));
 800251e:	687b      	ldr	r3, [r7, #4]
 8002520:	681b      	ldr	r3, [r3, #0]
 8002522:	681a      	ldr	r2, [r3, #0]
 8002524:	687b      	ldr	r3, [r7, #4]
 8002526:	681b      	ldr	r3, [r3, #0]
 8002528:	210e      	movs	r1, #14
 800252a:	438a      	bics	r2, r1
 800252c:	601a      	str	r2, [r3, #0]

    /* Disable the channel */
    __HAL_DMA_DISABLE(hdma);
 800252e:	687b      	ldr	r3, [r7, #4]
 8002530:	681b      	ldr	r3, [r3, #0]
 8002532:	681a      	ldr	r2, [r3, #0]
 8002534:	687b      	ldr	r3, [r7, #4]
 8002536:	681b      	ldr	r3, [r3, #0]
 8002538:	2101      	movs	r1, #1
 800253a:	438a      	bics	r2, r1
 800253c:	601a      	str	r2, [r3, #0]

    /* Clear all flags */
    hdma->DmaBaseAddress->IFCR = (DMA_ISR_GIF1 << (hdma->ChannelIndex & 0x1cU));
 800253e:	687b      	ldr	r3, [r7, #4]
 8002540:	6c5b      	ldr	r3, [r3, #68]	; 0x44
 8002542:	221c      	movs	r2, #28
 8002544:	401a      	ands	r2, r3
 8002546:	687b      	ldr	r3, [r7, #4]
 8002548:	6c1b      	ldr	r3, [r3, #64]	; 0x40
 800254a:	2101      	movs	r1, #1
 800254c:	4091      	lsls	r1, r2
 800254e:	000a      	movs	r2, r1
 8002550:	605a      	str	r2, [r3, #4]

    /* Change the DMA state */
    hdma->State = HAL_DMA_STATE_READY;
 8002552:	687b      	ldr	r3, [r7, #4]
 8002554:	2225      	movs	r2, #37	; 0x25
 8002556:	2101      	movs	r1, #1
 8002558:	5499      	strb	r1, [r3, r2]

    /* Process Unlocked */
    __HAL_UNLOCK(hdma);
 800255a:	687b      	ldr	r3, [r7, #4]
 800255c:	2224      	movs	r2, #36	; 0x24
 800255e:	2100      	movs	r1, #0
 8002560:	5499      	strb	r1, [r3, r2]

    return status;
 8002562:	230f      	movs	r3, #15
 8002564:	18fb      	adds	r3, r7, r3
 8002566:	781b      	ldrb	r3, [r3, #0]
  }
}
 8002568:	0018      	movs	r0, r3
 800256a:	46bd      	mov	sp, r7
 800256c:	b004      	add	sp, #16
 800256e:	bd80      	pop	{r7, pc}

08002570 <HAL_DMA_Abort_IT>:
  * @param  hdma pointer to a DMA_HandleTypeDef structure that contains
  *                 the configuration information for the specified DMA Channel.
  * @retval HAL status
  */
HAL_StatusTypeDef HAL_DMA_Abort_IT(DMA_HandleTypeDef *hdma)
{
 8002570:	b580      	push	{r7, lr}
 8002572:	b084      	sub	sp, #16
 8002574:	af00      	add	r7, sp, #0
 8002576:	6078      	str	r0, [r7, #4]
  HAL_StatusTypeDef status = HAL_OK;
 8002578:	210f      	movs	r1, #15
 800257a:	187b      	adds	r3, r7, r1
 800257c:	2200      	movs	r2, #0
 800257e:	701a      	strb	r2, [r3, #0]

  if(HAL_DMA_STATE_BUSY != hdma->State)
 8002580:	687b      	ldr	r3, [r7, #4]
 8002582:	2225      	movs	r2, #37	; 0x25
 8002584:	5c9b      	ldrb	r3, [r3, r2]
 8002586:	b2db      	uxtb	r3, r3
 8002588:	2b02      	cmp	r3, #2
 800258a:	d006      	beq.n	800259a <HAL_DMA_Abort_IT+0x2a>
  {
    /* no transfer ongoing */
    hdma->ErrorCode = HAL_DMA_ERROR_NO_XFER;
 800258c:	687b      	ldr	r3, [r7, #4]
 800258e:	2204      	movs	r2, #4
 8002590:	63da      	str	r2, [r3, #60]	; 0x3c

    status = HAL_ERROR;
 8002592:	187b      	adds	r3, r7, r1
 8002594:	2201      	movs	r2, #1
 8002596:	701a      	strb	r2, [r3, #0]
 8002598:	e02a      	b.n	80025f0 <HAL_DMA_Abort_IT+0x80>
  }
  else
  {
    /* Disable DMA IT */
    __HAL_DMA_DISABLE_IT(hdma, (DMA_IT_TC | DMA_IT_HT | DMA_IT_TE));
 800259a:	687b      	ldr	r3, [r7, #4]
 800259c:	681b      	ldr	r3, [r3, #0]
 800259e:	681a      	ldr	r2, [r3, #0]
 80025a0:	687b      	ldr	r3, [r7, #4]
 80025a2:	681b      	ldr	r3, [r3, #0]
 80025a4:	210e      	movs	r1, #14
 80025a6:	438a      	bics	r2, r1
 80025a8:	601a      	str	r2, [r3, #0]

    /* Disable the channel */
    __HAL_DMA_DISABLE(hdma);
 80025aa:	687b      	ldr	r3, [r7, #4]
 80025ac:	681b      	ldr	r3, [r3, #0]
 80025ae:	681a      	ldr	r2, [r3, #0]
 80025b0:	687b      	ldr	r3, [r7, #4]
 80025b2:	681b      	ldr	r3, [r3, #0]
 80025b4:	2101      	movs	r1, #1
 80025b6:	438a      	bics	r2, r1
 80025b8:	601a      	str	r2, [r3, #0]

    /* Clear all flags */
    hdma->DmaBaseAddress->IFCR = (DMA_ISR_GIF1 << (hdma->ChannelIndex & 0x1cU));
 80025ba:	687b      	ldr	r3, [r7, #4]
 80025bc:	6c5b      	ldr	r3, [r3, #68]	; 0x44
 80025be:	221c      	movs	r2, #28
 80025c0:	401a      	ands	r2, r3
 80025c2:	687b      	ldr	r3, [r7, #4]
 80025c4:	6c1b      	ldr	r3, [r3, #64]	; 0x40
 80025c6:	2101      	movs	r1, #1
 80025c8:	4091      	lsls	r1, r2
 80025ca:	000a      	movs	r2, r1
 80025cc:	605a      	str	r2, [r3, #4]

    /* Change the DMA state */
    hdma->State = HAL_DMA_STATE_READY;
 80025ce:	687b      	ldr	r3, [r7, #4]
 80025d0:	2225      	movs	r2, #37	; 0x25
 80025d2:	2101      	movs	r1, #1
 80025d4:	5499      	strb	r1, [r3, r2]

    /* Process Unlocked */
    __HAL_UNLOCK(hdma);
 80025d6:	687b      	ldr	r3, [r7, #4]
 80025d8:	2224      	movs	r2, #36	; 0x24
 80025da:	2100      	movs	r1, #0
 80025dc:	5499      	strb	r1, [r3, r2]

    /* Call User Abort callback */
    if(hdma->XferAbortCallback != NULL)
 80025de:	687b      	ldr	r3, [r7, #4]
 80025e0:	6b9b      	ldr	r3, [r3, #56]	; 0x38
 80025e2:	2b00      	cmp	r3, #0
 80025e4:	d004      	beq.n	80025f0 <HAL_DMA_Abort_IT+0x80>
    {
      hdma->XferAbortCallback(hdma);
 80025e6:	687b      	ldr	r3, [r7, #4]
 80025e8:	6b9b      	ldr	r3, [r3, #56]	; 0x38
 80025ea:	687a      	ldr	r2, [r7, #4]
 80025ec:	0010      	movs	r0, r2
 80025ee:	4798      	blx	r3
    }
  }
  return status;
 80025f0:	230f      	movs	r3, #15
 80025f2:	18fb      	adds	r3, r7, r3
 80025f4:	781b      	ldrb	r3, [r3, #0]
}
 80025f6:	0018      	movs	r0, r3
 80025f8:	46bd      	mov	sp, r7
 80025fa:	b004      	add	sp, #16
 80025fc:	bd80      	pop	{r7, pc}
	...

08002600 <HAL_GPIO_Init>:
  * @param  GPIO_Init pointer to a GPIO_InitTypeDef structure that contains
  *                    the configuration information for the specified GPIO peripheral.
  * @retval None
  */
void HAL_GPIO_Init(GPIO_TypeDef  *GPIOx, GPIO_InitTypeDef *GPIO_Init)
{
 8002600:	b580      	push	{r7, lr}
 8002602:	b086      	sub	sp, #24
 8002604:	af00      	add	r7, sp, #0
 8002606:	6078      	str	r0, [r7, #4]
 8002608:	6039      	str	r1, [r7, #0]
  uint32_t position = 0x00U;
 800260a:	2300      	movs	r3, #0
 800260c:	617b      	str	r3, [r7, #20]
  uint32_t iocurrent = 0x00U;
 800260e:	2300      	movs	r3, #0
 8002610:	60fb      	str	r3, [r7, #12]
  uint32_t temp = 0x00U;
 8002612:	2300      	movs	r3, #0
 8002614:	613b      	str	r3, [r7, #16]
  /* Check the parameters */
  assert_param(IS_GPIO_MODE(GPIO_Init->Mode));
  assert_param(IS_GPIO_PIN_AVAILABLE(GPIOx, (GPIO_Init->Pin)));

  /* Configure the port pins */
  while (((GPIO_Init->Pin) >> position) != 0)
 8002616:	e155      	b.n	80028c4 <HAL_GPIO_Init+0x2c4>
  {
    /* Get the IO position */
    iocurrent = (GPIO_Init->Pin) & (1U << position);
 8002618:	683b      	ldr	r3, [r7, #0]
 800261a:	681b      	ldr	r3, [r3, #0]
 800261c:	2101      	movs	r1, #1
 800261e:	697a      	ldr	r2, [r7, #20]
 8002620:	4091      	lsls	r1, r2
 8002622:	000a      	movs	r2, r1
 8002624:	4013      	ands	r3, r2
 8002626:	60fb      	str	r3, [r7, #12]

    if (iocurrent)
 8002628:	68fb      	ldr	r3, [r7, #12]
 800262a:	2b00      	cmp	r3, #0
 800262c:	d100      	bne.n	8002630 <HAL_GPIO_Init+0x30>
 800262e:	e146      	b.n	80028be <HAL_GPIO_Init+0x2be>
    {
      /*--------------------- GPIO Mode Configuration ------------------------*/
      /* In case of Output or Alternate function mode selection */
      if (((GPIO_Init->Mode & GPIO_MODE) == MODE_OUTPUT) ||
 8002630:	683b      	ldr	r3, [r7, #0]
 8002632:	685b      	ldr	r3, [r3, #4]
 8002634:	2203      	movs	r2, #3
 8002636:	4013      	ands	r3, r2
 8002638:	2b01      	cmp	r3, #1
 800263a:	d005      	beq.n	8002648 <HAL_GPIO_Init+0x48>
          ((GPIO_Init->Mode & GPIO_MODE) == MODE_AF))
 800263c:	683b      	ldr	r3, [r7, #0]
 800263e:	685b      	ldr	r3, [r3, #4]
 8002640:	2203      	movs	r2, #3
 8002642:	4013      	ands	r3, r2
      if (((GPIO_Init->Mode & GPIO_MODE) == MODE_OUTPUT) ||
 8002644:	2b02      	cmp	r3, #2
 8002646:	d130      	bne.n	80026aa <HAL_GPIO_Init+0xaa>
      {
        /* Check the Speed parameter */
        assert_param(IS_GPIO_SPEED(GPIO_Init->Speed));
        /* Configure the IO Speed */
        temp = GPIOx->OSPEEDR;
 8002648:	687b      	ldr	r3, [r7, #4]
 800264a:	689b      	ldr	r3, [r3, #8]
 800264c:	613b      	str	r3, [r7, #16]
        temp &= ~(GPIO_OSPEEDER_OSPEED0 << (position * 2U));
 800264e:	697b      	ldr	r3, [r7, #20]
 8002650:	005b      	lsls	r3, r3, #1
 8002652:	2203      	movs	r2, #3
 8002654:	409a      	lsls	r2, r3
 8002656:	0013      	movs	r3, r2
 8002658:	43da      	mvns	r2, r3
 800265a:	693b      	ldr	r3, [r7, #16]
 800265c:	4013      	ands	r3, r2
 800265e:	613b      	str	r3, [r7, #16]
        temp |= (GPIO_Init->Speed << (position * 2U));
 8002660:	683b      	ldr	r3, [r7, #0]
 8002662:	68da      	ldr	r2, [r3, #12]
 8002664:	697b      	ldr	r3, [r7, #20]
 8002666:	005b      	lsls	r3, r3, #1
 8002668:	409a      	lsls	r2, r3
 800266a:	0013      	movs	r3, r2
 800266c:	693a      	ldr	r2, [r7, #16]
 800266e:	4313      	orrs	r3, r2
 8002670:	613b      	str	r3, [r7, #16]
        GPIOx->OSPEEDR = temp;
 8002672:	687b      	ldr	r3, [r7, #4]
 8002674:	693a      	ldr	r2, [r7, #16]
 8002676:	609a      	str	r2, [r3, #8]

        /* Configure the IO Output Type */
        temp = GPIOx->OTYPER;
 8002678:	687b      	ldr	r3, [r7, #4]
 800267a:	685b      	ldr	r3, [r3, #4]
 800267c:	613b      	str	r3, [r7, #16]
        temp &= ~(GPIO_OTYPER_OT_0 << position) ;
 800267e:	2201      	movs	r2, #1
 8002680:	697b      	ldr	r3, [r7, #20]
 8002682:	409a      	lsls	r2, r3
 8002684:	0013      	movs	r3, r2
 8002686:	43da      	mvns	r2, r3
 8002688:	693b      	ldr	r3, [r7, #16]
 800268a:	4013      	ands	r3, r2
 800268c:	613b      	str	r3, [r7, #16]
        temp |= (((GPIO_Init->Mode & OUTPUT_TYPE) >> OUTPUT_TYPE_Pos) << position);
 800268e:	683b      	ldr	r3, [r7, #0]
 8002690:	685b      	ldr	r3, [r3, #4]
 8002692:	091b      	lsrs	r3, r3, #4
 8002694:	2201      	movs	r2, #1
 8002696:	401a      	ands	r2, r3
 8002698:	697b      	ldr	r3, [r7, #20]
 800269a:	409a      	lsls	r2, r3
 800269c:	0013      	movs	r3, r2
 800269e:	693a      	ldr	r2, [r7, #16]
 80026a0:	4313      	orrs	r3, r2
 80026a2:	613b      	str	r3, [r7, #16]
        GPIOx->OTYPER = temp;
 80026a4:	687b      	ldr	r3, [r7, #4]
 80026a6:	693a      	ldr	r2, [r7, #16]
 80026a8:	605a      	str	r2, [r3, #4]
      }

      if ((GPIO_Init->Mode & GPIO_MODE) != MODE_ANALOG)
 80026aa:	683b      	ldr	r3, [r7, #0]
 80026ac:	685b      	ldr	r3, [r3, #4]
 80026ae:	2203      	movs	r2, #3
 80026b0:	4013      	ands	r3, r2
 80026b2:	2b03      	cmp	r3, #3
 80026b4:	d017      	beq.n	80026e6 <HAL_GPIO_Init+0xe6>
      {
        /* Check the Pull parameter */
        assert_param(IS_GPIO_PULL(GPIO_Init->Pull));

        /* Activate the Pull-up or Pull down resistor for the current IO */
        temp = GPIOx->PUPDR;
 80026b6:	687b      	ldr	r3, [r7, #4]
 80026b8:	68db      	ldr	r3, [r3, #12]
 80026ba:	613b      	str	r3, [r7, #16]
        temp &= ~(GPIO_PUPDR_PUPD0 << (position * 2U));
 80026bc:	697b      	ldr	r3, [r7, #20]
 80026be:	005b      	lsls	r3, r3, #1
 80026c0:	2203      	movs	r2, #3
 80026c2:	409a      	lsls	r2, r3
 80026c4:	0013      	movs	r3, r2
 80026c6:	43da      	mvns	r2, r3
 80026c8:	693b      	ldr	r3, [r7, #16]
 80026ca:	4013      	ands	r3, r2
 80026cc:	613b      	str	r3, [r7, #16]
        temp |= ((GPIO_Init->Pull) << (position * 2U));
 80026ce:	683b      	ldr	r3, [r7, #0]
 80026d0:	689a      	ldr	r2, [r3, #8]
 80026d2:	697b      	ldr	r3, [r7, #20]
 80026d4:	005b      	lsls	r3, r3, #1
 80026d6:	409a      	lsls	r2, r3
 80026d8:	0013      	movs	r3, r2
 80026da:	693a      	ldr	r2, [r7, #16]
 80026dc:	4313      	orrs	r3, r2
 80026de:	613b      	str	r3, [r7, #16]
        GPIOx->PUPDR = temp;
 80026e0:	687b      	ldr	r3, [r7, #4]
 80026e2:	693a      	ldr	r2, [r7, #16]
 80026e4:	60da      	str	r2, [r3, #12]
      }

      /* In case of Alternate function mode selection */
      if ((GPIO_Init->Mode & GPIO_MODE) == MODE_AF)
 80026e6:	683b      	ldr	r3, [r7, #0]
 80026e8:	685b      	ldr	r3, [r3, #4]
 80026ea:	2203      	movs	r2, #3
 80026ec:	4013      	ands	r3, r2
 80026ee:	2b02      	cmp	r3, #2
 80026f0:	d123      	bne.n	800273a <HAL_GPIO_Init+0x13a>
        /* Check the Alternate function parameters */
        assert_param(IS_GPIO_AF_INSTANCE(GPIOx));
        assert_param(IS_GPIO_AF(GPIO_Init->Alternate));

        /* Configure Alternate function mapped with the current IO */
        temp = GPIOx->AFR[position >> 3U];
 80026f2:	697b      	ldr	r3, [r7, #20]
 80026f4:	08da      	lsrs	r2, r3, #3
 80026f6:	687b      	ldr	r3, [r7, #4]
 80026f8:	3208      	adds	r2, #8
 80026fa:	0092      	lsls	r2, r2, #2
 80026fc:	58d3      	ldr	r3, [r2, r3]
 80026fe:	613b      	str	r3, [r7, #16]
        temp &= ~(0xFUL << ((uint32_t)(position & 0x07UL) * 4U));
 8002700:	697b      	ldr	r3, [r7, #20]
 8002702:	2207      	movs	r2, #7
 8002704:	4013      	ands	r3, r2
 8002706:	009b      	lsls	r3, r3, #2
 8002708:	220f      	movs	r2, #15
 800270a:	409a      	lsls	r2, r3
 800270c:	0013      	movs	r3, r2
 800270e:	43da      	mvns	r2, r3
 8002710:	693b      	ldr	r3, [r7, #16]
 8002712:	4013      	ands	r3, r2
 8002714:	613b      	str	r3, [r7, #16]
        temp |= ((uint32_t)(GPIO_Init->Alternate) << (((uint32_t)position & (uint32_t)0x07U) * 4U));
 8002716:	683b      	ldr	r3, [r7, #0]
 8002718:	691a      	ldr	r2, [r3, #16]
 800271a:	697b      	ldr	r3, [r7, #20]
 800271c:	2107      	movs	r1, #7
 800271e:	400b      	ands	r3, r1
 8002720:	009b      	lsls	r3, r3, #2
 8002722:	409a      	lsls	r2, r3
 8002724:	0013      	movs	r3, r2
 8002726:	693a      	ldr	r2, [r7, #16]
 8002728:	4313      	orrs	r3, r2
 800272a:	613b      	str	r3, [r7, #16]
        GPIOx->AFR[position >> 3U] = temp;
 800272c:	697b      	ldr	r3, [r7, #20]
 800272e:	08da      	lsrs	r2, r3, #3
 8002730:	687b      	ldr	r3, [r7, #4]
 8002732:	3208      	adds	r2, #8
 8002734:	0092      	lsls	r2, r2, #2
 8002736:	6939      	ldr	r1, [r7, #16]
 8002738:	50d1      	str	r1, [r2, r3]
      }

      /* Configure IO Direction mode (Input, Output, Alternate or Analog) */
      temp = GPIOx->MODER;
 800273a:	687b      	ldr	r3, [r7, #4]
 800273c:	681b      	ldr	r3, [r3, #0]
 800273e:	613b      	str	r3, [r7, #16]
      temp &= ~(GPIO_MODER_MODE0 << (position * 2U));
 8002740:	697b      	ldr	r3, [r7, #20]
 8002742:	005b      	lsls	r3, r3, #1
 8002744:	2203      	movs	r2, #3
 8002746:	409a      	lsls	r2, r3
 8002748:	0013      	movs	r3, r2
 800274a:	43da      	mvns	r2, r3
 800274c:	693b      	ldr	r3, [r7, #16]
 800274e:	4013      	ands	r3, r2
 8002750:	613b      	str	r3, [r7, #16]
      temp |= ((GPIO_Init->Mode & GPIO_MODE) << (position * 2U));
 8002752:	683b      	ldr	r3, [r7, #0]
 8002754:	685b      	ldr	r3, [r3, #4]
 8002756:	2203      	movs	r2, #3
 8002758:	401a      	ands	r2, r3
 800275a:	697b      	ldr	r3, [r7, #20]
 800275c:	005b      	lsls	r3, r3, #1
 800275e:	409a      	lsls	r2, r3
 8002760:	0013      	movs	r3, r2
 8002762:	693a      	ldr	r2, [r7, #16]
 8002764:	4313      	orrs	r3, r2
 8002766:	613b      	str	r3, [r7, #16]
      GPIOx->MODER = temp;
 8002768:	687b      	ldr	r3, [r7, #4]
 800276a:	693a      	ldr	r2, [r7, #16]
 800276c:	601a      	str	r2, [r3, #0]

      /*--------------------- EXTI Mode Configuration ------------------------*/
      /* Configure the External Interrupt or event for the current IO */
      if ((GPIO_Init->Mode & EXTI_MODE) != 0x00U)
 800276e:	683b      	ldr	r3, [r7, #0]
 8002770:	685a      	ldr	r2, [r3, #4]
 8002772:	23c0      	movs	r3, #192	; 0xc0
 8002774:	029b      	lsls	r3, r3, #10
 8002776:	4013      	ands	r3, r2
 8002778:	d100      	bne.n	800277c <HAL_GPIO_Init+0x17c>
 800277a:	e0a0      	b.n	80028be <HAL_GPIO_Init+0x2be>
      {
        /* Enable SYSCFG Clock */
        __HAL_RCC_SYSCFG_CLK_ENABLE();
 800277c:	4b57      	ldr	r3, [pc, #348]	; (80028dc <HAL_GPIO_Init+0x2dc>)
 800277e:	6b5a      	ldr	r2, [r3, #52]	; 0x34
 8002780:	4b56      	ldr	r3, [pc, #344]	; (80028dc <HAL_GPIO_Init+0x2dc>)
 8002782:	2101      	movs	r1, #1
 8002784:	430a      	orrs	r2, r1
 8002786:	635a      	str	r2, [r3, #52]	; 0x34

        temp = SYSCFG->EXTICR[position >> 2U];
 8002788:	4a55      	ldr	r2, [pc, #340]	; (80028e0 <HAL_GPIO_Init+0x2e0>)
 800278a:	697b      	ldr	r3, [r7, #20]
 800278c:	089b      	lsrs	r3, r3, #2
 800278e:	3302      	adds	r3, #2
 8002790:	009b      	lsls	r3, r3, #2
 8002792:	589b      	ldr	r3, [r3, r2]
 8002794:	613b      	str	r3, [r7, #16]
        CLEAR_BIT(temp, (0x0FUL) << (4U * (position & 0x03U)));
 8002796:	697b      	ldr	r3, [r7, #20]
 8002798:	2203      	movs	r2, #3
 800279a:	4013      	ands	r3, r2
 800279c:	009b      	lsls	r3, r3, #2
 800279e:	220f      	movs	r2, #15
 80027a0:	409a      	lsls	r2, r3
 80027a2:	0013      	movs	r3, r2
 80027a4:	43da      	mvns	r2, r3
 80027a6:	693b      	ldr	r3, [r7, #16]
 80027a8:	4013      	ands	r3, r2
 80027aa:	613b      	str	r3, [r7, #16]
        SET_BIT(temp, (GPIO_GET_INDEX(GPIOx)) << (4 * (position & 0x03U)));
 80027ac:	687a      	ldr	r2, [r7, #4]
 80027ae:	23a0      	movs	r3, #160	; 0xa0
 80027b0:	05db      	lsls	r3, r3, #23
 80027b2:	429a      	cmp	r2, r3
 80027b4:	d01f      	beq.n	80027f6 <HAL_GPIO_Init+0x1f6>
 80027b6:	687b      	ldr	r3, [r7, #4]
 80027b8:	4a4a      	ldr	r2, [pc, #296]	; (80028e4 <HAL_GPIO_Init+0x2e4>)
 80027ba:	4293      	cmp	r3, r2
 80027bc:	d019      	beq.n	80027f2 <HAL_GPIO_Init+0x1f2>
 80027be:	687b      	ldr	r3, [r7, #4]
 80027c0:	4a49      	ldr	r2, [pc, #292]	; (80028e8 <HAL_GPIO_Init+0x2e8>)
 80027c2:	4293      	cmp	r3, r2
 80027c4:	d013      	beq.n	80027ee <HAL_GPIO_Init+0x1ee>
 80027c6:	687b      	ldr	r3, [r7, #4]
 80027c8:	4a48      	ldr	r2, [pc, #288]	; (80028ec <HAL_GPIO_Init+0x2ec>)
 80027ca:	4293      	cmp	r3, r2
 80027cc:	d00d      	beq.n	80027ea <HAL_GPIO_Init+0x1ea>
 80027ce:	687b      	ldr	r3, [r7, #4]
 80027d0:	4a47      	ldr	r2, [pc, #284]	; (80028f0 <HAL_GPIO_Init+0x2f0>)
 80027d2:	4293      	cmp	r3, r2
 80027d4:	d007      	beq.n	80027e6 <HAL_GPIO_Init+0x1e6>
 80027d6:	687b      	ldr	r3, [r7, #4]
 80027d8:	4a46      	ldr	r2, [pc, #280]	; (80028f4 <HAL_GPIO_Init+0x2f4>)
 80027da:	4293      	cmp	r3, r2
 80027dc:	d101      	bne.n	80027e2 <HAL_GPIO_Init+0x1e2>
 80027de:	2305      	movs	r3, #5
 80027e0:	e00a      	b.n	80027f8 <HAL_GPIO_Init+0x1f8>
 80027e2:	2306      	movs	r3, #6
 80027e4:	e008      	b.n	80027f8 <HAL_GPIO_Init+0x1f8>
 80027e6:	2304      	movs	r3, #4
 80027e8:	e006      	b.n	80027f8 <HAL_GPIO_Init+0x1f8>
 80027ea:	2303      	movs	r3, #3
 80027ec:	e004      	b.n	80027f8 <HAL_GPIO_Init+0x1f8>
 80027ee:	2302      	movs	r3, #2
 80027f0:	e002      	b.n	80027f8 <HAL_GPIO_Init+0x1f8>
 80027f2:	2301      	movs	r3, #1
 80027f4:	e000      	b.n	80027f8 <HAL_GPIO_Init+0x1f8>
 80027f6:	2300      	movs	r3, #0
 80027f8:	697a      	ldr	r2, [r7, #20]
 80027fa:	2103      	movs	r1, #3
 80027fc:	400a      	ands	r2, r1
 80027fe:	0092      	lsls	r2, r2, #2
 8002800:	4093      	lsls	r3, r2
 8002802:	693a      	ldr	r2, [r7, #16]
 8002804:	4313      	orrs	r3, r2
 8002806:	613b      	str	r3, [r7, #16]
        SYSCFG->EXTICR[position >> 2U] = temp;
 8002808:	4935      	ldr	r1, [pc, #212]	; (80028e0 <HAL_GPIO_Init+0x2e0>)
 800280a:	697b      	ldr	r3, [r7, #20]
 800280c:	089b      	lsrs	r3, r3, #2
 800280e:	3302      	adds	r3, #2
 8002810:	009b      	lsls	r3, r3, #2
 8002812:	693a      	ldr	r2, [r7, #16]
 8002814:	505a      	str	r2, [r3, r1]

        /* Clear EXTI line configuration */
        temp = EXTI->IMR;
 8002816:	4b38      	ldr	r3, [pc, #224]	; (80028f8 <HAL_GPIO_Init+0x2f8>)
 8002818:	681b      	ldr	r3, [r3, #0]
 800281a:	613b      	str	r3, [r7, #16]
        temp &= ~((uint32_t)iocurrent);
 800281c:	68fb      	ldr	r3, [r7, #12]
 800281e:	43da      	mvns	r2, r3
 8002820:	693b      	ldr	r3, [r7, #16]
 8002822:	4013      	ands	r3, r2
 8002824:	613b      	str	r3, [r7, #16]
        if ((GPIO_Init->Mode & EXTI_IT) != 0x00U)
 8002826:	683b      	ldr	r3, [r7, #0]
 8002828:	685a      	ldr	r2, [r3, #4]
 800282a:	2380      	movs	r3, #128	; 0x80
 800282c:	025b      	lsls	r3, r3, #9
 800282e:	4013      	ands	r3, r2
 8002830:	d003      	beq.n	800283a <HAL_GPIO_Init+0x23a>
        {
          temp |= iocurrent;
 8002832:	693a      	ldr	r2, [r7, #16]
 8002834:	68fb      	ldr	r3, [r7, #12]
 8002836:	4313      	orrs	r3, r2
 8002838:	613b      	str	r3, [r7, #16]
        }
        EXTI->IMR = temp;
 800283a:	4b2f      	ldr	r3, [pc, #188]	; (80028f8 <HAL_GPIO_Init+0x2f8>)
 800283c:	693a      	ldr	r2, [r7, #16]
 800283e:	601a      	str	r2, [r3, #0]

        temp = EXTI->EMR;
 8002840:	4b2d      	ldr	r3, [pc, #180]	; (80028f8 <HAL_GPIO_Init+0x2f8>)
 8002842:	685b      	ldr	r3, [r3, #4]
 8002844:	613b      	str	r3, [r7, #16]
        temp &= ~((uint32_t)iocurrent);
 8002846:	68fb      	ldr	r3, [r7, #12]
 8002848:	43da      	mvns	r2, r3
 800284a:	693b      	ldr	r3, [r7, #16]
 800284c:	4013      	ands	r3, r2
 800284e:	613b      	str	r3, [r7, #16]
        if ((GPIO_Init->Mode & EXTI_EVT) != 0x00U)
 8002850:	683b      	ldr	r3, [r7, #0]
 8002852:	685a      	ldr	r2, [r3, #4]
 8002854:	2380      	movs	r3, #128	; 0x80
 8002856:	029b      	lsls	r3, r3, #10
 8002858:	4013      	ands	r3, r2
 800285a:	d003      	beq.n	8002864 <HAL_GPIO_Init+0x264>
        {
          temp |= iocurrent;
 800285c:	693a      	ldr	r2, [r7, #16]
 800285e:	68fb      	ldr	r3, [r7, #12]
 8002860:	4313      	orrs	r3, r2
 8002862:	613b      	str	r3, [r7, #16]
        }
        EXTI->EMR = temp;
 8002864:	4b24      	ldr	r3, [pc, #144]	; (80028f8 <HAL_GPIO_Init+0x2f8>)
 8002866:	693a      	ldr	r2, [r7, #16]
 8002868:	605a      	str	r2, [r3, #4]

        /* Clear Rising Falling edge configuration */
        temp = EXTI->RTSR;
 800286a:	4b23      	ldr	r3, [pc, #140]	; (80028f8 <HAL_GPIO_Init+0x2f8>)
 800286c:	689b      	ldr	r3, [r3, #8]
 800286e:	613b      	str	r3, [r7, #16]
        temp &= ~((uint32_t)iocurrent);
 8002870:	68fb      	ldr	r3, [r7, #12]
 8002872:	43da      	mvns	r2, r3
 8002874:	693b      	ldr	r3, [r7, #16]
 8002876:	4013      	ands	r3, r2
 8002878:	613b      	str	r3, [r7, #16]
        if ((GPIO_Init->Mode & TRIGGER_RISING) != 0x00U)
 800287a:	683b      	ldr	r3, [r7, #0]
 800287c:	685a      	ldr	r2, [r3, #4]
 800287e:	2380      	movs	r3, #128	; 0x80
 8002880:	035b      	lsls	r3, r3, #13
 8002882:	4013      	ands	r3, r2
 8002884:	d003      	beq.n	800288e <HAL_GPIO_Init+0x28e>
        {
          temp |= iocurrent;
 8002886:	693a      	ldr	r2, [r7, #16]
 8002888:	68fb      	ldr	r3, [r7, #12]
 800288a:	4313      	orrs	r3, r2
 800288c:	613b      	str	r3, [r7, #16]
        }
        EXTI->RTSR = temp;
 800288e:	4b1a      	ldr	r3, [pc, #104]	; (80028f8 <HAL_GPIO_Init+0x2f8>)
 8002890:	693a      	ldr	r2, [r7, #16]
 8002892:	609a      	str	r2, [r3, #8]

        temp = EXTI->FTSR;
 8002894:	4b18      	ldr	r3, [pc, #96]	; (80028f8 <HAL_GPIO_Init+0x2f8>)
 8002896:	68db      	ldr	r3, [r3, #12]
 8002898:	613b      	str	r3, [r7, #16]
        temp &= ~((uint32_t)iocurrent);
 800289a:	68fb      	ldr	r3, [r7, #12]
 800289c:	43da      	mvns	r2, r3
 800289e:	693b      	ldr	r3, [r7, #16]
 80028a0:	4013      	ands	r3, r2
 80028a2:	613b      	str	r3, [r7, #16]
        if ((GPIO_Init->Mode & TRIGGER_FALLING) != 0x00U)
 80028a4:	683b      	ldr	r3, [r7, #0]
 80028a6:	685a      	ldr	r2, [r3, #4]
 80028a8:	2380      	movs	r3, #128	; 0x80
 80028aa:	039b      	lsls	r3, r3, #14
 80028ac:	4013      	ands	r3, r2
 80028ae:	d003      	beq.n	80028b8 <HAL_GPIO_Init+0x2b8>
        {
          temp |= iocurrent;
 80028b0:	693a      	ldr	r2, [r7, #16]
 80028b2:	68fb      	ldr	r3, [r7, #12]
 80028b4:	4313      	orrs	r3, r2
 80028b6:	613b      	str	r3, [r7, #16]
        }
        EXTI->FTSR = temp;
 80028b8:	4b0f      	ldr	r3, [pc, #60]	; (80028f8 <HAL_GPIO_Init+0x2f8>)
 80028ba:	693a      	ldr	r2, [r7, #16]
 80028bc:	60da      	str	r2, [r3, #12]
      }
    }
    position++;
 80028be:	697b      	ldr	r3, [r7, #20]
 80028c0:	3301      	adds	r3, #1
 80028c2:	617b      	str	r3, [r7, #20]
  while (((GPIO_Init->Pin) >> position) != 0)
 80028c4:	683b      	ldr	r3, [r7, #0]
 80028c6:	681a      	ldr	r2, [r3, #0]
 80028c8:	697b      	ldr	r3, [r7, #20]
 80028ca:	40da      	lsrs	r2, r3
 80028cc:	1e13      	subs	r3, r2, #0
 80028ce:	d000      	beq.n	80028d2 <HAL_GPIO_Init+0x2d2>
 80028d0:	e6a2      	b.n	8002618 <HAL_GPIO_Init+0x18>
  }
}
 80028d2:	46c0      	nop			; (mov r8, r8)
 80028d4:	46c0      	nop			; (mov r8, r8)
 80028d6:	46bd      	mov	sp, r7
 80028d8:	b006      	add	sp, #24
 80028da:	bd80      	pop	{r7, pc}
 80028dc:	40021000 	.word	0x40021000
 80028e0:	40010000 	.word	0x40010000
 80028e4:	50000400 	.word	0x50000400
 80028e8:	50000800 	.word	0x50000800
 80028ec:	50000c00 	.word	0x50000c00
 80028f0:	50001000 	.word	0x50001000
 80028f4:	50001c00 	.word	0x50001c00
 80028f8:	40010400 	.word	0x40010400

080028fc <HAL_GPIO_WritePin>:
  *                        GPIO_PIN_RESET: to clear the port pin
  *                        GPIO_PIN_SET: to set the port pin
  * @retval None
  */
void HAL_GPIO_WritePin(GPIO_TypeDef *GPIOx, uint16_t GPIO_Pin, GPIO_PinState PinState)
{
 80028fc:	b580      	push	{r7, lr}
 80028fe:	b082      	sub	sp, #8
 8002900:	af00      	add	r7, sp, #0
 8002902:	6078      	str	r0, [r7, #4]
 8002904:	0008      	movs	r0, r1
 8002906:	0011      	movs	r1, r2
 8002908:	1cbb      	adds	r3, r7, #2
 800290a:	1c02      	adds	r2, r0, #0
 800290c:	801a      	strh	r2, [r3, #0]
 800290e:	1c7b      	adds	r3, r7, #1
 8002910:	1c0a      	adds	r2, r1, #0
 8002912:	701a      	strb	r2, [r3, #0]
  /* Check the parameters */
  assert_param(IS_GPIO_PIN_AVAILABLE(GPIOx, GPIO_Pin));
  assert_param(IS_GPIO_PIN_ACTION(PinState));

  if (PinState != GPIO_PIN_RESET)
 8002914:	1c7b      	adds	r3, r7, #1
 8002916:	781b      	ldrb	r3, [r3, #0]
 8002918:	2b00      	cmp	r3, #0
 800291a:	d004      	beq.n	8002926 <HAL_GPIO_WritePin+0x2a>
  {
    GPIOx->BSRR = GPIO_Pin;
 800291c:	1cbb      	adds	r3, r7, #2
 800291e:	881a      	ldrh	r2, [r3, #0]
 8002920:	687b      	ldr	r3, [r7, #4]
 8002922:	619a      	str	r2, [r3, #24]
  }
  else
  {
    GPIOx->BRR = GPIO_Pin ;
  }
}
 8002924:	e003      	b.n	800292e <HAL_GPIO_WritePin+0x32>
    GPIOx->BRR = GPIO_Pin ;
 8002926:	1cbb      	adds	r3, r7, #2
 8002928:	881a      	ldrh	r2, [r3, #0]
 800292a:	687b      	ldr	r3, [r7, #4]
 800292c:	629a      	str	r2, [r3, #40]	; 0x28
}
 800292e:	46c0      	nop			; (mov r8, r8)
 8002930:	46bd      	mov	sp, r7
 8002932:	b002      	add	sp, #8
 8002934:	bd80      	pop	{r7, pc}
	...

08002938 <HAL_RCC_OscConfig>:
  *         supported by this macro. User should request a transition to HSE Off
  *         first and then HSE On or HSE Bypass.
  * @retval HAL status
  */
HAL_StatusTypeDef HAL_RCC_OscConfig(RCC_OscInitTypeDef  *RCC_OscInitStruct)
{
 8002938:	b5b0      	push	{r4, r5, r7, lr}
 800293a:	b08a      	sub	sp, #40	; 0x28
 800293c:	af00      	add	r7, sp, #0
 800293e:	6078      	str	r0, [r7, #4]
  uint32_t hsi_state;
  HAL_StatusTypeDef status;
  uint32_t sysclk_source, pll_config;

  /* Check Null pointer */
  if(RCC_OscInitStruct == NULL)
 8002940:	687b      	ldr	r3, [r7, #4]
 8002942:	2b00      	cmp	r3, #0
 8002944:	d102      	bne.n	800294c <HAL_RCC_OscConfig+0x14>
  {
    return HAL_ERROR;
 8002946:	2301      	movs	r3, #1
 8002948:	f000 fbbf 	bl	80030ca <HAL_RCC_OscConfig+0x792>
  }

  /* Check the parameters */
  assert_param(IS_RCC_OSCILLATORTYPE(RCC_OscInitStruct->OscillatorType));

  sysclk_source = __HAL_RCC_GET_SYSCLK_SOURCE();
 800294c:	4bc9      	ldr	r3, [pc, #804]	; (8002c74 <HAL_RCC_OscConfig+0x33c>)
 800294e:	68db      	ldr	r3, [r3, #12]
 8002950:	220c      	movs	r2, #12
 8002952:	4013      	ands	r3, r2
 8002954:	61fb      	str	r3, [r7, #28]
  pll_config = __HAL_RCC_GET_PLL_OSCSOURCE();
 8002956:	4bc7      	ldr	r3, [pc, #796]	; (8002c74 <HAL_RCC_OscConfig+0x33c>)
 8002958:	68da      	ldr	r2, [r3, #12]
 800295a:	2380      	movs	r3, #128	; 0x80
 800295c:	025b      	lsls	r3, r3, #9
 800295e:	4013      	ands	r3, r2
 8002960:	61bb      	str	r3, [r7, #24]

  /*------------------------------- HSE Configuration ------------------------*/
  if(((RCC_OscInitStruct->OscillatorType) & RCC_OSCILLATORTYPE_HSE) == RCC_OSCILLATORTYPE_HSE)
 8002962:	687b      	ldr	r3, [r7, #4]
 8002964:	681b      	ldr	r3, [r3, #0]
 8002966:	2201      	movs	r2, #1
 8002968:	4013      	ands	r3, r2
 800296a:	d100      	bne.n	800296e <HAL_RCC_OscConfig+0x36>
 800296c:	e07e      	b.n	8002a6c <HAL_RCC_OscConfig+0x134>
  {
    /* Check the parameters */
    assert_param(IS_RCC_HSE(RCC_OscInitStruct->HSEState));

    /* When the HSE is used as system clock or clock source for PLL in these cases it is not allowed to be disabled */
    if((sysclk_source == RCC_SYSCLKSOURCE_STATUS_HSE)
 800296e:	69fb      	ldr	r3, [r7, #28]
 8002970:	2b08      	cmp	r3, #8
 8002972:	d007      	beq.n	8002984 <HAL_RCC_OscConfig+0x4c>
       || ((sysclk_source == RCC_SYSCLKSOURCE_STATUS_PLLCLK) && (pll_config == RCC_PLLSOURCE_HSE)))
 8002974:	69fb      	ldr	r3, [r7, #28]
 8002976:	2b0c      	cmp	r3, #12
 8002978:	d112      	bne.n	80029a0 <HAL_RCC_OscConfig+0x68>
 800297a:	69ba      	ldr	r2, [r7, #24]
 800297c:	2380      	movs	r3, #128	; 0x80
 800297e:	025b      	lsls	r3, r3, #9
 8002980:	429a      	cmp	r2, r3
 8002982:	d10d      	bne.n	80029a0 <HAL_RCC_OscConfig+0x68>
    {
      if((__HAL_RCC_GET_FLAG(RCC_FLAG_HSERDY) != 0U) && (RCC_OscInitStruct->HSEState == RCC_HSE_OFF))
 8002984:	4bbb      	ldr	r3, [pc, #748]	; (8002c74 <HAL_RCC_OscConfig+0x33c>)
 8002986:	681a      	ldr	r2, [r3, #0]
 8002988:	2380      	movs	r3, #128	; 0x80
 800298a:	029b      	lsls	r3, r3, #10
 800298c:	4013      	ands	r3, r2
 800298e:	d100      	bne.n	8002992 <HAL_RCC_OscConfig+0x5a>
 8002990:	e06b      	b.n	8002a6a <HAL_RCC_OscConfig+0x132>
 8002992:	687b      	ldr	r3, [r7, #4]
 8002994:	685b      	ldr	r3, [r3, #4]
 8002996:	2b00      	cmp	r3, #0
 8002998:	d167      	bne.n	8002a6a <HAL_RCC_OscConfig+0x132>
      {
        return HAL_ERROR;
 800299a:	2301      	movs	r3, #1
 800299c:	f000 fb95 	bl	80030ca <HAL_RCC_OscConfig+0x792>
      }
    }
    else
    {
      /* Set the new HSE configuration ---------------------------------------*/
      __HAL_RCC_HSE_CONFIG(RCC_OscInitStruct->HSEState);
 80029a0:	687b      	ldr	r3, [r7, #4]
 80029a2:	685a      	ldr	r2, [r3, #4]
 80029a4:	2380      	movs	r3, #128	; 0x80
 80029a6:	025b      	lsls	r3, r3, #9
 80029a8:	429a      	cmp	r2, r3
 80029aa:	d107      	bne.n	80029bc <HAL_RCC_OscConfig+0x84>
 80029ac:	4bb1      	ldr	r3, [pc, #708]	; (8002c74 <HAL_RCC_OscConfig+0x33c>)
 80029ae:	681a      	ldr	r2, [r3, #0]
 80029b0:	4bb0      	ldr	r3, [pc, #704]	; (8002c74 <HAL_RCC_OscConfig+0x33c>)
 80029b2:	2180      	movs	r1, #128	; 0x80
 80029b4:	0249      	lsls	r1, r1, #9
 80029b6:	430a      	orrs	r2, r1
 80029b8:	601a      	str	r2, [r3, #0]
 80029ba:	e027      	b.n	8002a0c <HAL_RCC_OscConfig+0xd4>
 80029bc:	687b      	ldr	r3, [r7, #4]
 80029be:	685a      	ldr	r2, [r3, #4]
 80029c0:	23a0      	movs	r3, #160	; 0xa0
 80029c2:	02db      	lsls	r3, r3, #11
 80029c4:	429a      	cmp	r2, r3
 80029c6:	d10e      	bne.n	80029e6 <HAL_RCC_OscConfig+0xae>
 80029c8:	4baa      	ldr	r3, [pc, #680]	; (8002c74 <HAL_RCC_OscConfig+0x33c>)
 80029ca:	681a      	ldr	r2, [r3, #0]
 80029cc:	4ba9      	ldr	r3, [pc, #676]	; (8002c74 <HAL_RCC_OscConfig+0x33c>)
 80029ce:	2180      	movs	r1, #128	; 0x80
 80029d0:	02c9      	lsls	r1, r1, #11
 80029d2:	430a      	orrs	r2, r1
 80029d4:	601a      	str	r2, [r3, #0]
 80029d6:	4ba7      	ldr	r3, [pc, #668]	; (8002c74 <HAL_RCC_OscConfig+0x33c>)
 80029d8:	681a      	ldr	r2, [r3, #0]
 80029da:	4ba6      	ldr	r3, [pc, #664]	; (8002c74 <HAL_RCC_OscConfig+0x33c>)
 80029dc:	2180      	movs	r1, #128	; 0x80
 80029de:	0249      	lsls	r1, r1, #9
 80029e0:	430a      	orrs	r2, r1
 80029e2:	601a      	str	r2, [r3, #0]
 80029e4:	e012      	b.n	8002a0c <HAL_RCC_OscConfig+0xd4>
 80029e6:	4ba3      	ldr	r3, [pc, #652]	; (8002c74 <HAL_RCC_OscConfig+0x33c>)
 80029e8:	681a      	ldr	r2, [r3, #0]
 80029ea:	4ba2      	ldr	r3, [pc, #648]	; (8002c74 <HAL_RCC_OscConfig+0x33c>)
 80029ec:	49a2      	ldr	r1, [pc, #648]	; (8002c78 <HAL_RCC_OscConfig+0x340>)
 80029ee:	400a      	ands	r2, r1
 80029f0:	601a      	str	r2, [r3, #0]
 80029f2:	4ba0      	ldr	r3, [pc, #640]	; (8002c74 <HAL_RCC_OscConfig+0x33c>)
 80029f4:	681a      	ldr	r2, [r3, #0]
 80029f6:	2380      	movs	r3, #128	; 0x80
 80029f8:	025b      	lsls	r3, r3, #9
 80029fa:	4013      	ands	r3, r2
 80029fc:	60fb      	str	r3, [r7, #12]
 80029fe:	68fb      	ldr	r3, [r7, #12]
 8002a00:	4b9c      	ldr	r3, [pc, #624]	; (8002c74 <HAL_RCC_OscConfig+0x33c>)
 8002a02:	681a      	ldr	r2, [r3, #0]
 8002a04:	4b9b      	ldr	r3, [pc, #620]	; (8002c74 <HAL_RCC_OscConfig+0x33c>)
 8002a06:	499d      	ldr	r1, [pc, #628]	; (8002c7c <HAL_RCC_OscConfig+0x344>)
 8002a08:	400a      	ands	r2, r1
 8002a0a:	601a      	str	r2, [r3, #0]

      /* Check the HSE State */
      if(RCC_OscInitStruct->HSEState != RCC_HSE_OFF)
 8002a0c:	687b      	ldr	r3, [r7, #4]
 8002a0e:	685b      	ldr	r3, [r3, #4]
 8002a10:	2b00      	cmp	r3, #0
 8002a12:	d015      	beq.n	8002a40 <HAL_RCC_OscConfig+0x108>
      {
        /* Get Start Tick */
        tickstart = HAL_GetTick();
 8002a14:	f7ff f820 	bl	8001a58 <HAL_GetTick>
 8002a18:	0003      	movs	r3, r0
 8002a1a:	617b      	str	r3, [r7, #20]

        /* Wait till HSE is ready */
        while(__HAL_RCC_GET_FLAG(RCC_FLAG_HSERDY) == 0U)
 8002a1c:	e009      	b.n	8002a32 <HAL_RCC_OscConfig+0xfa>
        {
          if((HAL_GetTick() - tickstart ) > HSE_TIMEOUT_VALUE)
 8002a1e:	f7ff f81b 	bl	8001a58 <HAL_GetTick>
 8002a22:	0002      	movs	r2, r0
 8002a24:	697b      	ldr	r3, [r7, #20]
 8002a26:	1ad3      	subs	r3, r2, r3
 8002a28:	2b64      	cmp	r3, #100	; 0x64
 8002a2a:	d902      	bls.n	8002a32 <HAL_RCC_OscConfig+0xfa>
          {
            return HAL_TIMEOUT;
 8002a2c:	2303      	movs	r3, #3
 8002a2e:	f000 fb4c 	bl	80030ca <HAL_RCC_OscConfig+0x792>
        while(__HAL_RCC_GET_FLAG(RCC_FLAG_HSERDY) == 0U)
 8002a32:	4b90      	ldr	r3, [pc, #576]	; (8002c74 <HAL_RCC_OscConfig+0x33c>)
 8002a34:	681a      	ldr	r2, [r3, #0]
 8002a36:	2380      	movs	r3, #128	; 0x80
 8002a38:	029b      	lsls	r3, r3, #10
 8002a3a:	4013      	ands	r3, r2
 8002a3c:	d0ef      	beq.n	8002a1e <HAL_RCC_OscConfig+0xe6>
 8002a3e:	e015      	b.n	8002a6c <HAL_RCC_OscConfig+0x134>
        }
      }
      else
      {
        /* Get Start Tick */
        tickstart = HAL_GetTick();
 8002a40:	f7ff f80a 	bl	8001a58 <HAL_GetTick>
 8002a44:	0003      	movs	r3, r0
 8002a46:	617b      	str	r3, [r7, #20]

        /* Wait till HSE is disabled */
        while(__HAL_RCC_GET_FLAG(RCC_FLAG_HSERDY) != 0U)
 8002a48:	e008      	b.n	8002a5c <HAL_RCC_OscConfig+0x124>
        {
           if((HAL_GetTick() - tickstart ) > HSE_TIMEOUT_VALUE)
 8002a4a:	f7ff f805 	bl	8001a58 <HAL_GetTick>
 8002a4e:	0002      	movs	r2, r0
 8002a50:	697b      	ldr	r3, [r7, #20]
 8002a52:	1ad3      	subs	r3, r2, r3
 8002a54:	2b64      	cmp	r3, #100	; 0x64
 8002a56:	d901      	bls.n	8002a5c <HAL_RCC_OscConfig+0x124>
          {
            return HAL_TIMEOUT;
 8002a58:	2303      	movs	r3, #3
 8002a5a:	e336      	b.n	80030ca <HAL_RCC_OscConfig+0x792>
        while(__HAL_RCC_GET_FLAG(RCC_FLAG_HSERDY) != 0U)
 8002a5c:	4b85      	ldr	r3, [pc, #532]	; (8002c74 <HAL_RCC_OscConfig+0x33c>)
 8002a5e:	681a      	ldr	r2, [r3, #0]
 8002a60:	2380      	movs	r3, #128	; 0x80
 8002a62:	029b      	lsls	r3, r3, #10
 8002a64:	4013      	ands	r3, r2
 8002a66:	d1f0      	bne.n	8002a4a <HAL_RCC_OscConfig+0x112>
 8002a68:	e000      	b.n	8002a6c <HAL_RCC_OscConfig+0x134>
      if((__HAL_RCC_GET_FLAG(RCC_FLAG_HSERDY) != 0U) && (RCC_OscInitStruct->HSEState == RCC_HSE_OFF))
 8002a6a:	46c0      	nop			; (mov r8, r8)
        }
      }
    }
  }
  /*----------------------------- HSI Configuration --------------------------*/
  if(((RCC_OscInitStruct->OscillatorType) & RCC_OSCILLATORTYPE_HSI) == RCC_OSCILLATORTYPE_HSI)
 8002a6c:	687b      	ldr	r3, [r7, #4]
 8002a6e:	681b      	ldr	r3, [r3, #0]
 8002a70:	2202      	movs	r2, #2
 8002a72:	4013      	ands	r3, r2
 8002a74:	d100      	bne.n	8002a78 <HAL_RCC_OscConfig+0x140>
 8002a76:	e099      	b.n	8002bac <HAL_RCC_OscConfig+0x274>
  {
    /* Check the parameters */
    assert_param(IS_RCC_HSI(RCC_OscInitStruct->HSIState));
    assert_param(IS_RCC_CALIBRATION_VALUE(RCC_OscInitStruct->HSICalibrationValue));

    hsi_state = RCC_OscInitStruct->HSIState;
 8002a78:	687b      	ldr	r3, [r7, #4]
 8002a7a:	68db      	ldr	r3, [r3, #12]
 8002a7c:	627b      	str	r3, [r7, #36]	; 0x24

#if defined(RCC_CR_HSIOUTEN)
    if((hsi_state & RCC_HSI_OUTEN) != 0U)
 8002a7e:	6a7b      	ldr	r3, [r7, #36]	; 0x24
 8002a80:	2220      	movs	r2, #32
 8002a82:	4013      	ands	r3, r2
 8002a84:	d009      	beq.n	8002a9a <HAL_RCC_OscConfig+0x162>
    {
      /* HSI Output enable for timer requested */
      SET_BIT(RCC->CR, RCC_CR_HSIOUTEN);
 8002a86:	4b7b      	ldr	r3, [pc, #492]	; (8002c74 <HAL_RCC_OscConfig+0x33c>)
 8002a88:	681a      	ldr	r2, [r3, #0]
 8002a8a:	4b7a      	ldr	r3, [pc, #488]	; (8002c74 <HAL_RCC_OscConfig+0x33c>)
 8002a8c:	2120      	movs	r1, #32
 8002a8e:	430a      	orrs	r2, r1
 8002a90:	601a      	str	r2, [r3, #0]

      hsi_state &= ~RCC_CR_HSIOUTEN;
 8002a92:	6a7b      	ldr	r3, [r7, #36]	; 0x24
 8002a94:	2220      	movs	r2, #32
 8002a96:	4393      	bics	r3, r2
 8002a98:	627b      	str	r3, [r7, #36]	; 0x24
    }
#endif

    /* Check if HSI is used as system clock or as PLL source when PLL is selected as system clock */
    if((sysclk_source == RCC_SYSCLKSOURCE_STATUS_HSI)
 8002a9a:	69fb      	ldr	r3, [r7, #28]
 8002a9c:	2b04      	cmp	r3, #4
 8002a9e:	d005      	beq.n	8002aac <HAL_RCC_OscConfig+0x174>
       || ((sysclk_source == RCC_SYSCLKSOURCE_STATUS_PLLCLK) && (pll_config == RCC_PLLSOURCE_HSI)))
 8002aa0:	69fb      	ldr	r3, [r7, #28]
 8002aa2:	2b0c      	cmp	r3, #12
 8002aa4:	d13e      	bne.n	8002b24 <HAL_RCC_OscConfig+0x1ec>
 8002aa6:	69bb      	ldr	r3, [r7, #24]
 8002aa8:	2b00      	cmp	r3, #0
 8002aaa:	d13b      	bne.n	8002b24 <HAL_RCC_OscConfig+0x1ec>
    {
      /* When HSI is used as system clock it will not disabled */
      if((__HAL_RCC_GET_FLAG(RCC_FLAG_HSIRDY) != 0U) && (hsi_state == RCC_HSI_OFF))
 8002aac:	4b71      	ldr	r3, [pc, #452]	; (8002c74 <HAL_RCC_OscConfig+0x33c>)
 8002aae:	681b      	ldr	r3, [r3, #0]
 8002ab0:	2204      	movs	r2, #4
 8002ab2:	4013      	ands	r3, r2
 8002ab4:	d004      	beq.n	8002ac0 <HAL_RCC_OscConfig+0x188>
 8002ab6:	6a7b      	ldr	r3, [r7, #36]	; 0x24
 8002ab8:	2b00      	cmp	r3, #0
 8002aba:	d101      	bne.n	8002ac0 <HAL_RCC_OscConfig+0x188>
      {
        return HAL_ERROR;
 8002abc:	2301      	movs	r3, #1
 8002abe:	e304      	b.n	80030ca <HAL_RCC_OscConfig+0x792>
      }
      /* Otherwise, just the calibration and HSI or HSIdiv4 are allowed */
      else
      {
        /* Adjusts the Internal High Speed oscillator (HSI) calibration value.*/
        __HAL_RCC_HSI_CALIBRATIONVALUE_ADJUST(RCC_OscInitStruct->HSICalibrationValue);
 8002ac0:	4b6c      	ldr	r3, [pc, #432]	; (8002c74 <HAL_RCC_OscConfig+0x33c>)
 8002ac2:	685b      	ldr	r3, [r3, #4]
 8002ac4:	4a6e      	ldr	r2, [pc, #440]	; (8002c80 <HAL_RCC_OscConfig+0x348>)
 8002ac6:	4013      	ands	r3, r2
 8002ac8:	0019      	movs	r1, r3
 8002aca:	687b      	ldr	r3, [r7, #4]
 8002acc:	691b      	ldr	r3, [r3, #16]
 8002ace:	021a      	lsls	r2, r3, #8
 8002ad0:	4b68      	ldr	r3, [pc, #416]	; (8002c74 <HAL_RCC_OscConfig+0x33c>)
 8002ad2:	430a      	orrs	r2, r1
 8002ad4:	605a      	str	r2, [r3, #4]

        /* Enable the Internal High Speed oscillator (HSI or HSIdiv4) */
        __HAL_RCC_HSI_CONFIG(hsi_state);
 8002ad6:	4b67      	ldr	r3, [pc, #412]	; (8002c74 <HAL_RCC_OscConfig+0x33c>)
 8002ad8:	681b      	ldr	r3, [r3, #0]
 8002ada:	2209      	movs	r2, #9
 8002adc:	4393      	bics	r3, r2
 8002ade:	0019      	movs	r1, r3
 8002ae0:	4b64      	ldr	r3, [pc, #400]	; (8002c74 <HAL_RCC_OscConfig+0x33c>)
 8002ae2:	6a7a      	ldr	r2, [r7, #36]	; 0x24
 8002ae4:	430a      	orrs	r2, r1
 8002ae6:	601a      	str	r2, [r3, #0]
      }

      /* Update the SystemCoreClock global variable */
      SystemCoreClock = HAL_RCC_GetSysClockFreq() >> AHBPrescTable[(RCC->CFGR & RCC_CFGR_HPRE)>> RCC_CFGR_HPRE_Pos];
 8002ae8:	f000 fc42 	bl	8003370 <HAL_RCC_GetSysClockFreq>
 8002aec:	0001      	movs	r1, r0
 8002aee:	4b61      	ldr	r3, [pc, #388]	; (8002c74 <HAL_RCC_OscConfig+0x33c>)
 8002af0:	68db      	ldr	r3, [r3, #12]
 8002af2:	091b      	lsrs	r3, r3, #4
 8002af4:	220f      	movs	r2, #15
 8002af6:	4013      	ands	r3, r2
 8002af8:	4a62      	ldr	r2, [pc, #392]	; (8002c84 <HAL_RCC_OscConfig+0x34c>)
 8002afa:	5cd3      	ldrb	r3, [r2, r3]
 8002afc:	000a      	movs	r2, r1
 8002afe:	40da      	lsrs	r2, r3
 8002b00:	4b61      	ldr	r3, [pc, #388]	; (8002c88 <HAL_RCC_OscConfig+0x350>)
 8002b02:	601a      	str	r2, [r3, #0]

      /* Configure the source of time base considering new system clocks settings*/
      status = HAL_InitTick (uwTickPrio);
 8002b04:	4b61      	ldr	r3, [pc, #388]	; (8002c8c <HAL_RCC_OscConfig+0x354>)
 8002b06:	681b      	ldr	r3, [r3, #0]
 8002b08:	2513      	movs	r5, #19
 8002b0a:	197c      	adds	r4, r7, r5
 8002b0c:	0018      	movs	r0, r3
 8002b0e:	f7fe ff5d 	bl	80019cc <HAL_InitTick>
 8002b12:	0003      	movs	r3, r0
 8002b14:	7023      	strb	r3, [r4, #0]
      if(status != HAL_OK)
 8002b16:	197b      	adds	r3, r7, r5
 8002b18:	781b      	ldrb	r3, [r3, #0]
 8002b1a:	2b00      	cmp	r3, #0
 8002b1c:	d046      	beq.n	8002bac <HAL_RCC_OscConfig+0x274>
      {
        return status;
 8002b1e:	197b      	adds	r3, r7, r5
 8002b20:	781b      	ldrb	r3, [r3, #0]
 8002b22:	e2d2      	b.n	80030ca <HAL_RCC_OscConfig+0x792>
      }
    }
    else
    {
      /* Check the HSI State */
      if(hsi_state != RCC_HSI_OFF)
 8002b24:	6a7b      	ldr	r3, [r7, #36]	; 0x24
 8002b26:	2b00      	cmp	r3, #0
 8002b28:	d027      	beq.n	8002b7a <HAL_RCC_OscConfig+0x242>
      {
        /* Enable the Internal High Speed oscillator (HSI or HSIdiv4) */
        __HAL_RCC_HSI_CONFIG(hsi_state);
 8002b2a:	4b52      	ldr	r3, [pc, #328]	; (8002c74 <HAL_RCC_OscConfig+0x33c>)
 8002b2c:	681b      	ldr	r3, [r3, #0]
 8002b2e:	2209      	movs	r2, #9
 8002b30:	4393      	bics	r3, r2
 8002b32:	0019      	movs	r1, r3
 8002b34:	4b4f      	ldr	r3, [pc, #316]	; (8002c74 <HAL_RCC_OscConfig+0x33c>)
 8002b36:	6a7a      	ldr	r2, [r7, #36]	; 0x24
 8002b38:	430a      	orrs	r2, r1
 8002b3a:	601a      	str	r2, [r3, #0]

        /* Get Start Tick */
        tickstart = HAL_GetTick();
 8002b3c:	f7fe ff8c 	bl	8001a58 <HAL_GetTick>
 8002b40:	0003      	movs	r3, r0
 8002b42:	617b      	str	r3, [r7, #20]

        /* Wait till HSI is ready */
        while(__HAL_RCC_GET_FLAG(RCC_FLAG_HSIRDY) == 0U)
 8002b44:	e008      	b.n	8002b58 <HAL_RCC_OscConfig+0x220>
        {
          if((HAL_GetTick() - tickstart ) > HSI_TIMEOUT_VALUE)
 8002b46:	f7fe ff87 	bl	8001a58 <HAL_GetTick>
 8002b4a:	0002      	movs	r2, r0
 8002b4c:	697b      	ldr	r3, [r7, #20]
 8002b4e:	1ad3      	subs	r3, r2, r3
 8002b50:	2b02      	cmp	r3, #2
 8002b52:	d901      	bls.n	8002b58 <HAL_RCC_OscConfig+0x220>
          {
            return HAL_TIMEOUT;
 8002b54:	2303      	movs	r3, #3
 8002b56:	e2b8      	b.n	80030ca <HAL_RCC_OscConfig+0x792>
        while(__HAL_RCC_GET_FLAG(RCC_FLAG_HSIRDY) == 0U)
 8002b58:	4b46      	ldr	r3, [pc, #280]	; (8002c74 <HAL_RCC_OscConfig+0x33c>)
 8002b5a:	681b      	ldr	r3, [r3, #0]
 8002b5c:	2204      	movs	r2, #4
 8002b5e:	4013      	ands	r3, r2
 8002b60:	d0f1      	beq.n	8002b46 <HAL_RCC_OscConfig+0x20e>
          }
        }

        /* Adjusts the Internal High Speed oscillator (HSI) calibration value.*/
        __HAL_RCC_HSI_CALIBRATIONVALUE_ADJUST(RCC_OscInitStruct->HSICalibrationValue);
 8002b62:	4b44      	ldr	r3, [pc, #272]	; (8002c74 <HAL_RCC_OscConfig+0x33c>)
 8002b64:	685b      	ldr	r3, [r3, #4]
 8002b66:	4a46      	ldr	r2, [pc, #280]	; (8002c80 <HAL_RCC_OscConfig+0x348>)
 8002b68:	4013      	ands	r3, r2
 8002b6a:	0019      	movs	r1, r3
 8002b6c:	687b      	ldr	r3, [r7, #4]
 8002b6e:	691b      	ldr	r3, [r3, #16]
 8002b70:	021a      	lsls	r2, r3, #8
 8002b72:	4b40      	ldr	r3, [pc, #256]	; (8002c74 <HAL_RCC_OscConfig+0x33c>)
 8002b74:	430a      	orrs	r2, r1
 8002b76:	605a      	str	r2, [r3, #4]
 8002b78:	e018      	b.n	8002bac <HAL_RCC_OscConfig+0x274>
      }
      else
      {
        /* Disable the Internal High Speed oscillator (HSI). */
        __HAL_RCC_HSI_DISABLE();
 8002b7a:	4b3e      	ldr	r3, [pc, #248]	; (8002c74 <HAL_RCC_OscConfig+0x33c>)
 8002b7c:	681a      	ldr	r2, [r3, #0]
 8002b7e:	4b3d      	ldr	r3, [pc, #244]	; (8002c74 <HAL_RCC_OscConfig+0x33c>)
 8002b80:	2101      	movs	r1, #1
 8002b82:	438a      	bics	r2, r1
 8002b84:	601a      	str	r2, [r3, #0]

        /* Get Start Tick */
        tickstart = HAL_GetTick();
 8002b86:	f7fe ff67 	bl	8001a58 <HAL_GetTick>
 8002b8a:	0003      	movs	r3, r0
 8002b8c:	617b      	str	r3, [r7, #20]

        /* Wait till HSI is disabled */
        while(__HAL_RCC_GET_FLAG(RCC_FLAG_HSIRDY) != 0U)
 8002b8e:	e008      	b.n	8002ba2 <HAL_RCC_OscConfig+0x26a>
        {
          if((HAL_GetTick() - tickstart ) > HSI_TIMEOUT_VALUE)
 8002b90:	f7fe ff62 	bl	8001a58 <HAL_GetTick>
 8002b94:	0002      	movs	r2, r0
 8002b96:	697b      	ldr	r3, [r7, #20]
 8002b98:	1ad3      	subs	r3, r2, r3
 8002b9a:	2b02      	cmp	r3, #2
 8002b9c:	d901      	bls.n	8002ba2 <HAL_RCC_OscConfig+0x26a>
          {
            return HAL_TIMEOUT;
 8002b9e:	2303      	movs	r3, #3
 8002ba0:	e293      	b.n	80030ca <HAL_RCC_OscConfig+0x792>
        while(__HAL_RCC_GET_FLAG(RCC_FLAG_HSIRDY) != 0U)
 8002ba2:	4b34      	ldr	r3, [pc, #208]	; (8002c74 <HAL_RCC_OscConfig+0x33c>)
 8002ba4:	681b      	ldr	r3, [r3, #0]
 8002ba6:	2204      	movs	r2, #4
 8002ba8:	4013      	ands	r3, r2
 8002baa:	d1f1      	bne.n	8002b90 <HAL_RCC_OscConfig+0x258>
        }
      }
    }
  }
  /*----------------------------- MSI Configuration --------------------------*/
  if(((RCC_OscInitStruct->OscillatorType) & RCC_OSCILLATORTYPE_MSI) == RCC_OSCILLATORTYPE_MSI)
 8002bac:	687b      	ldr	r3, [r7, #4]
 8002bae:	681b      	ldr	r3, [r3, #0]
 8002bb0:	2210      	movs	r2, #16
 8002bb2:	4013      	ands	r3, r2
 8002bb4:	d100      	bne.n	8002bb8 <HAL_RCC_OscConfig+0x280>
 8002bb6:	e0a2      	b.n	8002cfe <HAL_RCC_OscConfig+0x3c6>
  {
    /* When the MSI is used as system clock it will not be disabled */
    if(sysclk_source == RCC_CFGR_SWS_MSI)
 8002bb8:	69fb      	ldr	r3, [r7, #28]
 8002bba:	2b00      	cmp	r3, #0
 8002bbc:	d140      	bne.n	8002c40 <HAL_RCC_OscConfig+0x308>
    {
      if((__HAL_RCC_GET_FLAG(RCC_FLAG_MSIRDY) != 0U) && (RCC_OscInitStruct->MSIState == RCC_MSI_OFF))
 8002bbe:	4b2d      	ldr	r3, [pc, #180]	; (8002c74 <HAL_RCC_OscConfig+0x33c>)
 8002bc0:	681a      	ldr	r2, [r3, #0]
 8002bc2:	2380      	movs	r3, #128	; 0x80
 8002bc4:	009b      	lsls	r3, r3, #2
 8002bc6:	4013      	ands	r3, r2
 8002bc8:	d005      	beq.n	8002bd6 <HAL_RCC_OscConfig+0x29e>
 8002bca:	687b      	ldr	r3, [r7, #4]
 8002bcc:	69db      	ldr	r3, [r3, #28]
 8002bce:	2b00      	cmp	r3, #0
 8002bd0:	d101      	bne.n	8002bd6 <HAL_RCC_OscConfig+0x29e>
      {
        return HAL_ERROR;
 8002bd2:	2301      	movs	r3, #1
 8002bd4:	e279      	b.n	80030ca <HAL_RCC_OscConfig+0x792>
        /* Check MSICalibrationValue and MSIClockRange input parameters */
        assert_param(IS_RCC_MSICALIBRATION_VALUE(RCC_OscInitStruct->MSICalibrationValue));
        assert_param(IS_RCC_MSI_CLOCK_RANGE(RCC_OscInitStruct->MSIClockRange));

        /* Selects the Multiple Speed oscillator (MSI) clock range .*/
        __HAL_RCC_MSI_RANGE_CONFIG(RCC_OscInitStruct->MSIClockRange);
 8002bd6:	4b27      	ldr	r3, [pc, #156]	; (8002c74 <HAL_RCC_OscConfig+0x33c>)
 8002bd8:	685b      	ldr	r3, [r3, #4]
 8002bda:	4a2d      	ldr	r2, [pc, #180]	; (8002c90 <HAL_RCC_OscConfig+0x358>)
 8002bdc:	4013      	ands	r3, r2
 8002bde:	0019      	movs	r1, r3
 8002be0:	687b      	ldr	r3, [r7, #4]
 8002be2:	6a5a      	ldr	r2, [r3, #36]	; 0x24
 8002be4:	4b23      	ldr	r3, [pc, #140]	; (8002c74 <HAL_RCC_OscConfig+0x33c>)
 8002be6:	430a      	orrs	r2, r1
 8002be8:	605a      	str	r2, [r3, #4]
        /* Adjusts the Multiple Speed oscillator (MSI) calibration value.*/
        __HAL_RCC_MSI_CALIBRATIONVALUE_ADJUST(RCC_OscInitStruct->MSICalibrationValue);
 8002bea:	4b22      	ldr	r3, [pc, #136]	; (8002c74 <HAL_RCC_OscConfig+0x33c>)
 8002bec:	685b      	ldr	r3, [r3, #4]
 8002bee:	021b      	lsls	r3, r3, #8
 8002bf0:	0a19      	lsrs	r1, r3, #8
 8002bf2:	687b      	ldr	r3, [r7, #4]
 8002bf4:	6a1b      	ldr	r3, [r3, #32]
 8002bf6:	061a      	lsls	r2, r3, #24
 8002bf8:	4b1e      	ldr	r3, [pc, #120]	; (8002c74 <HAL_RCC_OscConfig+0x33c>)
 8002bfa:	430a      	orrs	r2, r1
 8002bfc:	605a      	str	r2, [r3, #4]


        /* Update the SystemCoreClock global variable */
        SystemCoreClock =  (32768U * (1UL << ((RCC_OscInitStruct->MSIClockRange >> RCC_ICSCR_MSIRANGE_Pos) + 1U)))
 8002bfe:	687b      	ldr	r3, [r7, #4]
 8002c00:	6a5b      	ldr	r3, [r3, #36]	; 0x24
 8002c02:	0b5b      	lsrs	r3, r3, #13
 8002c04:	3301      	adds	r3, #1
 8002c06:	2280      	movs	r2, #128	; 0x80
 8002c08:	0212      	lsls	r2, r2, #8
 8002c0a:	409a      	lsls	r2, r3
                           >> AHBPrescTable[((RCC->CFGR & RCC_CFGR_HPRE) >> RCC_CFGR_HPRE_Pos)];
 8002c0c:	4b19      	ldr	r3, [pc, #100]	; (8002c74 <HAL_RCC_OscConfig+0x33c>)
 8002c0e:	68db      	ldr	r3, [r3, #12]
 8002c10:	091b      	lsrs	r3, r3, #4
 8002c12:	210f      	movs	r1, #15
 8002c14:	400b      	ands	r3, r1
 8002c16:	491b      	ldr	r1, [pc, #108]	; (8002c84 <HAL_RCC_OscConfig+0x34c>)
 8002c18:	5ccb      	ldrb	r3, [r1, r3]
 8002c1a:	40da      	lsrs	r2, r3
        SystemCoreClock =  (32768U * (1UL << ((RCC_OscInitStruct->MSIClockRange >> RCC_ICSCR_MSIRANGE_Pos) + 1U)))
 8002c1c:	4b1a      	ldr	r3, [pc, #104]	; (8002c88 <HAL_RCC_OscConfig+0x350>)
 8002c1e:	601a      	str	r2, [r3, #0]

        /* Configure the source of time base considering new system clocks settings*/
        status = HAL_InitTick (uwTickPrio);
 8002c20:	4b1a      	ldr	r3, [pc, #104]	; (8002c8c <HAL_RCC_OscConfig+0x354>)
 8002c22:	681b      	ldr	r3, [r3, #0]
 8002c24:	2513      	movs	r5, #19
 8002c26:	197c      	adds	r4, r7, r5
 8002c28:	0018      	movs	r0, r3
 8002c2a:	f7fe fecf 	bl	80019cc <HAL_InitTick>
 8002c2e:	0003      	movs	r3, r0
 8002c30:	7023      	strb	r3, [r4, #0]
        if(status != HAL_OK)
 8002c32:	197b      	adds	r3, r7, r5
 8002c34:	781b      	ldrb	r3, [r3, #0]
 8002c36:	2b00      	cmp	r3, #0
 8002c38:	d061      	beq.n	8002cfe <HAL_RCC_OscConfig+0x3c6>
        {
          return status;
 8002c3a:	197b      	adds	r3, r7, r5
 8002c3c:	781b      	ldrb	r3, [r3, #0]
 8002c3e:	e244      	b.n	80030ca <HAL_RCC_OscConfig+0x792>
    {
      /* Check MSI State */
      assert_param(IS_RCC_MSI(RCC_OscInitStruct->MSIState));

      /* Check the MSI State */
      if(RCC_OscInitStruct->MSIState != RCC_MSI_OFF)
 8002c40:	687b      	ldr	r3, [r7, #4]
 8002c42:	69db      	ldr	r3, [r3, #28]
 8002c44:	2b00      	cmp	r3, #0
 8002c46:	d040      	beq.n	8002cca <HAL_RCC_OscConfig+0x392>
      {
        /* Enable the Multi Speed oscillator (MSI). */
        __HAL_RCC_MSI_ENABLE();
 8002c48:	4b0a      	ldr	r3, [pc, #40]	; (8002c74 <HAL_RCC_OscConfig+0x33c>)
 8002c4a:	681a      	ldr	r2, [r3, #0]
 8002c4c:	4b09      	ldr	r3, [pc, #36]	; (8002c74 <HAL_RCC_OscConfig+0x33c>)
 8002c4e:	2180      	movs	r1, #128	; 0x80
 8002c50:	0049      	lsls	r1, r1, #1
 8002c52:	430a      	orrs	r2, r1
 8002c54:	601a      	str	r2, [r3, #0]

        /* Get Start Tick */
        tickstart = HAL_GetTick();
 8002c56:	f7fe feff 	bl	8001a58 <HAL_GetTick>
 8002c5a:	0003      	movs	r3, r0
 8002c5c:	617b      	str	r3, [r7, #20]

        /* Wait till MSI is ready */
        while(__HAL_RCC_GET_FLAG(RCC_FLAG_MSIRDY) == 0U)
 8002c5e:	e019      	b.n	8002c94 <HAL_RCC_OscConfig+0x35c>
        {
          if((HAL_GetTick() - tickstart) > MSI_TIMEOUT_VALUE)
 8002c60:	f7fe fefa 	bl	8001a58 <HAL_GetTick>
 8002c64:	0002      	movs	r2, r0
 8002c66:	697b      	ldr	r3, [r7, #20]
 8002c68:	1ad3      	subs	r3, r2, r3
 8002c6a:	2b02      	cmp	r3, #2
 8002c6c:	d912      	bls.n	8002c94 <HAL_RCC_OscConfig+0x35c>
          {
            return HAL_TIMEOUT;
 8002c6e:	2303      	movs	r3, #3
 8002c70:	e22b      	b.n	80030ca <HAL_RCC_OscConfig+0x792>
 8002c72:	46c0      	nop			; (mov r8, r8)
 8002c74:	40021000 	.word	0x40021000
 8002c78:	fffeffff 	.word	0xfffeffff
 8002c7c:	fffbffff 	.word	0xfffbffff
 8002c80:	ffffe0ff 	.word	0xffffe0ff
 8002c84:	080065bc 	.word	0x080065bc
 8002c88:	20000020 	.word	0x20000020
 8002c8c:	20000024 	.word	0x20000024
 8002c90:	ffff1fff 	.word	0xffff1fff
        while(__HAL_RCC_GET_FLAG(RCC_FLAG_MSIRDY) == 0U)
 8002c94:	4bca      	ldr	r3, [pc, #808]	; (8002fc0 <HAL_RCC_OscConfig+0x688>)
 8002c96:	681a      	ldr	r2, [r3, #0]
 8002c98:	2380      	movs	r3, #128	; 0x80
 8002c9a:	009b      	lsls	r3, r3, #2
 8002c9c:	4013      	ands	r3, r2
 8002c9e:	d0df      	beq.n	8002c60 <HAL_RCC_OscConfig+0x328>
        /* Check MSICalibrationValue and MSIClockRange input parameters */
        assert_param(IS_RCC_MSICALIBRATION_VALUE(RCC_OscInitStruct->MSICalibrationValue));
        assert_param(IS_RCC_MSI_CLOCK_RANGE(RCC_OscInitStruct->MSIClockRange));

        /* Selects the Multiple Speed oscillator (MSI) clock range .*/
        __HAL_RCC_MSI_RANGE_CONFIG(RCC_OscInitStruct->MSIClockRange);
 8002ca0:	4bc7      	ldr	r3, [pc, #796]	; (8002fc0 <HAL_RCC_OscConfig+0x688>)
 8002ca2:	685b      	ldr	r3, [r3, #4]
 8002ca4:	4ac7      	ldr	r2, [pc, #796]	; (8002fc4 <HAL_RCC_OscConfig+0x68c>)
 8002ca6:	4013      	ands	r3, r2
 8002ca8:	0019      	movs	r1, r3
 8002caa:	687b      	ldr	r3, [r7, #4]
 8002cac:	6a5a      	ldr	r2, [r3, #36]	; 0x24
 8002cae:	4bc4      	ldr	r3, [pc, #784]	; (8002fc0 <HAL_RCC_OscConfig+0x688>)
 8002cb0:	430a      	orrs	r2, r1
 8002cb2:	605a      	str	r2, [r3, #4]
         /* Adjusts the Multiple Speed oscillator (MSI) calibration value.*/
        __HAL_RCC_MSI_CALIBRATIONVALUE_ADJUST(RCC_OscInitStruct->MSICalibrationValue);
 8002cb4:	4bc2      	ldr	r3, [pc, #776]	; (8002fc0 <HAL_RCC_OscConfig+0x688>)
 8002cb6:	685b      	ldr	r3, [r3, #4]
 8002cb8:	021b      	lsls	r3, r3, #8
 8002cba:	0a19      	lsrs	r1, r3, #8
 8002cbc:	687b      	ldr	r3, [r7, #4]
 8002cbe:	6a1b      	ldr	r3, [r3, #32]
 8002cc0:	061a      	lsls	r2, r3, #24
 8002cc2:	4bbf      	ldr	r3, [pc, #764]	; (8002fc0 <HAL_RCC_OscConfig+0x688>)
 8002cc4:	430a      	orrs	r2, r1
 8002cc6:	605a      	str	r2, [r3, #4]
 8002cc8:	e019      	b.n	8002cfe <HAL_RCC_OscConfig+0x3c6>
      }
      else
      {
        /* Disable the Multi Speed oscillator (MSI). */
        __HAL_RCC_MSI_DISABLE();
 8002cca:	4bbd      	ldr	r3, [pc, #756]	; (8002fc0 <HAL_RCC_OscConfig+0x688>)
 8002ccc:	681a      	ldr	r2, [r3, #0]
 8002cce:	4bbc      	ldr	r3, [pc, #752]	; (8002fc0 <HAL_RCC_OscConfig+0x688>)
 8002cd0:	49bd      	ldr	r1, [pc, #756]	; (8002fc8 <HAL_RCC_OscConfig+0x690>)
 8002cd2:	400a      	ands	r2, r1
 8002cd4:	601a      	str	r2, [r3, #0]

        /* Get Start Tick */
        tickstart = HAL_GetTick();
 8002cd6:	f7fe febf 	bl	8001a58 <HAL_GetTick>
 8002cda:	0003      	movs	r3, r0
 8002cdc:	617b      	str	r3, [r7, #20]

        /* Wait till MSI is ready */
        while(__HAL_RCC_GET_FLAG(RCC_FLAG_MSIRDY) != 0U)
 8002cde:	e008      	b.n	8002cf2 <HAL_RCC_OscConfig+0x3ba>
        {
          if((HAL_GetTick() - tickstart) > MSI_TIMEOUT_VALUE)
 8002ce0:	f7fe feba 	bl	8001a58 <HAL_GetTick>
 8002ce4:	0002      	movs	r2, r0
 8002ce6:	697b      	ldr	r3, [r7, #20]
 8002ce8:	1ad3      	subs	r3, r2, r3
 8002cea:	2b02      	cmp	r3, #2
 8002cec:	d901      	bls.n	8002cf2 <HAL_RCC_OscConfig+0x3ba>
          {
            return HAL_TIMEOUT;
 8002cee:	2303      	movs	r3, #3
 8002cf0:	e1eb      	b.n	80030ca <HAL_RCC_OscConfig+0x792>
        while(__HAL_RCC_GET_FLAG(RCC_FLAG_MSIRDY) != 0U)
 8002cf2:	4bb3      	ldr	r3, [pc, #716]	; (8002fc0 <HAL_RCC_OscConfig+0x688>)
 8002cf4:	681a      	ldr	r2, [r3, #0]
 8002cf6:	2380      	movs	r3, #128	; 0x80
 8002cf8:	009b      	lsls	r3, r3, #2
 8002cfa:	4013      	ands	r3, r2
 8002cfc:	d1f0      	bne.n	8002ce0 <HAL_RCC_OscConfig+0x3a8>
        }
      }
    }
  }
  /*------------------------------ LSI Configuration -------------------------*/
  if(((RCC_OscInitStruct->OscillatorType) & RCC_OSCILLATORTYPE_LSI) == RCC_OSCILLATORTYPE_LSI)
 8002cfe:	687b      	ldr	r3, [r7, #4]
 8002d00:	681b      	ldr	r3, [r3, #0]
 8002d02:	2208      	movs	r2, #8
 8002d04:	4013      	ands	r3, r2
 8002d06:	d036      	beq.n	8002d76 <HAL_RCC_OscConfig+0x43e>
  {
    /* Check the parameters */
    assert_param(IS_RCC_LSI(RCC_OscInitStruct->LSIState));

    /* Check the LSI State */
    if(RCC_OscInitStruct->LSIState != RCC_LSI_OFF)
 8002d08:	687b      	ldr	r3, [r7, #4]
 8002d0a:	695b      	ldr	r3, [r3, #20]
 8002d0c:	2b00      	cmp	r3, #0
 8002d0e:	d019      	beq.n	8002d44 <HAL_RCC_OscConfig+0x40c>
    {
      /* Enable the Internal Low Speed oscillator (LSI). */
      __HAL_RCC_LSI_ENABLE();
 8002d10:	4bab      	ldr	r3, [pc, #684]	; (8002fc0 <HAL_RCC_OscConfig+0x688>)
 8002d12:	6d1a      	ldr	r2, [r3, #80]	; 0x50
 8002d14:	4baa      	ldr	r3, [pc, #680]	; (8002fc0 <HAL_RCC_OscConfig+0x688>)
 8002d16:	2101      	movs	r1, #1
 8002d18:	430a      	orrs	r2, r1
 8002d1a:	651a      	str	r2, [r3, #80]	; 0x50

      /* Get Start Tick */
      tickstart = HAL_GetTick();
 8002d1c:	f7fe fe9c 	bl	8001a58 <HAL_GetTick>
 8002d20:	0003      	movs	r3, r0
 8002d22:	617b      	str	r3, [r7, #20]

      /* Wait till LSI is ready */
      while(__HAL_RCC_GET_FLAG(RCC_FLAG_LSIRDY) == 0U)
 8002d24:	e008      	b.n	8002d38 <HAL_RCC_OscConfig+0x400>
      {
        if((HAL_GetTick() - tickstart ) > LSI_TIMEOUT_VALUE)
 8002d26:	f7fe fe97 	bl	8001a58 <HAL_GetTick>
 8002d2a:	0002      	movs	r2, r0
 8002d2c:	697b      	ldr	r3, [r7, #20]
 8002d2e:	1ad3      	subs	r3, r2, r3
 8002d30:	2b02      	cmp	r3, #2
 8002d32:	d901      	bls.n	8002d38 <HAL_RCC_OscConfig+0x400>
        {
          return HAL_TIMEOUT;
 8002d34:	2303      	movs	r3, #3
 8002d36:	e1c8      	b.n	80030ca <HAL_RCC_OscConfig+0x792>
      while(__HAL_RCC_GET_FLAG(RCC_FLAG_LSIRDY) == 0U)
 8002d38:	4ba1      	ldr	r3, [pc, #644]	; (8002fc0 <HAL_RCC_OscConfig+0x688>)
 8002d3a:	6d1b      	ldr	r3, [r3, #80]	; 0x50
 8002d3c:	2202      	movs	r2, #2
 8002d3e:	4013      	ands	r3, r2
 8002d40:	d0f1      	beq.n	8002d26 <HAL_RCC_OscConfig+0x3ee>
 8002d42:	e018      	b.n	8002d76 <HAL_RCC_OscConfig+0x43e>
      }
    }
    else
    {
      /* Disable the Internal Low Speed oscillator (LSI). */
      __HAL_RCC_LSI_DISABLE();
 8002d44:	4b9e      	ldr	r3, [pc, #632]	; (8002fc0 <HAL_RCC_OscConfig+0x688>)
 8002d46:	6d1a      	ldr	r2, [r3, #80]	; 0x50
 8002d48:	4b9d      	ldr	r3, [pc, #628]	; (8002fc0 <HAL_RCC_OscConfig+0x688>)
 8002d4a:	2101      	movs	r1, #1
 8002d4c:	438a      	bics	r2, r1
 8002d4e:	651a      	str	r2, [r3, #80]	; 0x50

      /* Get Start Tick */
      tickstart = HAL_GetTick();
 8002d50:	f7fe fe82 	bl	8001a58 <HAL_GetTick>
 8002d54:	0003      	movs	r3, r0
 8002d56:	617b      	str	r3, [r7, #20]

      /* Wait till LSI is disabled */
      while(__HAL_RCC_GET_FLAG(RCC_FLAG_LSIRDY) != 0U)
 8002d58:	e008      	b.n	8002d6c <HAL_RCC_OscConfig+0x434>
      {
        if((HAL_GetTick() - tickstart ) > LSI_TIMEOUT_VALUE)
 8002d5a:	f7fe fe7d 	bl	8001a58 <HAL_GetTick>
 8002d5e:	0002      	movs	r2, r0
 8002d60:	697b      	ldr	r3, [r7, #20]
 8002d62:	1ad3      	subs	r3, r2, r3
 8002d64:	2b02      	cmp	r3, #2
 8002d66:	d901      	bls.n	8002d6c <HAL_RCC_OscConfig+0x434>
        {
          return HAL_TIMEOUT;
 8002d68:	2303      	movs	r3, #3
 8002d6a:	e1ae      	b.n	80030ca <HAL_RCC_OscConfig+0x792>
      while(__HAL_RCC_GET_FLAG(RCC_FLAG_LSIRDY) != 0U)
 8002d6c:	4b94      	ldr	r3, [pc, #592]	; (8002fc0 <HAL_RCC_OscConfig+0x688>)
 8002d6e:	6d1b      	ldr	r3, [r3, #80]	; 0x50
 8002d70:	2202      	movs	r2, #2
 8002d72:	4013      	ands	r3, r2
 8002d74:	d1f1      	bne.n	8002d5a <HAL_RCC_OscConfig+0x422>
        }
      }
    }
  }
  /*------------------------------ LSE Configuration -------------------------*/
  if(((RCC_OscInitStruct->OscillatorType) & RCC_OSCILLATORTYPE_LSE) == RCC_OSCILLATORTYPE_LSE)
 8002d76:	687b      	ldr	r3, [r7, #4]
 8002d78:	681b      	ldr	r3, [r3, #0]
 8002d7a:	2204      	movs	r2, #4
 8002d7c:	4013      	ands	r3, r2
 8002d7e:	d100      	bne.n	8002d82 <HAL_RCC_OscConfig+0x44a>
 8002d80:	e0ae      	b.n	8002ee0 <HAL_RCC_OscConfig+0x5a8>
  {
    FlagStatus       pwrclkchanged = RESET;
 8002d82:	2023      	movs	r0, #35	; 0x23
 8002d84:	183b      	adds	r3, r7, r0
 8002d86:	2200      	movs	r2, #0
 8002d88:	701a      	strb	r2, [r3, #0]
    /* Check the parameters */
    assert_param(IS_RCC_LSE(RCC_OscInitStruct->LSEState));

    /* Update LSE configuration in Backup Domain control register    */
    /* Requires to enable write access to Backup Domain of necessary */
    if(__HAL_RCC_PWR_IS_CLK_DISABLED())
 8002d8a:	4b8d      	ldr	r3, [pc, #564]	; (8002fc0 <HAL_RCC_OscConfig+0x688>)
 8002d8c:	6b9a      	ldr	r2, [r3, #56]	; 0x38
 8002d8e:	2380      	movs	r3, #128	; 0x80
 8002d90:	055b      	lsls	r3, r3, #21
 8002d92:	4013      	ands	r3, r2
 8002d94:	d109      	bne.n	8002daa <HAL_RCC_OscConfig+0x472>
    {
      __HAL_RCC_PWR_CLK_ENABLE();
 8002d96:	4b8a      	ldr	r3, [pc, #552]	; (8002fc0 <HAL_RCC_OscConfig+0x688>)
 8002d98:	6b9a      	ldr	r2, [r3, #56]	; 0x38
 8002d9a:	4b89      	ldr	r3, [pc, #548]	; (8002fc0 <HAL_RCC_OscConfig+0x688>)
 8002d9c:	2180      	movs	r1, #128	; 0x80
 8002d9e:	0549      	lsls	r1, r1, #21
 8002da0:	430a      	orrs	r2, r1
 8002da2:	639a      	str	r2, [r3, #56]	; 0x38
      pwrclkchanged = SET;
 8002da4:	183b      	adds	r3, r7, r0
 8002da6:	2201      	movs	r2, #1
 8002da8:	701a      	strb	r2, [r3, #0]
    }

    if(HAL_IS_BIT_CLR(PWR->CR, PWR_CR_DBP))
 8002daa:	4b88      	ldr	r3, [pc, #544]	; (8002fcc <HAL_RCC_OscConfig+0x694>)
 8002dac:	681a      	ldr	r2, [r3, #0]
 8002dae:	2380      	movs	r3, #128	; 0x80
 8002db0:	005b      	lsls	r3, r3, #1
 8002db2:	4013      	ands	r3, r2
 8002db4:	d11a      	bne.n	8002dec <HAL_RCC_OscConfig+0x4b4>
    {
      /* Enable write access to Backup domain */
      SET_BIT(PWR->CR, PWR_CR_DBP);
 8002db6:	4b85      	ldr	r3, [pc, #532]	; (8002fcc <HAL_RCC_OscConfig+0x694>)
 8002db8:	681a      	ldr	r2, [r3, #0]
 8002dba:	4b84      	ldr	r3, [pc, #528]	; (8002fcc <HAL_RCC_OscConfig+0x694>)
 8002dbc:	2180      	movs	r1, #128	; 0x80
 8002dbe:	0049      	lsls	r1, r1, #1
 8002dc0:	430a      	orrs	r2, r1
 8002dc2:	601a      	str	r2, [r3, #0]

      /* Wait for Backup domain Write protection disable */
      tickstart = HAL_GetTick();
 8002dc4:	f7fe fe48 	bl	8001a58 <HAL_GetTick>
 8002dc8:	0003      	movs	r3, r0
 8002dca:	617b      	str	r3, [r7, #20]

      while(HAL_IS_BIT_CLR(PWR->CR, PWR_CR_DBP))
 8002dcc:	e008      	b.n	8002de0 <HAL_RCC_OscConfig+0x4a8>
      {
        if((HAL_GetTick() - tickstart) > RCC_DBP_TIMEOUT_VALUE)
 8002dce:	f7fe fe43 	bl	8001a58 <HAL_GetTick>
 8002dd2:	0002      	movs	r2, r0
 8002dd4:	697b      	ldr	r3, [r7, #20]
 8002dd6:	1ad3      	subs	r3, r2, r3
 8002dd8:	2b64      	cmp	r3, #100	; 0x64
 8002dda:	d901      	bls.n	8002de0 <HAL_RCC_OscConfig+0x4a8>
        {
          return HAL_TIMEOUT;
 8002ddc:	2303      	movs	r3, #3
 8002dde:	e174      	b.n	80030ca <HAL_RCC_OscConfig+0x792>
      while(HAL_IS_BIT_CLR(PWR->CR, PWR_CR_DBP))
 8002de0:	4b7a      	ldr	r3, [pc, #488]	; (8002fcc <HAL_RCC_OscConfig+0x694>)
 8002de2:	681a      	ldr	r2, [r3, #0]
 8002de4:	2380      	movs	r3, #128	; 0x80
 8002de6:	005b      	lsls	r3, r3, #1
 8002de8:	4013      	ands	r3, r2
 8002dea:	d0f0      	beq.n	8002dce <HAL_RCC_OscConfig+0x496>
        }
      }
    }

    /* Set the new LSE configuration -----------------------------------------*/
    __HAL_RCC_LSE_CONFIG(RCC_OscInitStruct->LSEState);
 8002dec:	687b      	ldr	r3, [r7, #4]
 8002dee:	689a      	ldr	r2, [r3, #8]
 8002df0:	2380      	movs	r3, #128	; 0x80
 8002df2:	005b      	lsls	r3, r3, #1
 8002df4:	429a      	cmp	r2, r3
 8002df6:	d107      	bne.n	8002e08 <HAL_RCC_OscConfig+0x4d0>
 8002df8:	4b71      	ldr	r3, [pc, #452]	; (8002fc0 <HAL_RCC_OscConfig+0x688>)
 8002dfa:	6d1a      	ldr	r2, [r3, #80]	; 0x50
 8002dfc:	4b70      	ldr	r3, [pc, #448]	; (8002fc0 <HAL_RCC_OscConfig+0x688>)
 8002dfe:	2180      	movs	r1, #128	; 0x80
 8002e00:	0049      	lsls	r1, r1, #1
 8002e02:	430a      	orrs	r2, r1
 8002e04:	651a      	str	r2, [r3, #80]	; 0x50
 8002e06:	e031      	b.n	8002e6c <HAL_RCC_OscConfig+0x534>
 8002e08:	687b      	ldr	r3, [r7, #4]
 8002e0a:	689b      	ldr	r3, [r3, #8]
 8002e0c:	2b00      	cmp	r3, #0
 8002e0e:	d10c      	bne.n	8002e2a <HAL_RCC_OscConfig+0x4f2>
 8002e10:	4b6b      	ldr	r3, [pc, #428]	; (8002fc0 <HAL_RCC_OscConfig+0x688>)
 8002e12:	6d1a      	ldr	r2, [r3, #80]	; 0x50
 8002e14:	4b6a      	ldr	r3, [pc, #424]	; (8002fc0 <HAL_RCC_OscConfig+0x688>)
 8002e16:	496c      	ldr	r1, [pc, #432]	; (8002fc8 <HAL_RCC_OscConfig+0x690>)
 8002e18:	400a      	ands	r2, r1
 8002e1a:	651a      	str	r2, [r3, #80]	; 0x50
 8002e1c:	4b68      	ldr	r3, [pc, #416]	; (8002fc0 <HAL_RCC_OscConfig+0x688>)
 8002e1e:	6d1a      	ldr	r2, [r3, #80]	; 0x50
 8002e20:	4b67      	ldr	r3, [pc, #412]	; (8002fc0 <HAL_RCC_OscConfig+0x688>)
 8002e22:	496b      	ldr	r1, [pc, #428]	; (8002fd0 <HAL_RCC_OscConfig+0x698>)
 8002e24:	400a      	ands	r2, r1
 8002e26:	651a      	str	r2, [r3, #80]	; 0x50
 8002e28:	e020      	b.n	8002e6c <HAL_RCC_OscConfig+0x534>
 8002e2a:	687b      	ldr	r3, [r7, #4]
 8002e2c:	689a      	ldr	r2, [r3, #8]
 8002e2e:	23a0      	movs	r3, #160	; 0xa0
 8002e30:	00db      	lsls	r3, r3, #3
 8002e32:	429a      	cmp	r2, r3
 8002e34:	d10e      	bne.n	8002e54 <HAL_RCC_OscConfig+0x51c>
 8002e36:	4b62      	ldr	r3, [pc, #392]	; (8002fc0 <HAL_RCC_OscConfig+0x688>)
 8002e38:	6d1a      	ldr	r2, [r3, #80]	; 0x50
 8002e3a:	4b61      	ldr	r3, [pc, #388]	; (8002fc0 <HAL_RCC_OscConfig+0x688>)
 8002e3c:	2180      	movs	r1, #128	; 0x80
 8002e3e:	00c9      	lsls	r1, r1, #3
 8002e40:	430a      	orrs	r2, r1
 8002e42:	651a      	str	r2, [r3, #80]	; 0x50
 8002e44:	4b5e      	ldr	r3, [pc, #376]	; (8002fc0 <HAL_RCC_OscConfig+0x688>)
 8002e46:	6d1a      	ldr	r2, [r3, #80]	; 0x50
 8002e48:	4b5d      	ldr	r3, [pc, #372]	; (8002fc0 <HAL_RCC_OscConfig+0x688>)
 8002e4a:	2180      	movs	r1, #128	; 0x80
 8002e4c:	0049      	lsls	r1, r1, #1
 8002e4e:	430a      	orrs	r2, r1
 8002e50:	651a      	str	r2, [r3, #80]	; 0x50
 8002e52:	e00b      	b.n	8002e6c <HAL_RCC_OscConfig+0x534>
 8002e54:	4b5a      	ldr	r3, [pc, #360]	; (8002fc0 <HAL_RCC_OscConfig+0x688>)
 8002e56:	6d1a      	ldr	r2, [r3, #80]	; 0x50
 8002e58:	4b59      	ldr	r3, [pc, #356]	; (8002fc0 <HAL_RCC_OscConfig+0x688>)
 8002e5a:	495b      	ldr	r1, [pc, #364]	; (8002fc8 <HAL_RCC_OscConfig+0x690>)
 8002e5c:	400a      	ands	r2, r1
 8002e5e:	651a      	str	r2, [r3, #80]	; 0x50
 8002e60:	4b57      	ldr	r3, [pc, #348]	; (8002fc0 <HAL_RCC_OscConfig+0x688>)
 8002e62:	6d1a      	ldr	r2, [r3, #80]	; 0x50
 8002e64:	4b56      	ldr	r3, [pc, #344]	; (8002fc0 <HAL_RCC_OscConfig+0x688>)
 8002e66:	495a      	ldr	r1, [pc, #360]	; (8002fd0 <HAL_RCC_OscConfig+0x698>)
 8002e68:	400a      	ands	r2, r1
 8002e6a:	651a      	str	r2, [r3, #80]	; 0x50

    /* Check the LSE State */
    if(RCC_OscInitStruct->LSEState != RCC_LSE_OFF)
 8002e6c:	687b      	ldr	r3, [r7, #4]
 8002e6e:	689b      	ldr	r3, [r3, #8]
 8002e70:	2b00      	cmp	r3, #0
 8002e72:	d015      	beq.n	8002ea0 <HAL_RCC_OscConfig+0x568>
    {
      /* Get Start Tick */
      tickstart = HAL_GetTick();
 8002e74:	f7fe fdf0 	bl	8001a58 <HAL_GetTick>
 8002e78:	0003      	movs	r3, r0
 8002e7a:	617b      	str	r3, [r7, #20]

      /* Wait till LSE is ready */
      while(__HAL_RCC_GET_FLAG(RCC_FLAG_LSERDY) == 0U)
 8002e7c:	e009      	b.n	8002e92 <HAL_RCC_OscConfig+0x55a>
      {
        if((HAL_GetTick() - tickstart ) > RCC_LSE_TIMEOUT_VALUE)
 8002e7e:	f7fe fdeb 	bl	8001a58 <HAL_GetTick>
 8002e82:	0002      	movs	r2, r0
 8002e84:	697b      	ldr	r3, [r7, #20]
 8002e86:	1ad3      	subs	r3, r2, r3
 8002e88:	4a52      	ldr	r2, [pc, #328]	; (8002fd4 <HAL_RCC_OscConfig+0x69c>)
 8002e8a:	4293      	cmp	r3, r2
 8002e8c:	d901      	bls.n	8002e92 <HAL_RCC_OscConfig+0x55a>
        {
          return HAL_TIMEOUT;
 8002e8e:	2303      	movs	r3, #3
 8002e90:	e11b      	b.n	80030ca <HAL_RCC_OscConfig+0x792>
      while(__HAL_RCC_GET_FLAG(RCC_FLAG_LSERDY) == 0U)
 8002e92:	4b4b      	ldr	r3, [pc, #300]	; (8002fc0 <HAL_RCC_OscConfig+0x688>)
 8002e94:	6d1a      	ldr	r2, [r3, #80]	; 0x50
 8002e96:	2380      	movs	r3, #128	; 0x80
 8002e98:	009b      	lsls	r3, r3, #2
 8002e9a:	4013      	ands	r3, r2
 8002e9c:	d0ef      	beq.n	8002e7e <HAL_RCC_OscConfig+0x546>
 8002e9e:	e014      	b.n	8002eca <HAL_RCC_OscConfig+0x592>
      }
    }
    else
    {
      /* Get Start Tick */
      tickstart = HAL_GetTick();
 8002ea0:	f7fe fdda 	bl	8001a58 <HAL_GetTick>
 8002ea4:	0003      	movs	r3, r0
 8002ea6:	617b      	str	r3, [r7, #20]

      /* Wait till LSE is disabled */
      while(__HAL_RCC_GET_FLAG(RCC_FLAG_LSERDY) != 0U)
 8002ea8:	e009      	b.n	8002ebe <HAL_RCC_OscConfig+0x586>
      {
        if((HAL_GetTick() - tickstart ) > RCC_LSE_TIMEOUT_VALUE)
 8002eaa:	f7fe fdd5 	bl	8001a58 <HAL_GetTick>
 8002eae:	0002      	movs	r2, r0
 8002eb0:	697b      	ldr	r3, [r7, #20]
 8002eb2:	1ad3      	subs	r3, r2, r3
 8002eb4:	4a47      	ldr	r2, [pc, #284]	; (8002fd4 <HAL_RCC_OscConfig+0x69c>)
 8002eb6:	4293      	cmp	r3, r2
 8002eb8:	d901      	bls.n	8002ebe <HAL_RCC_OscConfig+0x586>
        {
          return HAL_TIMEOUT;
 8002eba:	2303      	movs	r3, #3
 8002ebc:	e105      	b.n	80030ca <HAL_RCC_OscConfig+0x792>
      while(__HAL_RCC_GET_FLAG(RCC_FLAG_LSERDY) != 0U)
 8002ebe:	4b40      	ldr	r3, [pc, #256]	; (8002fc0 <HAL_RCC_OscConfig+0x688>)
 8002ec0:	6d1a      	ldr	r2, [r3, #80]	; 0x50
 8002ec2:	2380      	movs	r3, #128	; 0x80
 8002ec4:	009b      	lsls	r3, r3, #2
 8002ec6:	4013      	ands	r3, r2
 8002ec8:	d1ef      	bne.n	8002eaa <HAL_RCC_OscConfig+0x572>
        }
      }
    }

    /* Require to disable power clock if necessary */
    if(pwrclkchanged == SET)
 8002eca:	2323      	movs	r3, #35	; 0x23
 8002ecc:	18fb      	adds	r3, r7, r3
 8002ece:	781b      	ldrb	r3, [r3, #0]
 8002ed0:	2b01      	cmp	r3, #1
 8002ed2:	d105      	bne.n	8002ee0 <HAL_RCC_OscConfig+0x5a8>
    {
      __HAL_RCC_PWR_CLK_DISABLE();
 8002ed4:	4b3a      	ldr	r3, [pc, #232]	; (8002fc0 <HAL_RCC_OscConfig+0x688>)
 8002ed6:	6b9a      	ldr	r2, [r3, #56]	; 0x38
 8002ed8:	4b39      	ldr	r3, [pc, #228]	; (8002fc0 <HAL_RCC_OscConfig+0x688>)
 8002eda:	493f      	ldr	r1, [pc, #252]	; (8002fd8 <HAL_RCC_OscConfig+0x6a0>)
 8002edc:	400a      	ands	r2, r1
 8002ede:	639a      	str	r2, [r3, #56]	; 0x38
    }
  }

#if defined(RCC_HSI48_SUPPORT)
  /*----------------------------- HSI48 Configuration --------------------------*/
  if(((RCC_OscInitStruct->OscillatorType) & RCC_OSCILLATORTYPE_HSI48) == RCC_OSCILLATORTYPE_HSI48)
 8002ee0:	687b      	ldr	r3, [r7, #4]
 8002ee2:	681b      	ldr	r3, [r3, #0]
 8002ee4:	2220      	movs	r2, #32
 8002ee6:	4013      	ands	r3, r2
 8002ee8:	d049      	beq.n	8002f7e <HAL_RCC_OscConfig+0x646>
  {
    /* Check the parameters */
    assert_param(IS_RCC_HSI48(RCC_OscInitStruct->HSI48State));

      /* Check the HSI48 State */
      if(RCC_OscInitStruct->HSI48State != RCC_HSI48_OFF)
 8002eea:	687b      	ldr	r3, [r7, #4]
 8002eec:	699b      	ldr	r3, [r3, #24]
 8002eee:	2b00      	cmp	r3, #0
 8002ef0:	d026      	beq.n	8002f40 <HAL_RCC_OscConfig+0x608>
      {
        /* Enable the Internal High Speed oscillator (HSI48). */
        __HAL_RCC_HSI48_ENABLE();
 8002ef2:	4b33      	ldr	r3, [pc, #204]	; (8002fc0 <HAL_RCC_OscConfig+0x688>)
 8002ef4:	689a      	ldr	r2, [r3, #8]
 8002ef6:	4b32      	ldr	r3, [pc, #200]	; (8002fc0 <HAL_RCC_OscConfig+0x688>)
 8002ef8:	2101      	movs	r1, #1
 8002efa:	430a      	orrs	r2, r1
 8002efc:	609a      	str	r2, [r3, #8]
 8002efe:	4b30      	ldr	r3, [pc, #192]	; (8002fc0 <HAL_RCC_OscConfig+0x688>)
 8002f00:	6b5a      	ldr	r2, [r3, #52]	; 0x34
 8002f02:	4b2f      	ldr	r3, [pc, #188]	; (8002fc0 <HAL_RCC_OscConfig+0x688>)
 8002f04:	2101      	movs	r1, #1
 8002f06:	430a      	orrs	r2, r1
 8002f08:	635a      	str	r2, [r3, #52]	; 0x34
 8002f0a:	4b34      	ldr	r3, [pc, #208]	; (8002fdc <HAL_RCC_OscConfig+0x6a4>)
 8002f0c:	6a1a      	ldr	r2, [r3, #32]
 8002f0e:	4b33      	ldr	r3, [pc, #204]	; (8002fdc <HAL_RCC_OscConfig+0x6a4>)
 8002f10:	2180      	movs	r1, #128	; 0x80
 8002f12:	0189      	lsls	r1, r1, #6
 8002f14:	430a      	orrs	r2, r1
 8002f16:	621a      	str	r2, [r3, #32]

        /* Get Start Tick */
        tickstart = HAL_GetTick();
 8002f18:	f7fe fd9e 	bl	8001a58 <HAL_GetTick>
 8002f1c:	0003      	movs	r3, r0
 8002f1e:	617b      	str	r3, [r7, #20]

        /* Wait till HSI48 is ready */
        while(__HAL_RCC_GET_FLAG(RCC_FLAG_HSI48RDY) == 0U)
 8002f20:	e008      	b.n	8002f34 <HAL_RCC_OscConfig+0x5fc>
        {
          if((HAL_GetTick() - tickstart) > HSI48_TIMEOUT_VALUE)
 8002f22:	f7fe fd99 	bl	8001a58 <HAL_GetTick>
 8002f26:	0002      	movs	r2, r0
 8002f28:	697b      	ldr	r3, [r7, #20]
 8002f2a:	1ad3      	subs	r3, r2, r3
 8002f2c:	2b02      	cmp	r3, #2
 8002f2e:	d901      	bls.n	8002f34 <HAL_RCC_OscConfig+0x5fc>
          {
            return HAL_TIMEOUT;
 8002f30:	2303      	movs	r3, #3
 8002f32:	e0ca      	b.n	80030ca <HAL_RCC_OscConfig+0x792>
        while(__HAL_RCC_GET_FLAG(RCC_FLAG_HSI48RDY) == 0U)
 8002f34:	4b22      	ldr	r3, [pc, #136]	; (8002fc0 <HAL_RCC_OscConfig+0x688>)
 8002f36:	689b      	ldr	r3, [r3, #8]
 8002f38:	2202      	movs	r2, #2
 8002f3a:	4013      	ands	r3, r2
 8002f3c:	d0f1      	beq.n	8002f22 <HAL_RCC_OscConfig+0x5ea>
 8002f3e:	e01e      	b.n	8002f7e <HAL_RCC_OscConfig+0x646>
        }
      }
      else
      {
        /* Disable the Internal High Speed oscillator (HSI48). */
        __HAL_RCC_HSI48_DISABLE();
 8002f40:	4b1f      	ldr	r3, [pc, #124]	; (8002fc0 <HAL_RCC_OscConfig+0x688>)
 8002f42:	689a      	ldr	r2, [r3, #8]
 8002f44:	4b1e      	ldr	r3, [pc, #120]	; (8002fc0 <HAL_RCC_OscConfig+0x688>)
 8002f46:	2101      	movs	r1, #1
 8002f48:	438a      	bics	r2, r1
 8002f4a:	609a      	str	r2, [r3, #8]
 8002f4c:	4b23      	ldr	r3, [pc, #140]	; (8002fdc <HAL_RCC_OscConfig+0x6a4>)
 8002f4e:	6a1a      	ldr	r2, [r3, #32]
 8002f50:	4b22      	ldr	r3, [pc, #136]	; (8002fdc <HAL_RCC_OscConfig+0x6a4>)
 8002f52:	4923      	ldr	r1, [pc, #140]	; (8002fe0 <HAL_RCC_OscConfig+0x6a8>)
 8002f54:	400a      	ands	r2, r1
 8002f56:	621a      	str	r2, [r3, #32]

        /* Get Start Tick */
        tickstart = HAL_GetTick();
 8002f58:	f7fe fd7e 	bl	8001a58 <HAL_GetTick>
 8002f5c:	0003      	movs	r3, r0
 8002f5e:	617b      	str	r3, [r7, #20]

        /* Wait till HSI48 is ready */
        while(__HAL_RCC_GET_FLAG(RCC_FLAG_HSI48RDY) != 0U)
 8002f60:	e008      	b.n	8002f74 <HAL_RCC_OscConfig+0x63c>
        {
          if((HAL_GetTick() - tickstart) > HSI48_TIMEOUT_VALUE)
 8002f62:	f7fe fd79 	bl	8001a58 <HAL_GetTick>
 8002f66:	0002      	movs	r2, r0
 8002f68:	697b      	ldr	r3, [r7, #20]
 8002f6a:	1ad3      	subs	r3, r2, r3
 8002f6c:	2b02      	cmp	r3, #2
 8002f6e:	d901      	bls.n	8002f74 <HAL_RCC_OscConfig+0x63c>
          {
            return HAL_TIMEOUT;
 8002f70:	2303      	movs	r3, #3
 8002f72:	e0aa      	b.n	80030ca <HAL_RCC_OscConfig+0x792>
        while(__HAL_RCC_GET_FLAG(RCC_FLAG_HSI48RDY) != 0U)
 8002f74:	4b12      	ldr	r3, [pc, #72]	; (8002fc0 <HAL_RCC_OscConfig+0x688>)
 8002f76:	689b      	ldr	r3, [r3, #8]
 8002f78:	2202      	movs	r2, #2
 8002f7a:	4013      	ands	r3, r2
 8002f7c:	d1f1      	bne.n	8002f62 <HAL_RCC_OscConfig+0x62a>
#endif /* RCC_HSI48_SUPPORT */

  /*-------------------------------- PLL Configuration -----------------------*/
  /* Check the parameters */
  assert_param(IS_RCC_PLL(RCC_OscInitStruct->PLL.PLLState));
  if ((RCC_OscInitStruct->PLL.PLLState) != RCC_PLL_NONE)
 8002f7e:	687b      	ldr	r3, [r7, #4]
 8002f80:	6a9b      	ldr	r3, [r3, #40]	; 0x28
 8002f82:	2b00      	cmp	r3, #0
 8002f84:	d100      	bne.n	8002f88 <HAL_RCC_OscConfig+0x650>
 8002f86:	e09f      	b.n	80030c8 <HAL_RCC_OscConfig+0x790>
  {
    /* Check if the PLL is used as system clock or not */
    if(sysclk_source != RCC_SYSCLKSOURCE_STATUS_PLLCLK)
 8002f88:	69fb      	ldr	r3, [r7, #28]
 8002f8a:	2b0c      	cmp	r3, #12
 8002f8c:	d100      	bne.n	8002f90 <HAL_RCC_OscConfig+0x658>
 8002f8e:	e078      	b.n	8003082 <HAL_RCC_OscConfig+0x74a>
    {
      if((RCC_OscInitStruct->PLL.PLLState) == RCC_PLL_ON)
 8002f90:	687b      	ldr	r3, [r7, #4]
 8002f92:	6a9b      	ldr	r3, [r3, #40]	; 0x28
 8002f94:	2b02      	cmp	r3, #2
 8002f96:	d159      	bne.n	800304c <HAL_RCC_OscConfig+0x714>
        assert_param(IS_RCC_PLLSOURCE(RCC_OscInitStruct->PLL.PLLSource));
        assert_param(IS_RCC_PLL_MUL(RCC_OscInitStruct->PLL.PLLMUL));
        assert_param(IS_RCC_PLL_DIV(RCC_OscInitStruct->PLL.PLLDIV));

        /* Disable the main PLL. */
        __HAL_RCC_PLL_DISABLE();
 8002f98:	4b09      	ldr	r3, [pc, #36]	; (8002fc0 <HAL_RCC_OscConfig+0x688>)
 8002f9a:	681a      	ldr	r2, [r3, #0]
 8002f9c:	4b08      	ldr	r3, [pc, #32]	; (8002fc0 <HAL_RCC_OscConfig+0x688>)
 8002f9e:	4911      	ldr	r1, [pc, #68]	; (8002fe4 <HAL_RCC_OscConfig+0x6ac>)
 8002fa0:	400a      	ands	r2, r1
 8002fa2:	601a      	str	r2, [r3, #0]

        /* Get Start Tick */
        tickstart = HAL_GetTick();
 8002fa4:	f7fe fd58 	bl	8001a58 <HAL_GetTick>
 8002fa8:	0003      	movs	r3, r0
 8002faa:	617b      	str	r3, [r7, #20]

        /* Wait till PLL is ready */
        while(__HAL_RCC_GET_FLAG(RCC_FLAG_PLLRDY)  != 0U)
 8002fac:	e01c      	b.n	8002fe8 <HAL_RCC_OscConfig+0x6b0>
        {
          if((HAL_GetTick() - tickstart ) > PLL_TIMEOUT_VALUE)
 8002fae:	f7fe fd53 	bl	8001a58 <HAL_GetTick>
 8002fb2:	0002      	movs	r2, r0
 8002fb4:	697b      	ldr	r3, [r7, #20]
 8002fb6:	1ad3      	subs	r3, r2, r3
 8002fb8:	2b02      	cmp	r3, #2
 8002fba:	d915      	bls.n	8002fe8 <HAL_RCC_OscConfig+0x6b0>
          {
            return HAL_TIMEOUT;
 8002fbc:	2303      	movs	r3, #3
 8002fbe:	e084      	b.n	80030ca <HAL_RCC_OscConfig+0x792>
 8002fc0:	40021000 	.word	0x40021000
 8002fc4:	ffff1fff 	.word	0xffff1fff
 8002fc8:	fffffeff 	.word	0xfffffeff
 8002fcc:	40007000 	.word	0x40007000
 8002fd0:	fffffbff 	.word	0xfffffbff
 8002fd4:	00001388 	.word	0x00001388
 8002fd8:	efffffff 	.word	0xefffffff
 8002fdc:	40010000 	.word	0x40010000
 8002fe0:	ffffdfff 	.word	0xffffdfff
 8002fe4:	feffffff 	.word	0xfeffffff
        while(__HAL_RCC_GET_FLAG(RCC_FLAG_PLLRDY)  != 0U)
 8002fe8:	4b3a      	ldr	r3, [pc, #232]	; (80030d4 <HAL_RCC_OscConfig+0x79c>)
 8002fea:	681a      	ldr	r2, [r3, #0]
 8002fec:	2380      	movs	r3, #128	; 0x80
 8002fee:	049b      	lsls	r3, r3, #18
 8002ff0:	4013      	ands	r3, r2
 8002ff2:	d1dc      	bne.n	8002fae <HAL_RCC_OscConfig+0x676>
          }
        }

        /* Configure the main PLL clock source, multiplication and division factors. */
        __HAL_RCC_PLL_CONFIG(RCC_OscInitStruct->PLL.PLLSource,
 8002ff4:	4b37      	ldr	r3, [pc, #220]	; (80030d4 <HAL_RCC_OscConfig+0x79c>)
 8002ff6:	68db      	ldr	r3, [r3, #12]
 8002ff8:	4a37      	ldr	r2, [pc, #220]	; (80030d8 <HAL_RCC_OscConfig+0x7a0>)
 8002ffa:	4013      	ands	r3, r2
 8002ffc:	0019      	movs	r1, r3
 8002ffe:	687b      	ldr	r3, [r7, #4]
 8003000:	6ada      	ldr	r2, [r3, #44]	; 0x2c
 8003002:	687b      	ldr	r3, [r7, #4]
 8003004:	6b1b      	ldr	r3, [r3, #48]	; 0x30
 8003006:	431a      	orrs	r2, r3
 8003008:	687b      	ldr	r3, [r7, #4]
 800300a:	6b5b      	ldr	r3, [r3, #52]	; 0x34
 800300c:	431a      	orrs	r2, r3
 800300e:	4b31      	ldr	r3, [pc, #196]	; (80030d4 <HAL_RCC_OscConfig+0x79c>)
 8003010:	430a      	orrs	r2, r1
 8003012:	60da      	str	r2, [r3, #12]
                             RCC_OscInitStruct->PLL.PLLMUL,
                             RCC_OscInitStruct->PLL.PLLDIV);
        /* Enable the main PLL. */
        __HAL_RCC_PLL_ENABLE();
 8003014:	4b2f      	ldr	r3, [pc, #188]	; (80030d4 <HAL_RCC_OscConfig+0x79c>)
 8003016:	681a      	ldr	r2, [r3, #0]
 8003018:	4b2e      	ldr	r3, [pc, #184]	; (80030d4 <HAL_RCC_OscConfig+0x79c>)
 800301a:	2180      	movs	r1, #128	; 0x80
 800301c:	0449      	lsls	r1, r1, #17
 800301e:	430a      	orrs	r2, r1
 8003020:	601a      	str	r2, [r3, #0]

        /* Get Start Tick */
        tickstart = HAL_GetTick();
 8003022:	f7fe fd19 	bl	8001a58 <HAL_GetTick>
 8003026:	0003      	movs	r3, r0
 8003028:	617b      	str	r3, [r7, #20]

        /* Wait till PLL is ready */
        while(__HAL_RCC_GET_FLAG(RCC_FLAG_PLLRDY)  == 0U)
 800302a:	e008      	b.n	800303e <HAL_RCC_OscConfig+0x706>
        {
          if((HAL_GetTick() - tickstart ) > PLL_TIMEOUT_VALUE)
 800302c:	f7fe fd14 	bl	8001a58 <HAL_GetTick>
 8003030:	0002      	movs	r2, r0
 8003032:	697b      	ldr	r3, [r7, #20]
 8003034:	1ad3      	subs	r3, r2, r3
 8003036:	2b02      	cmp	r3, #2
 8003038:	d901      	bls.n	800303e <HAL_RCC_OscConfig+0x706>
          {
            return HAL_TIMEOUT;
 800303a:	2303      	movs	r3, #3
 800303c:	e045      	b.n	80030ca <HAL_RCC_OscConfig+0x792>
        while(__HAL_RCC_GET_FLAG(RCC_FLAG_PLLRDY)  == 0U)
 800303e:	4b25      	ldr	r3, [pc, #148]	; (80030d4 <HAL_RCC_OscConfig+0x79c>)
 8003040:	681a      	ldr	r2, [r3, #0]
 8003042:	2380      	movs	r3, #128	; 0x80
 8003044:	049b      	lsls	r3, r3, #18
 8003046:	4013      	ands	r3, r2
 8003048:	d0f0      	beq.n	800302c <HAL_RCC_OscConfig+0x6f4>
 800304a:	e03d      	b.n	80030c8 <HAL_RCC_OscConfig+0x790>
        }
      }
      else
      {
        /* Disable the main PLL. */
        __HAL_RCC_PLL_DISABLE();
 800304c:	4b21      	ldr	r3, [pc, #132]	; (80030d4 <HAL_RCC_OscConfig+0x79c>)
 800304e:	681a      	ldr	r2, [r3, #0]
 8003050:	4b20      	ldr	r3, [pc, #128]	; (80030d4 <HAL_RCC_OscConfig+0x79c>)
 8003052:	4922      	ldr	r1, [pc, #136]	; (80030dc <HAL_RCC_OscConfig+0x7a4>)
 8003054:	400a      	ands	r2, r1
 8003056:	601a      	str	r2, [r3, #0]

        /* Get Start Tick */
        tickstart = HAL_GetTick();
 8003058:	f7fe fcfe 	bl	8001a58 <HAL_GetTick>
 800305c:	0003      	movs	r3, r0
 800305e:	617b      	str	r3, [r7, #20]

        /* Wait till PLL is disabled */
        while(__HAL_RCC_GET_FLAG(RCC_FLAG_PLLRDY)  != 0U)
 8003060:	e008      	b.n	8003074 <HAL_RCC_OscConfig+0x73c>
        {
          if((HAL_GetTick() - tickstart ) > PLL_TIMEOUT_VALUE)
 8003062:	f7fe fcf9 	bl	8001a58 <HAL_GetTick>
 8003066:	0002      	movs	r2, r0
 8003068:	697b      	ldr	r3, [r7, #20]
 800306a:	1ad3      	subs	r3, r2, r3
 800306c:	2b02      	cmp	r3, #2
 800306e:	d901      	bls.n	8003074 <HAL_RCC_OscConfig+0x73c>
          {
            return HAL_TIMEOUT;
 8003070:	2303      	movs	r3, #3
 8003072:	e02a      	b.n	80030ca <HAL_RCC_OscConfig+0x792>
        while(__HAL_RCC_GET_FLAG(RCC_FLAG_PLLRDY)  != 0U)
 8003074:	4b17      	ldr	r3, [pc, #92]	; (80030d4 <HAL_RCC_OscConfig+0x79c>)
 8003076:	681a      	ldr	r2, [r3, #0]
 8003078:	2380      	movs	r3, #128	; 0x80
 800307a:	049b      	lsls	r3, r3, #18
 800307c:	4013      	ands	r3, r2
 800307e:	d1f0      	bne.n	8003062 <HAL_RCC_OscConfig+0x72a>
 8003080:	e022      	b.n	80030c8 <HAL_RCC_OscConfig+0x790>
      }
    }
    else
    {
      /* Check if there is a request to disable the PLL used as System clock source */
      if((RCC_OscInitStruct->PLL.PLLState) == RCC_PLL_OFF)
 8003082:	687b      	ldr	r3, [r7, #4]
 8003084:	6a9b      	ldr	r3, [r3, #40]	; 0x28
 8003086:	2b01      	cmp	r3, #1
 8003088:	d101      	bne.n	800308e <HAL_RCC_OscConfig+0x756>
      {
        return HAL_ERROR;
 800308a:	2301      	movs	r3, #1
 800308c:	e01d      	b.n	80030ca <HAL_RCC_OscConfig+0x792>
      }
      else
      {
        /* Do not return HAL_ERROR if request repeats the current configuration */
        pll_config = RCC->CFGR;
 800308e:	4b11      	ldr	r3, [pc, #68]	; (80030d4 <HAL_RCC_OscConfig+0x79c>)
 8003090:	68db      	ldr	r3, [r3, #12]
 8003092:	61bb      	str	r3, [r7, #24]
        if((READ_BIT(pll_config, RCC_CFGR_PLLSRC) != RCC_OscInitStruct->PLL.PLLSource) ||
 8003094:	69ba      	ldr	r2, [r7, #24]
 8003096:	2380      	movs	r3, #128	; 0x80
 8003098:	025b      	lsls	r3, r3, #9
 800309a:	401a      	ands	r2, r3
 800309c:	687b      	ldr	r3, [r7, #4]
 800309e:	6adb      	ldr	r3, [r3, #44]	; 0x2c
 80030a0:	429a      	cmp	r2, r3
 80030a2:	d10f      	bne.n	80030c4 <HAL_RCC_OscConfig+0x78c>
           (READ_BIT(pll_config, RCC_CFGR_PLLMUL) != RCC_OscInitStruct->PLL.PLLMUL) ||
 80030a4:	69ba      	ldr	r2, [r7, #24]
 80030a6:	23f0      	movs	r3, #240	; 0xf0
 80030a8:	039b      	lsls	r3, r3, #14
 80030aa:	401a      	ands	r2, r3
 80030ac:	687b      	ldr	r3, [r7, #4]
 80030ae:	6b1b      	ldr	r3, [r3, #48]	; 0x30
        if((READ_BIT(pll_config, RCC_CFGR_PLLSRC) != RCC_OscInitStruct->PLL.PLLSource) ||
 80030b0:	429a      	cmp	r2, r3
 80030b2:	d107      	bne.n	80030c4 <HAL_RCC_OscConfig+0x78c>
           (READ_BIT(pll_config, RCC_CFGR_PLLDIV) != RCC_OscInitStruct->PLL.PLLDIV))
 80030b4:	69ba      	ldr	r2, [r7, #24]
 80030b6:	23c0      	movs	r3, #192	; 0xc0
 80030b8:	041b      	lsls	r3, r3, #16
 80030ba:	401a      	ands	r2, r3
 80030bc:	687b      	ldr	r3, [r7, #4]
 80030be:	6b5b      	ldr	r3, [r3, #52]	; 0x34
           (READ_BIT(pll_config, RCC_CFGR_PLLMUL) != RCC_OscInitStruct->PLL.PLLMUL) ||
 80030c0:	429a      	cmp	r2, r3
 80030c2:	d001      	beq.n	80030c8 <HAL_RCC_OscConfig+0x790>
        {
          return HAL_ERROR;
 80030c4:	2301      	movs	r3, #1
 80030c6:	e000      	b.n	80030ca <HAL_RCC_OscConfig+0x792>
        }
      }
    }
  }
  return HAL_OK;
 80030c8:	2300      	movs	r3, #0
}
 80030ca:	0018      	movs	r0, r3
 80030cc:	46bd      	mov	sp, r7
 80030ce:	b00a      	add	sp, #40	; 0x28
 80030d0:	bdb0      	pop	{r4, r5, r7, pc}
 80030d2:	46c0      	nop			; (mov r8, r8)
 80030d4:	40021000 	.word	0x40021000
 80030d8:	ff02ffff 	.word	0xff02ffff
 80030dc:	feffffff 	.word	0xfeffffff

080030e0 <HAL_RCC_ClockConfig>:
  *         HPRE[3:0] bits to ensure that HCLK not exceed the maximum allowed frequency
  *         (for more details refer to section above "Initialization/de-initialization functions")
  * @retval HAL status
  */
HAL_StatusTypeDef HAL_RCC_ClockConfig(RCC_ClkInitTypeDef  *RCC_ClkInitStruct, uint32_t FLatency)
{
 80030e0:	b5b0      	push	{r4, r5, r7, lr}
 80030e2:	b084      	sub	sp, #16
 80030e4:	af00      	add	r7, sp, #0
 80030e6:	6078      	str	r0, [r7, #4]
 80030e8:	6039      	str	r1, [r7, #0]
  uint32_t tickstart;
  HAL_StatusTypeDef status;

  /* Check Null pointer */
  if(RCC_ClkInitStruct == NULL)
 80030ea:	687b      	ldr	r3, [r7, #4]
 80030ec:	2b00      	cmp	r3, #0
 80030ee:	d101      	bne.n	80030f4 <HAL_RCC_ClockConfig+0x14>
  {
    return HAL_ERROR;
 80030f0:	2301      	movs	r3, #1
 80030f2:	e128      	b.n	8003346 <HAL_RCC_ClockConfig+0x266>
  /* To correctly read data from FLASH memory, the number of wait states (LATENCY)
  must be correctly programmed according to the frequency of the CPU clock
  (HCLK) and the supply voltage of the device. */

  /* Increasing the number of wait states because of higher CPU frequency */
  if(FLatency > __HAL_FLASH_GET_LATENCY())
 80030f4:	4b96      	ldr	r3, [pc, #600]	; (8003350 <HAL_RCC_ClockConfig+0x270>)
 80030f6:	681b      	ldr	r3, [r3, #0]
 80030f8:	2201      	movs	r2, #1
 80030fa:	4013      	ands	r3, r2
 80030fc:	683a      	ldr	r2, [r7, #0]
 80030fe:	429a      	cmp	r2, r3
 8003100:	d91e      	bls.n	8003140 <HAL_RCC_ClockConfig+0x60>
  {
    /* Program the new number of wait states to the LATENCY bits in the FLASH_ACR register */
    __HAL_FLASH_SET_LATENCY(FLatency);
 8003102:	4b93      	ldr	r3, [pc, #588]	; (8003350 <HAL_RCC_ClockConfig+0x270>)
 8003104:	681b      	ldr	r3, [r3, #0]
 8003106:	2201      	movs	r2, #1
 8003108:	4393      	bics	r3, r2
 800310a:	0019      	movs	r1, r3
 800310c:	4b90      	ldr	r3, [pc, #576]	; (8003350 <HAL_RCC_ClockConfig+0x270>)
 800310e:	683a      	ldr	r2, [r7, #0]
 8003110:	430a      	orrs	r2, r1
 8003112:	601a      	str	r2, [r3, #0]

    /* Check that the new number of wait states is taken into account to access the Flash
    memory by polling the FLASH_ACR register */
    tickstart = HAL_GetTick();
 8003114:	f7fe fca0 	bl	8001a58 <HAL_GetTick>
 8003118:	0003      	movs	r3, r0
 800311a:	60fb      	str	r3, [r7, #12]

    while (__HAL_FLASH_GET_LATENCY() != FLatency)
 800311c:	e009      	b.n	8003132 <HAL_RCC_ClockConfig+0x52>
    {
      if ((HAL_GetTick() - tickstart) > CLOCKSWITCH_TIMEOUT_VALUE)
 800311e:	f7fe fc9b 	bl	8001a58 <HAL_GetTick>
 8003122:	0002      	movs	r2, r0
 8003124:	68fb      	ldr	r3, [r7, #12]
 8003126:	1ad3      	subs	r3, r2, r3
 8003128:	4a8a      	ldr	r2, [pc, #552]	; (8003354 <HAL_RCC_ClockConfig+0x274>)
 800312a:	4293      	cmp	r3, r2
 800312c:	d901      	bls.n	8003132 <HAL_RCC_ClockConfig+0x52>
      {
        return HAL_TIMEOUT;
 800312e:	2303      	movs	r3, #3
 8003130:	e109      	b.n	8003346 <HAL_RCC_ClockConfig+0x266>
    while (__HAL_FLASH_GET_LATENCY() != FLatency)
 8003132:	4b87      	ldr	r3, [pc, #540]	; (8003350 <HAL_RCC_ClockConfig+0x270>)
 8003134:	681b      	ldr	r3, [r3, #0]
 8003136:	2201      	movs	r2, #1
 8003138:	4013      	ands	r3, r2
 800313a:	683a      	ldr	r2, [r7, #0]
 800313c:	429a      	cmp	r2, r3
 800313e:	d1ee      	bne.n	800311e <HAL_RCC_ClockConfig+0x3e>
      }
    }
  }

  /*-------------------------- HCLK Configuration --------------------------*/
  if(((RCC_ClkInitStruct->ClockType) & RCC_CLOCKTYPE_HCLK) == RCC_CLOCKTYPE_HCLK)
 8003140:	687b      	ldr	r3, [r7, #4]
 8003142:	681b      	ldr	r3, [r3, #0]
 8003144:	2202      	movs	r2, #2
 8003146:	4013      	ands	r3, r2
 8003148:	d009      	beq.n	800315e <HAL_RCC_ClockConfig+0x7e>
  {
    assert_param(IS_RCC_HCLK(RCC_ClkInitStruct->AHBCLKDivider));
    MODIFY_REG(RCC->CFGR, RCC_CFGR_HPRE, RCC_ClkInitStruct->AHBCLKDivider);
 800314a:	4b83      	ldr	r3, [pc, #524]	; (8003358 <HAL_RCC_ClockConfig+0x278>)
 800314c:	68db      	ldr	r3, [r3, #12]
 800314e:	22f0      	movs	r2, #240	; 0xf0
 8003150:	4393      	bics	r3, r2
 8003152:	0019      	movs	r1, r3
 8003154:	687b      	ldr	r3, [r7, #4]
 8003156:	689a      	ldr	r2, [r3, #8]
 8003158:	4b7f      	ldr	r3, [pc, #508]	; (8003358 <HAL_RCC_ClockConfig+0x278>)
 800315a:	430a      	orrs	r2, r1
 800315c:	60da      	str	r2, [r3, #12]
  }

  /*------------------------- SYSCLK Configuration ---------------------------*/
  if(((RCC_ClkInitStruct->ClockType) & RCC_CLOCKTYPE_SYSCLK) == RCC_CLOCKTYPE_SYSCLK)
 800315e:	687b      	ldr	r3, [r7, #4]
 8003160:	681b      	ldr	r3, [r3, #0]
 8003162:	2201      	movs	r2, #1
 8003164:	4013      	ands	r3, r2
 8003166:	d100      	bne.n	800316a <HAL_RCC_ClockConfig+0x8a>
 8003168:	e089      	b.n	800327e <HAL_RCC_ClockConfig+0x19e>
  {
    assert_param(IS_RCC_SYSCLKSOURCE(RCC_ClkInitStruct->SYSCLKSource));

    /* HSE is selected as System Clock Source */
    if(RCC_ClkInitStruct->SYSCLKSource == RCC_SYSCLKSOURCE_HSE)
 800316a:	687b      	ldr	r3, [r7, #4]
 800316c:	685b      	ldr	r3, [r3, #4]
 800316e:	2b02      	cmp	r3, #2
 8003170:	d107      	bne.n	8003182 <HAL_RCC_ClockConfig+0xa2>
    {
      /* Check the HSE ready flag */
      if(__HAL_RCC_GET_FLAG(RCC_FLAG_HSERDY) == 0U)
 8003172:	4b79      	ldr	r3, [pc, #484]	; (8003358 <HAL_RCC_ClockConfig+0x278>)
 8003174:	681a      	ldr	r2, [r3, #0]
 8003176:	2380      	movs	r3, #128	; 0x80
 8003178:	029b      	lsls	r3, r3, #10
 800317a:	4013      	ands	r3, r2
 800317c:	d120      	bne.n	80031c0 <HAL_RCC_ClockConfig+0xe0>
      {
        return HAL_ERROR;
 800317e:	2301      	movs	r3, #1
 8003180:	e0e1      	b.n	8003346 <HAL_RCC_ClockConfig+0x266>
      }
    }
    /* PLL is selected as System Clock Source */
    else if(RCC_ClkInitStruct->SYSCLKSource == RCC_SYSCLKSOURCE_PLLCLK)
 8003182:	687b      	ldr	r3, [r7, #4]
 8003184:	685b      	ldr	r3, [r3, #4]
 8003186:	2b03      	cmp	r3, #3
 8003188:	d107      	bne.n	800319a <HAL_RCC_ClockConfig+0xba>
    {
      /* Check the PLL ready flag */
      if(__HAL_RCC_GET_FLAG(RCC_FLAG_PLLRDY) == 0U)
 800318a:	4b73      	ldr	r3, [pc, #460]	; (8003358 <HAL_RCC_ClockConfig+0x278>)
 800318c:	681a      	ldr	r2, [r3, #0]
 800318e:	2380      	movs	r3, #128	; 0x80
 8003190:	049b      	lsls	r3, r3, #18
 8003192:	4013      	ands	r3, r2
 8003194:	d114      	bne.n	80031c0 <HAL_RCC_ClockConfig+0xe0>
      {
        return HAL_ERROR;
 8003196:	2301      	movs	r3, #1
 8003198:	e0d5      	b.n	8003346 <HAL_RCC_ClockConfig+0x266>
      }
    }
    /* HSI is selected as System Clock Source */
    else if(RCC_ClkInitStruct->SYSCLKSource == RCC_SYSCLKSOURCE_HSI)
 800319a:	687b      	ldr	r3, [r7, #4]
 800319c:	685b      	ldr	r3, [r3, #4]
 800319e:	2b01      	cmp	r3, #1
 80031a0:	d106      	bne.n	80031b0 <HAL_RCC_ClockConfig+0xd0>
    {
      /* Check the HSI ready flag */
      if(__HAL_RCC_GET_FLAG(RCC_FLAG_HSIRDY) == 0U)
 80031a2:	4b6d      	ldr	r3, [pc, #436]	; (8003358 <HAL_RCC_ClockConfig+0x278>)
 80031a4:	681b      	ldr	r3, [r3, #0]
 80031a6:	2204      	movs	r2, #4
 80031a8:	4013      	ands	r3, r2
 80031aa:	d109      	bne.n	80031c0 <HAL_RCC_ClockConfig+0xe0>
      {
        return HAL_ERROR;
 80031ac:	2301      	movs	r3, #1
 80031ae:	e0ca      	b.n	8003346 <HAL_RCC_ClockConfig+0x266>
    }
    /* MSI is selected as System Clock Source */
    else
    {
      /* Check the MSI ready flag */
      if(__HAL_RCC_GET_FLAG(RCC_FLAG_MSIRDY) == 0U)
 80031b0:	4b69      	ldr	r3, [pc, #420]	; (8003358 <HAL_RCC_ClockConfig+0x278>)
 80031b2:	681a      	ldr	r2, [r3, #0]
 80031b4:	2380      	movs	r3, #128	; 0x80
 80031b6:	009b      	lsls	r3, r3, #2
 80031b8:	4013      	ands	r3, r2
 80031ba:	d101      	bne.n	80031c0 <HAL_RCC_ClockConfig+0xe0>
      {
        return HAL_ERROR;
 80031bc:	2301      	movs	r3, #1
 80031be:	e0c2      	b.n	8003346 <HAL_RCC_ClockConfig+0x266>
      }
    }
    __HAL_RCC_SYSCLK_CONFIG(RCC_ClkInitStruct->SYSCLKSource);
 80031c0:	4b65      	ldr	r3, [pc, #404]	; (8003358 <HAL_RCC_ClockConfig+0x278>)
 80031c2:	68db      	ldr	r3, [r3, #12]
 80031c4:	2203      	movs	r2, #3
 80031c6:	4393      	bics	r3, r2
 80031c8:	0019      	movs	r1, r3
 80031ca:	687b      	ldr	r3, [r7, #4]
 80031cc:	685a      	ldr	r2, [r3, #4]
 80031ce:	4b62      	ldr	r3, [pc, #392]	; (8003358 <HAL_RCC_ClockConfig+0x278>)
 80031d0:	430a      	orrs	r2, r1
 80031d2:	60da      	str	r2, [r3, #12]

    /* Get Start Tick */
    tickstart = HAL_GetTick();
 80031d4:	f7fe fc40 	bl	8001a58 <HAL_GetTick>
 80031d8:	0003      	movs	r3, r0
 80031da:	60fb      	str	r3, [r7, #12]

    if(RCC_ClkInitStruct->SYSCLKSource == RCC_SYSCLKSOURCE_HSE)
 80031dc:	687b      	ldr	r3, [r7, #4]
 80031de:	685b      	ldr	r3, [r3, #4]
 80031e0:	2b02      	cmp	r3, #2
 80031e2:	d111      	bne.n	8003208 <HAL_RCC_ClockConfig+0x128>
    {
      while (__HAL_RCC_GET_SYSCLK_SOURCE() != RCC_SYSCLKSOURCE_STATUS_HSE)
 80031e4:	e009      	b.n	80031fa <HAL_RCC_ClockConfig+0x11a>
      {
        if((HAL_GetTick() - tickstart ) > CLOCKSWITCH_TIMEOUT_VALUE)
 80031e6:	f7fe fc37 	bl	8001a58 <HAL_GetTick>
 80031ea:	0002      	movs	r2, r0
 80031ec:	68fb      	ldr	r3, [r7, #12]
 80031ee:	1ad3      	subs	r3, r2, r3
 80031f0:	4a58      	ldr	r2, [pc, #352]	; (8003354 <HAL_RCC_ClockConfig+0x274>)
 80031f2:	4293      	cmp	r3, r2
 80031f4:	d901      	bls.n	80031fa <HAL_RCC_ClockConfig+0x11a>
        {
          return HAL_TIMEOUT;
 80031f6:	2303      	movs	r3, #3
 80031f8:	e0a5      	b.n	8003346 <HAL_RCC_ClockConfig+0x266>
      while (__HAL_RCC_GET_SYSCLK_SOURCE() != RCC_SYSCLKSOURCE_STATUS_HSE)
 80031fa:	4b57      	ldr	r3, [pc, #348]	; (8003358 <HAL_RCC_ClockConfig+0x278>)
 80031fc:	68db      	ldr	r3, [r3, #12]
 80031fe:	220c      	movs	r2, #12
 8003200:	4013      	ands	r3, r2
 8003202:	2b08      	cmp	r3, #8
 8003204:	d1ef      	bne.n	80031e6 <HAL_RCC_ClockConfig+0x106>
 8003206:	e03a      	b.n	800327e <HAL_RCC_ClockConfig+0x19e>
        }
      }
    }
    else if(RCC_ClkInitStruct->SYSCLKSource == RCC_SYSCLKSOURCE_PLLCLK)
 8003208:	687b      	ldr	r3, [r7, #4]
 800320a:	685b      	ldr	r3, [r3, #4]
 800320c:	2b03      	cmp	r3, #3
 800320e:	d111      	bne.n	8003234 <HAL_RCC_ClockConfig+0x154>
    {
      while (__HAL_RCC_GET_SYSCLK_SOURCE() != RCC_SYSCLKSOURCE_STATUS_PLLCLK)
 8003210:	e009      	b.n	8003226 <HAL_RCC_ClockConfig+0x146>
      {
        if((HAL_GetTick() - tickstart ) > CLOCKSWITCH_TIMEOUT_VALUE)
 8003212:	f7fe fc21 	bl	8001a58 <HAL_GetTick>
 8003216:	0002      	movs	r2, r0
 8003218:	68fb      	ldr	r3, [r7, #12]
 800321a:	1ad3      	subs	r3, r2, r3
 800321c:	4a4d      	ldr	r2, [pc, #308]	; (8003354 <HAL_RCC_ClockConfig+0x274>)
 800321e:	4293      	cmp	r3, r2
 8003220:	d901      	bls.n	8003226 <HAL_RCC_ClockConfig+0x146>
        {
          return HAL_TIMEOUT;
 8003222:	2303      	movs	r3, #3
 8003224:	e08f      	b.n	8003346 <HAL_RCC_ClockConfig+0x266>
      while (__HAL_RCC_GET_SYSCLK_SOURCE() != RCC_SYSCLKSOURCE_STATUS_PLLCLK)
 8003226:	4b4c      	ldr	r3, [pc, #304]	; (8003358 <HAL_RCC_ClockConfig+0x278>)
 8003228:	68db      	ldr	r3, [r3, #12]
 800322a:	220c      	movs	r2, #12
 800322c:	4013      	ands	r3, r2
 800322e:	2b0c      	cmp	r3, #12
 8003230:	d1ef      	bne.n	8003212 <HAL_RCC_ClockConfig+0x132>
 8003232:	e024      	b.n	800327e <HAL_RCC_ClockConfig+0x19e>
        }
      }
    }
    else if(RCC_ClkInitStruct->SYSCLKSource == RCC_SYSCLKSOURCE_HSI)
 8003234:	687b      	ldr	r3, [r7, #4]
 8003236:	685b      	ldr	r3, [r3, #4]
 8003238:	2b01      	cmp	r3, #1
 800323a:	d11b      	bne.n	8003274 <HAL_RCC_ClockConfig+0x194>
    {
      while (__HAL_RCC_GET_SYSCLK_SOURCE() != RCC_SYSCLKSOURCE_STATUS_HSI)
 800323c:	e009      	b.n	8003252 <HAL_RCC_ClockConfig+0x172>
      {
        if((HAL_GetTick() - tickstart ) > CLOCKSWITCH_TIMEOUT_VALUE)
 800323e:	f7fe fc0b 	bl	8001a58 <HAL_GetTick>
 8003242:	0002      	movs	r2, r0
 8003244:	68fb      	ldr	r3, [r7, #12]
 8003246:	1ad3      	subs	r3, r2, r3
 8003248:	4a42      	ldr	r2, [pc, #264]	; (8003354 <HAL_RCC_ClockConfig+0x274>)
 800324a:	4293      	cmp	r3, r2
 800324c:	d901      	bls.n	8003252 <HAL_RCC_ClockConfig+0x172>
        {
          return HAL_TIMEOUT;
 800324e:	2303      	movs	r3, #3
 8003250:	e079      	b.n	8003346 <HAL_RCC_ClockConfig+0x266>
      while (__HAL_RCC_GET_SYSCLK_SOURCE() != RCC_SYSCLKSOURCE_STATUS_HSI)
 8003252:	4b41      	ldr	r3, [pc, #260]	; (8003358 <HAL_RCC_ClockConfig+0x278>)
 8003254:	68db      	ldr	r3, [r3, #12]
 8003256:	220c      	movs	r2, #12
 8003258:	4013      	ands	r3, r2
 800325a:	2b04      	cmp	r3, #4
 800325c:	d1ef      	bne.n	800323e <HAL_RCC_ClockConfig+0x15e>
 800325e:	e00e      	b.n	800327e <HAL_RCC_ClockConfig+0x19e>
    }
    else
    {
      while(__HAL_RCC_GET_SYSCLK_SOURCE() != RCC_SYSCLKSOURCE_STATUS_MSI)
      {
        if((HAL_GetTick() - tickstart ) > CLOCKSWITCH_TIMEOUT_VALUE)
 8003260:	f7fe fbfa 	bl	8001a58 <HAL_GetTick>
 8003264:	0002      	movs	r2, r0
 8003266:	68fb      	ldr	r3, [r7, #12]
 8003268:	1ad3      	subs	r3, r2, r3
 800326a:	4a3a      	ldr	r2, [pc, #232]	; (8003354 <HAL_RCC_ClockConfig+0x274>)
 800326c:	4293      	cmp	r3, r2
 800326e:	d901      	bls.n	8003274 <HAL_RCC_ClockConfig+0x194>
        {
          return HAL_TIMEOUT;
 8003270:	2303      	movs	r3, #3
 8003272:	e068      	b.n	8003346 <HAL_RCC_ClockConfig+0x266>
      while(__HAL_RCC_GET_SYSCLK_SOURCE() != RCC_SYSCLKSOURCE_STATUS_MSI)
 8003274:	4b38      	ldr	r3, [pc, #224]	; (8003358 <HAL_RCC_ClockConfig+0x278>)
 8003276:	68db      	ldr	r3, [r3, #12]
 8003278:	220c      	movs	r2, #12
 800327a:	4013      	ands	r3, r2
 800327c:	d1f0      	bne.n	8003260 <HAL_RCC_ClockConfig+0x180>
        }
      }
    }
  }
  /* Decreasing the number of wait states because of lower CPU frequency */
  if(FLatency < __HAL_FLASH_GET_LATENCY())
 800327e:	4b34      	ldr	r3, [pc, #208]	; (8003350 <HAL_RCC_ClockConfig+0x270>)
 8003280:	681b      	ldr	r3, [r3, #0]
 8003282:	2201      	movs	r2, #1
 8003284:	4013      	ands	r3, r2
 8003286:	683a      	ldr	r2, [r7, #0]
 8003288:	429a      	cmp	r2, r3
 800328a:	d21e      	bcs.n	80032ca <HAL_RCC_ClockConfig+0x1ea>
  {
    /* Program the new number of wait states to the LATENCY bits in the FLASH_ACR register */
    __HAL_FLASH_SET_LATENCY(FLatency);
 800328c:	4b30      	ldr	r3, [pc, #192]	; (8003350 <HAL_RCC_ClockConfig+0x270>)
 800328e:	681b      	ldr	r3, [r3, #0]
 8003290:	2201      	movs	r2, #1
 8003292:	4393      	bics	r3, r2
 8003294:	0019      	movs	r1, r3
 8003296:	4b2e      	ldr	r3, [pc, #184]	; (8003350 <HAL_RCC_ClockConfig+0x270>)
 8003298:	683a      	ldr	r2, [r7, #0]
 800329a:	430a      	orrs	r2, r1
 800329c:	601a      	str	r2, [r3, #0]

    /* Check that the new number of wait states is taken into account to access the Flash
    memory by polling the FLASH_ACR register */
    tickstart = HAL_GetTick();
 800329e:	f7fe fbdb 	bl	8001a58 <HAL_GetTick>
 80032a2:	0003      	movs	r3, r0
 80032a4:	60fb      	str	r3, [r7, #12]

    while (__HAL_FLASH_GET_LATENCY() != FLatency)
 80032a6:	e009      	b.n	80032bc <HAL_RCC_ClockConfig+0x1dc>
    {
      if ((HAL_GetTick() - tickstart) > CLOCKSWITCH_TIMEOUT_VALUE)
 80032a8:	f7fe fbd6 	bl	8001a58 <HAL_GetTick>
 80032ac:	0002      	movs	r2, r0
 80032ae:	68fb      	ldr	r3, [r7, #12]
 80032b0:	1ad3      	subs	r3, r2, r3
 80032b2:	4a28      	ldr	r2, [pc, #160]	; (8003354 <HAL_RCC_ClockConfig+0x274>)
 80032b4:	4293      	cmp	r3, r2
 80032b6:	d901      	bls.n	80032bc <HAL_RCC_ClockConfig+0x1dc>
      {
        return HAL_TIMEOUT;
 80032b8:	2303      	movs	r3, #3
 80032ba:	e044      	b.n	8003346 <HAL_RCC_ClockConfig+0x266>
    while (__HAL_FLASH_GET_LATENCY() != FLatency)
 80032bc:	4b24      	ldr	r3, [pc, #144]	; (8003350 <HAL_RCC_ClockConfig+0x270>)
 80032be:	681b      	ldr	r3, [r3, #0]
 80032c0:	2201      	movs	r2, #1
 80032c2:	4013      	ands	r3, r2
 80032c4:	683a      	ldr	r2, [r7, #0]
 80032c6:	429a      	cmp	r2, r3
 80032c8:	d1ee      	bne.n	80032a8 <HAL_RCC_ClockConfig+0x1c8>
      }
    }
  }

  /*-------------------------- PCLK1 Configuration ---------------------------*/
  if(((RCC_ClkInitStruct->ClockType) & RCC_CLOCKTYPE_PCLK1) == RCC_CLOCKTYPE_PCLK1)
 80032ca:	687b      	ldr	r3, [r7, #4]
 80032cc:	681b      	ldr	r3, [r3, #0]
 80032ce:	2204      	movs	r2, #4
 80032d0:	4013      	ands	r3, r2
 80032d2:	d009      	beq.n	80032e8 <HAL_RCC_ClockConfig+0x208>
  {
    assert_param(IS_RCC_PCLK(RCC_ClkInitStruct->APB1CLKDivider));
    MODIFY_REG(RCC->CFGR, RCC_CFGR_PPRE1, RCC_ClkInitStruct->APB1CLKDivider);
 80032d4:	4b20      	ldr	r3, [pc, #128]	; (8003358 <HAL_RCC_ClockConfig+0x278>)
 80032d6:	68db      	ldr	r3, [r3, #12]
 80032d8:	4a20      	ldr	r2, [pc, #128]	; (800335c <HAL_RCC_ClockConfig+0x27c>)
 80032da:	4013      	ands	r3, r2
 80032dc:	0019      	movs	r1, r3
 80032de:	687b      	ldr	r3, [r7, #4]
 80032e0:	68da      	ldr	r2, [r3, #12]
 80032e2:	4b1d      	ldr	r3, [pc, #116]	; (8003358 <HAL_RCC_ClockConfig+0x278>)
 80032e4:	430a      	orrs	r2, r1
 80032e6:	60da      	str	r2, [r3, #12]
  }

  /*-------------------------- PCLK2 Configuration ---------------------------*/
  if(((RCC_ClkInitStruct->ClockType) & RCC_CLOCKTYPE_PCLK2) == RCC_CLOCKTYPE_PCLK2)
 80032e8:	687b      	ldr	r3, [r7, #4]
 80032ea:	681b      	ldr	r3, [r3, #0]
 80032ec:	2208      	movs	r2, #8
 80032ee:	4013      	ands	r3, r2
 80032f0:	d00a      	beq.n	8003308 <HAL_RCC_ClockConfig+0x228>
  {
    assert_param(IS_RCC_PCLK(RCC_ClkInitStruct->APB2CLKDivider));
    MODIFY_REG(RCC->CFGR, RCC_CFGR_PPRE2, ((RCC_ClkInitStruct->APB2CLKDivider) << 3));
 80032f2:	4b19      	ldr	r3, [pc, #100]	; (8003358 <HAL_RCC_ClockConfig+0x278>)
 80032f4:	68db      	ldr	r3, [r3, #12]
 80032f6:	4a1a      	ldr	r2, [pc, #104]	; (8003360 <HAL_RCC_ClockConfig+0x280>)
 80032f8:	4013      	ands	r3, r2
 80032fa:	0019      	movs	r1, r3
 80032fc:	687b      	ldr	r3, [r7, #4]
 80032fe:	691b      	ldr	r3, [r3, #16]
 8003300:	00da      	lsls	r2, r3, #3
 8003302:	4b15      	ldr	r3, [pc, #84]	; (8003358 <HAL_RCC_ClockConfig+0x278>)
 8003304:	430a      	orrs	r2, r1
 8003306:	60da      	str	r2, [r3, #12]
  }

  /* Update the SystemCoreClock global variable */
  SystemCoreClock = HAL_RCC_GetSysClockFreq() >> AHBPrescTable[(RCC->CFGR & RCC_CFGR_HPRE)>> RCC_CFGR_HPRE_Pos];
 8003308:	f000 f832 	bl	8003370 <HAL_RCC_GetSysClockFreq>
 800330c:	0001      	movs	r1, r0
 800330e:	4b12      	ldr	r3, [pc, #72]	; (8003358 <HAL_RCC_ClockConfig+0x278>)
 8003310:	68db      	ldr	r3, [r3, #12]
 8003312:	091b      	lsrs	r3, r3, #4
 8003314:	220f      	movs	r2, #15
 8003316:	4013      	ands	r3, r2
 8003318:	4a12      	ldr	r2, [pc, #72]	; (8003364 <HAL_RCC_ClockConfig+0x284>)
 800331a:	5cd3      	ldrb	r3, [r2, r3]
 800331c:	000a      	movs	r2, r1
 800331e:	40da      	lsrs	r2, r3
 8003320:	4b11      	ldr	r3, [pc, #68]	; (8003368 <HAL_RCC_ClockConfig+0x288>)
 8003322:	601a      	str	r2, [r3, #0]

  /* Configure the source of time base considering new system clocks settings*/
  status = HAL_InitTick(uwTickPrio);
 8003324:	4b11      	ldr	r3, [pc, #68]	; (800336c <HAL_RCC_ClockConfig+0x28c>)
 8003326:	681b      	ldr	r3, [r3, #0]
 8003328:	250b      	movs	r5, #11
 800332a:	197c      	adds	r4, r7, r5
 800332c:	0018      	movs	r0, r3
 800332e:	f7fe fb4d 	bl	80019cc <HAL_InitTick>
 8003332:	0003      	movs	r3, r0
 8003334:	7023      	strb	r3, [r4, #0]
  if(status != HAL_OK)
 8003336:	197b      	adds	r3, r7, r5
 8003338:	781b      	ldrb	r3, [r3, #0]
 800333a:	2b00      	cmp	r3, #0
 800333c:	d002      	beq.n	8003344 <HAL_RCC_ClockConfig+0x264>
  {
    return status;
 800333e:	197b      	adds	r3, r7, r5
 8003340:	781b      	ldrb	r3, [r3, #0]
 8003342:	e000      	b.n	8003346 <HAL_RCC_ClockConfig+0x266>
  }

  return HAL_OK;
 8003344:	2300      	movs	r3, #0
}
 8003346:	0018      	movs	r0, r3
 8003348:	46bd      	mov	sp, r7
 800334a:	b004      	add	sp, #16
 800334c:	bdb0      	pop	{r4, r5, r7, pc}
 800334e:	46c0      	nop			; (mov r8, r8)
 8003350:	40022000 	.word	0x40022000
 8003354:	00001388 	.word	0x00001388
 8003358:	40021000 	.word	0x40021000
 800335c:	fffff8ff 	.word	0xfffff8ff
 8003360:	ffffc7ff 	.word	0xffffc7ff
 8003364:	080065bc 	.word	0x080065bc
 8003368:	20000020 	.word	0x20000020
 800336c:	20000024 	.word	0x20000024

08003370 <HAL_RCC_GetSysClockFreq>:
  *         right SYSCLK value. Otherwise, any configuration based on this function will be incorrect.
  *
  * @retval SYSCLK frequency
  */
uint32_t HAL_RCC_GetSysClockFreq(void)
{
 8003370:	b5b0      	push	{r4, r5, r7, lr}
 8003372:	b08e      	sub	sp, #56	; 0x38
 8003374:	af00      	add	r7, sp, #0
  uint32_t tmpreg, pllm, plld, pllvco, msiclkrange;    /* no init needed */
  uint32_t sysclockfreq;

  tmpreg = RCC->CFGR;
 8003376:	4b4c      	ldr	r3, [pc, #304]	; (80034a8 <HAL_RCC_GetSysClockFreq+0x138>)
 8003378:	68db      	ldr	r3, [r3, #12]
 800337a:	62fb      	str	r3, [r7, #44]	; 0x2c

  /* Get SYSCLK source -------------------------------------------------------*/
  switch (tmpreg & RCC_CFGR_SWS)
 800337c:	6afa      	ldr	r2, [r7, #44]	; 0x2c
 800337e:	230c      	movs	r3, #12
 8003380:	4013      	ands	r3, r2
 8003382:	2b0c      	cmp	r3, #12
 8003384:	d014      	beq.n	80033b0 <HAL_RCC_GetSysClockFreq+0x40>
 8003386:	d900      	bls.n	800338a <HAL_RCC_GetSysClockFreq+0x1a>
 8003388:	e07b      	b.n	8003482 <HAL_RCC_GetSysClockFreq+0x112>
 800338a:	2b04      	cmp	r3, #4
 800338c:	d002      	beq.n	8003394 <HAL_RCC_GetSysClockFreq+0x24>
 800338e:	2b08      	cmp	r3, #8
 8003390:	d00b      	beq.n	80033aa <HAL_RCC_GetSysClockFreq+0x3a>
 8003392:	e076      	b.n	8003482 <HAL_RCC_GetSysClockFreq+0x112>
  {
    case RCC_SYSCLKSOURCE_STATUS_HSI:  /* HSI used as system clock source */
    {
      if ((RCC->CR & RCC_CR_HSIDIVF) != 0U)
 8003394:	4b44      	ldr	r3, [pc, #272]	; (80034a8 <HAL_RCC_GetSysClockFreq+0x138>)
 8003396:	681b      	ldr	r3, [r3, #0]
 8003398:	2210      	movs	r2, #16
 800339a:	4013      	ands	r3, r2
 800339c:	d002      	beq.n	80033a4 <HAL_RCC_GetSysClockFreq+0x34>
      {
        sysclockfreq =  (HSI_VALUE >> 2);
 800339e:	4b43      	ldr	r3, [pc, #268]	; (80034ac <HAL_RCC_GetSysClockFreq+0x13c>)
 80033a0:	633b      	str	r3, [r7, #48]	; 0x30
      }
      else
      {
        sysclockfreq =  HSI_VALUE;
      }
      break;
 80033a2:	e07c      	b.n	800349e <HAL_RCC_GetSysClockFreq+0x12e>
        sysclockfreq =  HSI_VALUE;
 80033a4:	4b42      	ldr	r3, [pc, #264]	; (80034b0 <HAL_RCC_GetSysClockFreq+0x140>)
 80033a6:	633b      	str	r3, [r7, #48]	; 0x30
      break;
 80033a8:	e079      	b.n	800349e <HAL_RCC_GetSysClockFreq+0x12e>
    }
    case RCC_SYSCLKSOURCE_STATUS_HSE:  /* HSE used as system clock */
    {
      sysclockfreq = HSE_VALUE;
 80033aa:	4b42      	ldr	r3, [pc, #264]	; (80034b4 <HAL_RCC_GetSysClockFreq+0x144>)
 80033ac:	633b      	str	r3, [r7, #48]	; 0x30
      break;
 80033ae:	e076      	b.n	800349e <HAL_RCC_GetSysClockFreq+0x12e>
    }
    case RCC_SYSCLKSOURCE_STATUS_PLLCLK:  /* PLL used as system clock */
    {
      pllm = PLLMulTable[(uint32_t)(tmpreg & RCC_CFGR_PLLMUL) >> RCC_CFGR_PLLMUL_Pos];
 80033b0:	6afb      	ldr	r3, [r7, #44]	; 0x2c
 80033b2:	0c9a      	lsrs	r2, r3, #18
 80033b4:	230f      	movs	r3, #15
 80033b6:	401a      	ands	r2, r3
 80033b8:	4b3f      	ldr	r3, [pc, #252]	; (80034b8 <HAL_RCC_GetSysClockFreq+0x148>)
 80033ba:	5c9b      	ldrb	r3, [r3, r2]
 80033bc:	62bb      	str	r3, [r7, #40]	; 0x28
      plld = ((uint32_t)(tmpreg & RCC_CFGR_PLLDIV) >> RCC_CFGR_PLLDIV_Pos) + 1U;
 80033be:	6afb      	ldr	r3, [r7, #44]	; 0x2c
 80033c0:	0d9a      	lsrs	r2, r3, #22
 80033c2:	2303      	movs	r3, #3
 80033c4:	4013      	ands	r3, r2
 80033c6:	3301      	adds	r3, #1
 80033c8:	627b      	str	r3, [r7, #36]	; 0x24
      if (__HAL_RCC_GET_PLL_OSCSOURCE() != RCC_PLLSOURCE_HSI)
 80033ca:	4b37      	ldr	r3, [pc, #220]	; (80034a8 <HAL_RCC_GetSysClockFreq+0x138>)
 80033cc:	68da      	ldr	r2, [r3, #12]
 80033ce:	2380      	movs	r3, #128	; 0x80
 80033d0:	025b      	lsls	r3, r3, #9
 80033d2:	4013      	ands	r3, r2
 80033d4:	d01a      	beq.n	800340c <HAL_RCC_GetSysClockFreq+0x9c>
      {
        /* HSE used as PLL clock source */
        pllvco = (uint32_t)(((uint64_t)HSE_VALUE * (uint64_t)pllm) / (uint64_t)plld);
 80033d6:	6abb      	ldr	r3, [r7, #40]	; 0x28
 80033d8:	61bb      	str	r3, [r7, #24]
 80033da:	2300      	movs	r3, #0
 80033dc:	61fb      	str	r3, [r7, #28]
 80033de:	4a35      	ldr	r2, [pc, #212]	; (80034b4 <HAL_RCC_GetSysClockFreq+0x144>)
 80033e0:	2300      	movs	r3, #0
 80033e2:	69b8      	ldr	r0, [r7, #24]
 80033e4:	69f9      	ldr	r1, [r7, #28]
 80033e6:	f7fc ff4d 	bl	8000284 <__aeabi_lmul>
 80033ea:	0002      	movs	r2, r0
 80033ec:	000b      	movs	r3, r1
 80033ee:	0010      	movs	r0, r2
 80033f0:	0019      	movs	r1, r3
 80033f2:	6a7b      	ldr	r3, [r7, #36]	; 0x24
 80033f4:	613b      	str	r3, [r7, #16]
 80033f6:	2300      	movs	r3, #0
 80033f8:	617b      	str	r3, [r7, #20]
 80033fa:	693a      	ldr	r2, [r7, #16]
 80033fc:	697b      	ldr	r3, [r7, #20]
 80033fe:	f7fc ff21 	bl	8000244 <__aeabi_uldivmod>
 8003402:	0002      	movs	r2, r0
 8003404:	000b      	movs	r3, r1
 8003406:	0013      	movs	r3, r2
 8003408:	637b      	str	r3, [r7, #52]	; 0x34
 800340a:	e037      	b.n	800347c <HAL_RCC_GetSysClockFreq+0x10c>
      }
      else
      {
        if ((RCC->CR & RCC_CR_HSIDIVF) != 0U)
 800340c:	4b26      	ldr	r3, [pc, #152]	; (80034a8 <HAL_RCC_GetSysClockFreq+0x138>)
 800340e:	681b      	ldr	r3, [r3, #0]
 8003410:	2210      	movs	r2, #16
 8003412:	4013      	ands	r3, r2
 8003414:	d01a      	beq.n	800344c <HAL_RCC_GetSysClockFreq+0xdc>
        {
          pllvco = (uint32_t)((((uint64_t)(HSI_VALUE >> 2)) * (uint64_t)pllm) / (uint64_t)plld);
 8003416:	6abb      	ldr	r3, [r7, #40]	; 0x28
 8003418:	60bb      	str	r3, [r7, #8]
 800341a:	2300      	movs	r3, #0
 800341c:	60fb      	str	r3, [r7, #12]
 800341e:	4a23      	ldr	r2, [pc, #140]	; (80034ac <HAL_RCC_GetSysClockFreq+0x13c>)
 8003420:	2300      	movs	r3, #0
 8003422:	68b8      	ldr	r0, [r7, #8]
 8003424:	68f9      	ldr	r1, [r7, #12]
 8003426:	f7fc ff2d 	bl	8000284 <__aeabi_lmul>
 800342a:	0002      	movs	r2, r0
 800342c:	000b      	movs	r3, r1
 800342e:	0010      	movs	r0, r2
 8003430:	0019      	movs	r1, r3
 8003432:	6a7b      	ldr	r3, [r7, #36]	; 0x24
 8003434:	603b      	str	r3, [r7, #0]
 8003436:	2300      	movs	r3, #0
 8003438:	607b      	str	r3, [r7, #4]
 800343a:	683a      	ldr	r2, [r7, #0]
 800343c:	687b      	ldr	r3, [r7, #4]
 800343e:	f7fc ff01 	bl	8000244 <__aeabi_uldivmod>
 8003442:	0002      	movs	r2, r0
 8003444:	000b      	movs	r3, r1
 8003446:	0013      	movs	r3, r2
 8003448:	637b      	str	r3, [r7, #52]	; 0x34
 800344a:	e017      	b.n	800347c <HAL_RCC_GetSysClockFreq+0x10c>
        }
        else
        {
         pllvco = (uint32_t)(((uint64_t)HSI_VALUE * (uint64_t)pllm) / (uint64_t)plld);
 800344c:	6abb      	ldr	r3, [r7, #40]	; 0x28
 800344e:	0018      	movs	r0, r3
 8003450:	2300      	movs	r3, #0
 8003452:	0019      	movs	r1, r3
 8003454:	4a16      	ldr	r2, [pc, #88]	; (80034b0 <HAL_RCC_GetSysClockFreq+0x140>)
 8003456:	2300      	movs	r3, #0
 8003458:	f7fc ff14 	bl	8000284 <__aeabi_lmul>
 800345c:	0002      	movs	r2, r0
 800345e:	000b      	movs	r3, r1
 8003460:	0010      	movs	r0, r2
 8003462:	0019      	movs	r1, r3
 8003464:	6a7b      	ldr	r3, [r7, #36]	; 0x24
 8003466:	001c      	movs	r4, r3
 8003468:	2300      	movs	r3, #0
 800346a:	001d      	movs	r5, r3
 800346c:	0022      	movs	r2, r4
 800346e:	002b      	movs	r3, r5
 8003470:	f7fc fee8 	bl	8000244 <__aeabi_uldivmod>
 8003474:	0002      	movs	r2, r0
 8003476:	000b      	movs	r3, r1
 8003478:	0013      	movs	r3, r2
 800347a:	637b      	str	r3, [r7, #52]	; 0x34
        }
      }
      sysclockfreq = pllvco;
 800347c:	6b7b      	ldr	r3, [r7, #52]	; 0x34
 800347e:	633b      	str	r3, [r7, #48]	; 0x30
      break;
 8003480:	e00d      	b.n	800349e <HAL_RCC_GetSysClockFreq+0x12e>
    }
    case RCC_SYSCLKSOURCE_STATUS_MSI:  /* MSI used as system clock source */
    default: /* MSI used as system clock */
    {
      msiclkrange = (RCC->ICSCR & RCC_ICSCR_MSIRANGE ) >> RCC_ICSCR_MSIRANGE_Pos;
 8003482:	4b09      	ldr	r3, [pc, #36]	; (80034a8 <HAL_RCC_GetSysClockFreq+0x138>)
 8003484:	685b      	ldr	r3, [r3, #4]
 8003486:	0b5b      	lsrs	r3, r3, #13
 8003488:	2207      	movs	r2, #7
 800348a:	4013      	ands	r3, r2
 800348c:	623b      	str	r3, [r7, #32]
      sysclockfreq = (32768U * (1UL << (msiclkrange + 1U)));
 800348e:	6a3b      	ldr	r3, [r7, #32]
 8003490:	3301      	adds	r3, #1
 8003492:	2280      	movs	r2, #128	; 0x80
 8003494:	0212      	lsls	r2, r2, #8
 8003496:	409a      	lsls	r2, r3
 8003498:	0013      	movs	r3, r2
 800349a:	633b      	str	r3, [r7, #48]	; 0x30
      break;
 800349c:	46c0      	nop			; (mov r8, r8)
    }
  }
  return sysclockfreq;
 800349e:	6b3b      	ldr	r3, [r7, #48]	; 0x30
}
 80034a0:	0018      	movs	r0, r3
 80034a2:	46bd      	mov	sp, r7
 80034a4:	b00e      	add	sp, #56	; 0x38
 80034a6:	bdb0      	pop	{r4, r5, r7, pc}
 80034a8:	40021000 	.word	0x40021000
 80034ac:	003d0900 	.word	0x003d0900
 80034b0:	00f42400 	.word	0x00f42400
 80034b4:	007a1200 	.word	0x007a1200
 80034b8:	080065d4 	.word	0x080065d4

080034bc <HAL_RCC_GetHCLKFreq>:
  * @note   The SystemCoreClock CMSIS variable is used to store System Clock Frequency
  *         and updated within this function
  * @retval HCLK frequency
  */
uint32_t HAL_RCC_GetHCLKFreq(void)
{
 80034bc:	b580      	push	{r7, lr}
 80034be:	af00      	add	r7, sp, #0
  return SystemCoreClock;
 80034c0:	4b02      	ldr	r3, [pc, #8]	; (80034cc <HAL_RCC_GetHCLKFreq+0x10>)
 80034c2:	681b      	ldr	r3, [r3, #0]
}
 80034c4:	0018      	movs	r0, r3
 80034c6:	46bd      	mov	sp, r7
 80034c8:	bd80      	pop	{r7, pc}
 80034ca:	46c0      	nop			; (mov r8, r8)
 80034cc:	20000020 	.word	0x20000020

080034d0 <HAL_RCC_GetPCLK1Freq>:
  * @note   Each time PCLK1 changes, this function must be called to update the
  *         right PCLK1 value. Otherwise, any configuration based on this function will be incorrect.
  * @retval PCLK1 frequency
  */
uint32_t HAL_RCC_GetPCLK1Freq(void)
{
 80034d0:	b580      	push	{r7, lr}
 80034d2:	af00      	add	r7, sp, #0
  /* Get HCLK source and Compute PCLK1 frequency ---------------------------*/
  return (HAL_RCC_GetHCLKFreq() >> APBPrescTable[(RCC->CFGR & RCC_CFGR_PPRE1) >> RCC_CFGR_PPRE1_Pos]);
 80034d4:	f7ff fff2 	bl	80034bc <HAL_RCC_GetHCLKFreq>
 80034d8:	0001      	movs	r1, r0
 80034da:	4b06      	ldr	r3, [pc, #24]	; (80034f4 <HAL_RCC_GetPCLK1Freq+0x24>)
 80034dc:	68db      	ldr	r3, [r3, #12]
 80034de:	0a1b      	lsrs	r3, r3, #8
 80034e0:	2207      	movs	r2, #7
 80034e2:	4013      	ands	r3, r2
 80034e4:	4a04      	ldr	r2, [pc, #16]	; (80034f8 <HAL_RCC_GetPCLK1Freq+0x28>)
 80034e6:	5cd3      	ldrb	r3, [r2, r3]
 80034e8:	40d9      	lsrs	r1, r3
 80034ea:	000b      	movs	r3, r1
}
 80034ec:	0018      	movs	r0, r3
 80034ee:	46bd      	mov	sp, r7
 80034f0:	bd80      	pop	{r7, pc}
 80034f2:	46c0      	nop			; (mov r8, r8)
 80034f4:	40021000 	.word	0x40021000
 80034f8:	080065cc 	.word	0x080065cc

080034fc <HAL_RCC_GetPCLK2Freq>:
  * @note   Each time PCLK2 changes, this function must be called to update the
  *         right PCLK2 value. Otherwise, any configuration based on this function will be incorrect.
  * @retval PCLK2 frequency
  */
uint32_t HAL_RCC_GetPCLK2Freq(void)
{
 80034fc:	b580      	push	{r7, lr}
 80034fe:	af00      	add	r7, sp, #0
  /* Get HCLK source and Compute PCLK2 frequency ---------------------------*/
  return (HAL_RCC_GetHCLKFreq()>> APBPrescTable[(RCC->CFGR & RCC_CFGR_PPRE2) >> RCC_CFGR_PPRE2_Pos]);
 8003500:	f7ff ffdc 	bl	80034bc <HAL_RCC_GetHCLKFreq>
 8003504:	0001      	movs	r1, r0
 8003506:	4b06      	ldr	r3, [pc, #24]	; (8003520 <HAL_RCC_GetPCLK2Freq+0x24>)
 8003508:	68db      	ldr	r3, [r3, #12]
 800350a:	0adb      	lsrs	r3, r3, #11
 800350c:	2207      	movs	r2, #7
 800350e:	4013      	ands	r3, r2
 8003510:	4a04      	ldr	r2, [pc, #16]	; (8003524 <HAL_RCC_GetPCLK2Freq+0x28>)
 8003512:	5cd3      	ldrb	r3, [r2, r3]
 8003514:	40d9      	lsrs	r1, r3
 8003516:	000b      	movs	r3, r1
}
 8003518:	0018      	movs	r0, r3
 800351a:	46bd      	mov	sp, r7
 800351c:	bd80      	pop	{r7, pc}
 800351e:	46c0      	nop			; (mov r8, r8)
 8003520:	40021000 	.word	0x40021000
 8003524:	080065cc 	.word	0x080065cc

08003528 <HAL_RCCEx_PeriphCLKConfig>:
  * @retval HAL status
  * @note   If HAL_ERROR returned, first switch-OFF HSE clock oscillator with @ref HAL_RCC_OscConfig()
  *         to possibly update HSE divider.
  */
HAL_StatusTypeDef HAL_RCCEx_PeriphCLKConfig(RCC_PeriphCLKInitTypeDef  *PeriphClkInit)
{
 8003528:	b580      	push	{r7, lr}
 800352a:	b086      	sub	sp, #24
 800352c:	af00      	add	r7, sp, #0
 800352e:	6078      	str	r0, [r7, #4]
  uint32_t tickstart;
  uint32_t temp_reg;
  FlagStatus       pwrclkchanged = RESET;
 8003530:	2317      	movs	r3, #23
 8003532:	18fb      	adds	r3, r7, r3
 8003534:	2200      	movs	r2, #0
 8003536:	701a      	strb	r2, [r3, #0]

  /* Check the parameters */
  assert_param(IS_RCC_PERIPHCLOCK(PeriphClkInit->PeriphClockSelection));

  /*------------------------------- RTC/LCD Configuration ------------------------*/
  if ((((PeriphClkInit->PeriphClockSelection) & RCC_PERIPHCLK_RTC) == RCC_PERIPHCLK_RTC)
 8003538:	687b      	ldr	r3, [r7, #4]
 800353a:	681b      	ldr	r3, [r3, #0]
 800353c:	2220      	movs	r2, #32
 800353e:	4013      	ands	r3, r2
 8003540:	d106      	bne.n	8003550 <HAL_RCCEx_PeriphCLKConfig+0x28>
#if defined(LCD)
   || (((PeriphClkInit->PeriphClockSelection) & RCC_PERIPHCLK_LCD) == RCC_PERIPHCLK_LCD)
 8003542:	687b      	ldr	r3, [r7, #4]
 8003544:	681a      	ldr	r2, [r3, #0]
 8003546:	2380      	movs	r3, #128	; 0x80
 8003548:	011b      	lsls	r3, r3, #4
 800354a:	4013      	ands	r3, r2
 800354c:	d100      	bne.n	8003550 <HAL_RCCEx_PeriphCLKConfig+0x28>
 800354e:	e0d9      	b.n	8003704 <HAL_RCCEx_PeriphCLKConfig+0x1dc>
#endif /* LCD */

    /* As soon as function is called to change RTC clock source, activation of the
       power domain is done. */
    /* Requires to enable write access to Backup Domain of necessary */
    if(__HAL_RCC_PWR_IS_CLK_DISABLED())
 8003550:	4ba4      	ldr	r3, [pc, #656]	; (80037e4 <HAL_RCCEx_PeriphCLKConfig+0x2bc>)
 8003552:	6b9a      	ldr	r2, [r3, #56]	; 0x38
 8003554:	2380      	movs	r3, #128	; 0x80
 8003556:	055b      	lsls	r3, r3, #21
 8003558:	4013      	ands	r3, r2
 800355a:	d10a      	bne.n	8003572 <HAL_RCCEx_PeriphCLKConfig+0x4a>
    {
      __HAL_RCC_PWR_CLK_ENABLE();
 800355c:	4ba1      	ldr	r3, [pc, #644]	; (80037e4 <HAL_RCCEx_PeriphCLKConfig+0x2bc>)
 800355e:	6b9a      	ldr	r2, [r3, #56]	; 0x38
 8003560:	4ba0      	ldr	r3, [pc, #640]	; (80037e4 <HAL_RCCEx_PeriphCLKConfig+0x2bc>)
 8003562:	2180      	movs	r1, #128	; 0x80
 8003564:	0549      	lsls	r1, r1, #21
 8003566:	430a      	orrs	r2, r1
 8003568:	639a      	str	r2, [r3, #56]	; 0x38
      pwrclkchanged = SET;
 800356a:	2317      	movs	r3, #23
 800356c:	18fb      	adds	r3, r7, r3
 800356e:	2201      	movs	r2, #1
 8003570:	701a      	strb	r2, [r3, #0]
    }

    if(HAL_IS_BIT_CLR(PWR->CR, PWR_CR_DBP))
 8003572:	4b9d      	ldr	r3, [pc, #628]	; (80037e8 <HAL_RCCEx_PeriphCLKConfig+0x2c0>)
 8003574:	681a      	ldr	r2, [r3, #0]
 8003576:	2380      	movs	r3, #128	; 0x80
 8003578:	005b      	lsls	r3, r3, #1
 800357a:	4013      	ands	r3, r2
 800357c:	d11a      	bne.n	80035b4 <HAL_RCCEx_PeriphCLKConfig+0x8c>
    {
      /* Enable write access to Backup domain */
      SET_BIT(PWR->CR, PWR_CR_DBP);
 800357e:	4b9a      	ldr	r3, [pc, #616]	; (80037e8 <HAL_RCCEx_PeriphCLKConfig+0x2c0>)
 8003580:	681a      	ldr	r2, [r3, #0]
 8003582:	4b99      	ldr	r3, [pc, #612]	; (80037e8 <HAL_RCCEx_PeriphCLKConfig+0x2c0>)
 8003584:	2180      	movs	r1, #128	; 0x80
 8003586:	0049      	lsls	r1, r1, #1
 8003588:	430a      	orrs	r2, r1
 800358a:	601a      	str	r2, [r3, #0]

      /* Wait for Backup domain Write protection disable */
      tickstart = HAL_GetTick();
 800358c:	f7fe fa64 	bl	8001a58 <HAL_GetTick>
 8003590:	0003      	movs	r3, r0
 8003592:	613b      	str	r3, [r7, #16]

      while(HAL_IS_BIT_CLR(PWR->CR, PWR_CR_DBP))
 8003594:	e008      	b.n	80035a8 <HAL_RCCEx_PeriphCLKConfig+0x80>
      {
        if((HAL_GetTick() - tickstart) > RCC_DBP_TIMEOUT_VALUE)
 8003596:	f7fe fa5f 	bl	8001a58 <HAL_GetTick>
 800359a:	0002      	movs	r2, r0
 800359c:	693b      	ldr	r3, [r7, #16]
 800359e:	1ad3      	subs	r3, r2, r3
 80035a0:	2b64      	cmp	r3, #100	; 0x64
 80035a2:	d901      	bls.n	80035a8 <HAL_RCCEx_PeriphCLKConfig+0x80>
        {
          return HAL_TIMEOUT;
 80035a4:	2303      	movs	r3, #3
 80035a6:	e118      	b.n	80037da <HAL_RCCEx_PeriphCLKConfig+0x2b2>
      while(HAL_IS_BIT_CLR(PWR->CR, PWR_CR_DBP))
 80035a8:	4b8f      	ldr	r3, [pc, #572]	; (80037e8 <HAL_RCCEx_PeriphCLKConfig+0x2c0>)
 80035aa:	681a      	ldr	r2, [r3, #0]
 80035ac:	2380      	movs	r3, #128	; 0x80
 80035ae:	005b      	lsls	r3, r3, #1
 80035b0:	4013      	ands	r3, r2
 80035b2:	d0f0      	beq.n	8003596 <HAL_RCCEx_PeriphCLKConfig+0x6e>
        }
      }
    }

    /* Check if user wants to change HSE RTC prescaler whereas HSE is enabled */
    temp_reg = (RCC->CR & RCC_CR_RTCPRE);
 80035b4:	4b8b      	ldr	r3, [pc, #556]	; (80037e4 <HAL_RCCEx_PeriphCLKConfig+0x2bc>)
 80035b6:	681a      	ldr	r2, [r3, #0]
 80035b8:	23c0      	movs	r3, #192	; 0xc0
 80035ba:	039b      	lsls	r3, r3, #14
 80035bc:	4013      	ands	r3, r2
 80035be:	60fb      	str	r3, [r7, #12]
    if ((temp_reg != (PeriphClkInit->RTCClockSelection & RCC_CR_RTCPRE))
 80035c0:	687b      	ldr	r3, [r7, #4]
 80035c2:	685a      	ldr	r2, [r3, #4]
 80035c4:	23c0      	movs	r3, #192	; 0xc0
 80035c6:	039b      	lsls	r3, r3, #14
 80035c8:	4013      	ands	r3, r2
 80035ca:	68fa      	ldr	r2, [r7, #12]
 80035cc:	429a      	cmp	r2, r3
 80035ce:	d107      	bne.n	80035e0 <HAL_RCCEx_PeriphCLKConfig+0xb8>
#if defined (LCD)
     || (temp_reg != (PeriphClkInit->LCDClockSelection & RCC_CR_RTCPRE))
 80035d0:	687b      	ldr	r3, [r7, #4]
 80035d2:	689a      	ldr	r2, [r3, #8]
 80035d4:	23c0      	movs	r3, #192	; 0xc0
 80035d6:	039b      	lsls	r3, r3, #14
 80035d8:	4013      	ands	r3, r2
 80035da:	68fa      	ldr	r2, [r7, #12]
 80035dc:	429a      	cmp	r2, r3
 80035de:	d013      	beq.n	8003608 <HAL_RCCEx_PeriphCLKConfig+0xe0>
#endif /* LCD */
       )
    { /* Check HSE State */
      if ((PeriphClkInit->RTCClockSelection & RCC_CSR_RTCSEL) == RCC_CSR_RTCSEL_HSE)
 80035e0:	687b      	ldr	r3, [r7, #4]
 80035e2:	685a      	ldr	r2, [r3, #4]
 80035e4:	23c0      	movs	r3, #192	; 0xc0
 80035e6:	029b      	lsls	r3, r3, #10
 80035e8:	401a      	ands	r2, r3
 80035ea:	23c0      	movs	r3, #192	; 0xc0
 80035ec:	029b      	lsls	r3, r3, #10
 80035ee:	429a      	cmp	r2, r3
 80035f0:	d10a      	bne.n	8003608 <HAL_RCCEx_PeriphCLKConfig+0xe0>
      {
        if (HAL_IS_BIT_SET(RCC->CR, RCC_CR_HSERDY))
 80035f2:	4b7c      	ldr	r3, [pc, #496]	; (80037e4 <HAL_RCCEx_PeriphCLKConfig+0x2bc>)
 80035f4:	681a      	ldr	r2, [r3, #0]
 80035f6:	2380      	movs	r3, #128	; 0x80
 80035f8:	029b      	lsls	r3, r3, #10
 80035fa:	401a      	ands	r2, r3
 80035fc:	2380      	movs	r3, #128	; 0x80
 80035fe:	029b      	lsls	r3, r3, #10
 8003600:	429a      	cmp	r2, r3
 8003602:	d101      	bne.n	8003608 <HAL_RCCEx_PeriphCLKConfig+0xe0>
        {
          /* To update HSE divider, first switch-OFF HSE clock oscillator*/
          return HAL_ERROR;
 8003604:	2301      	movs	r3, #1
 8003606:	e0e8      	b.n	80037da <HAL_RCCEx_PeriphCLKConfig+0x2b2>
        }
      }
    }

    /* Reset the Backup domain only if the RTC Clock source selection is modified from reset value */
    temp_reg = (RCC->CSR & RCC_CSR_RTCSEL);
 8003608:	4b76      	ldr	r3, [pc, #472]	; (80037e4 <HAL_RCCEx_PeriphCLKConfig+0x2bc>)
 800360a:	6d1a      	ldr	r2, [r3, #80]	; 0x50
 800360c:	23c0      	movs	r3, #192	; 0xc0
 800360e:	029b      	lsls	r3, r3, #10
 8003610:	4013      	ands	r3, r2
 8003612:	60fb      	str	r3, [r7, #12]

    if((temp_reg != 0x00000000U) && (((temp_reg != (PeriphClkInit->RTCClockSelection & RCC_CSR_RTCSEL)) \
 8003614:	68fb      	ldr	r3, [r7, #12]
 8003616:	2b00      	cmp	r3, #0
 8003618:	d049      	beq.n	80036ae <HAL_RCCEx_PeriphCLKConfig+0x186>
 800361a:	687b      	ldr	r3, [r7, #4]
 800361c:	685a      	ldr	r2, [r3, #4]
 800361e:	23c0      	movs	r3, #192	; 0xc0
 8003620:	029b      	lsls	r3, r3, #10
 8003622:	4013      	ands	r3, r2
 8003624:	68fa      	ldr	r2, [r7, #12]
 8003626:	429a      	cmp	r2, r3
 8003628:	d004      	beq.n	8003634 <HAL_RCCEx_PeriphCLKConfig+0x10c>
      && (((PeriphClkInit->PeriphClockSelection) & RCC_PERIPHCLK_RTC) == RCC_PERIPHCLK_RTC))
 800362a:	687b      	ldr	r3, [r7, #4]
 800362c:	681b      	ldr	r3, [r3, #0]
 800362e:	2220      	movs	r2, #32
 8003630:	4013      	ands	r3, r2
 8003632:	d10d      	bne.n	8003650 <HAL_RCCEx_PeriphCLKConfig+0x128>
#if defined(LCD)
      || ((temp_reg != (PeriphClkInit->LCDClockSelection & RCC_CSR_RTCSEL)) \
 8003634:	687b      	ldr	r3, [r7, #4]
 8003636:	689a      	ldr	r2, [r3, #8]
 8003638:	23c0      	movs	r3, #192	; 0xc0
 800363a:	029b      	lsls	r3, r3, #10
 800363c:	4013      	ands	r3, r2
 800363e:	68fa      	ldr	r2, [r7, #12]
 8003640:	429a      	cmp	r2, r3
 8003642:	d034      	beq.n	80036ae <HAL_RCCEx_PeriphCLKConfig+0x186>
       && (((PeriphClkInit->PeriphClockSelection) & RCC_PERIPHCLK_LCD) == RCC_PERIPHCLK_LCD))
 8003644:	687b      	ldr	r3, [r7, #4]
 8003646:	681a      	ldr	r2, [r3, #0]
 8003648:	2380      	movs	r3, #128	; 0x80
 800364a:	011b      	lsls	r3, r3, #4
 800364c:	4013      	ands	r3, r2
 800364e:	d02e      	beq.n	80036ae <HAL_RCCEx_PeriphCLKConfig+0x186>
#endif /* LCD */
     ))
    {
      /* Store the content of CSR register before the reset of Backup Domain */
      temp_reg = (RCC->CSR & ~(RCC_CSR_RTCSEL));
 8003650:	4b64      	ldr	r3, [pc, #400]	; (80037e4 <HAL_RCCEx_PeriphCLKConfig+0x2bc>)
 8003652:	6d1b      	ldr	r3, [r3, #80]	; 0x50
 8003654:	4a65      	ldr	r2, [pc, #404]	; (80037ec <HAL_RCCEx_PeriphCLKConfig+0x2c4>)
 8003656:	4013      	ands	r3, r2
 8003658:	60fb      	str	r3, [r7, #12]

      /* RTC Clock selection can be changed only if the Backup Domain is reset */
      __HAL_RCC_BACKUPRESET_FORCE();
 800365a:	4b62      	ldr	r3, [pc, #392]	; (80037e4 <HAL_RCCEx_PeriphCLKConfig+0x2bc>)
 800365c:	6d1a      	ldr	r2, [r3, #80]	; 0x50
 800365e:	4b61      	ldr	r3, [pc, #388]	; (80037e4 <HAL_RCCEx_PeriphCLKConfig+0x2bc>)
 8003660:	2180      	movs	r1, #128	; 0x80
 8003662:	0309      	lsls	r1, r1, #12
 8003664:	430a      	orrs	r2, r1
 8003666:	651a      	str	r2, [r3, #80]	; 0x50
      __HAL_RCC_BACKUPRESET_RELEASE();
 8003668:	4b5e      	ldr	r3, [pc, #376]	; (80037e4 <HAL_RCCEx_PeriphCLKConfig+0x2bc>)
 800366a:	6d1a      	ldr	r2, [r3, #80]	; 0x50
 800366c:	4b5d      	ldr	r3, [pc, #372]	; (80037e4 <HAL_RCCEx_PeriphCLKConfig+0x2bc>)
 800366e:	4960      	ldr	r1, [pc, #384]	; (80037f0 <HAL_RCCEx_PeriphCLKConfig+0x2c8>)
 8003670:	400a      	ands	r2, r1
 8003672:	651a      	str	r2, [r3, #80]	; 0x50

      /* Restore the Content of CSR register */
      RCC->CSR = temp_reg;
 8003674:	4b5b      	ldr	r3, [pc, #364]	; (80037e4 <HAL_RCCEx_PeriphCLKConfig+0x2bc>)
 8003676:	68fa      	ldr	r2, [r7, #12]
 8003678:	651a      	str	r2, [r3, #80]	; 0x50

       /* Wait for LSERDY if LSE was enabled */
      if (HAL_IS_BIT_SET(temp_reg, RCC_CSR_LSEON))
 800367a:	68fa      	ldr	r2, [r7, #12]
 800367c:	2380      	movs	r3, #128	; 0x80
 800367e:	005b      	lsls	r3, r3, #1
 8003680:	4013      	ands	r3, r2
 8003682:	d014      	beq.n	80036ae <HAL_RCCEx_PeriphCLKConfig+0x186>
      {
        /* Get Start Tick */
        tickstart = HAL_GetTick();
 8003684:	f7fe f9e8 	bl	8001a58 <HAL_GetTick>
 8003688:	0003      	movs	r3, r0
 800368a:	613b      	str	r3, [r7, #16]

        /* Wait till LSE is ready */
        while(__HAL_RCC_GET_FLAG(RCC_FLAG_LSERDY) == 0U)
 800368c:	e009      	b.n	80036a2 <HAL_RCCEx_PeriphCLKConfig+0x17a>
        {
          if((HAL_GetTick() - tickstart ) > RCC_LSE_TIMEOUT_VALUE)
 800368e:	f7fe f9e3 	bl	8001a58 <HAL_GetTick>
 8003692:	0002      	movs	r2, r0
 8003694:	693b      	ldr	r3, [r7, #16]
 8003696:	1ad3      	subs	r3, r2, r3
 8003698:	4a56      	ldr	r2, [pc, #344]	; (80037f4 <HAL_RCCEx_PeriphCLKConfig+0x2cc>)
 800369a:	4293      	cmp	r3, r2
 800369c:	d901      	bls.n	80036a2 <HAL_RCCEx_PeriphCLKConfig+0x17a>
          {
            return HAL_TIMEOUT;
 800369e:	2303      	movs	r3, #3
 80036a0:	e09b      	b.n	80037da <HAL_RCCEx_PeriphCLKConfig+0x2b2>
        while(__HAL_RCC_GET_FLAG(RCC_FLAG_LSERDY) == 0U)
 80036a2:	4b50      	ldr	r3, [pc, #320]	; (80037e4 <HAL_RCCEx_PeriphCLKConfig+0x2bc>)
 80036a4:	6d1a      	ldr	r2, [r3, #80]	; 0x50
 80036a6:	2380      	movs	r3, #128	; 0x80
 80036a8:	009b      	lsls	r3, r3, #2
 80036aa:	4013      	ands	r3, r2
 80036ac:	d0ef      	beq.n	800368e <HAL_RCCEx_PeriphCLKConfig+0x166>
          }
        }
      }
    }
    __HAL_RCC_RTC_CONFIG(PeriphClkInit->RTCClockSelection);
 80036ae:	687b      	ldr	r3, [r7, #4]
 80036b0:	685a      	ldr	r2, [r3, #4]
 80036b2:	23c0      	movs	r3, #192	; 0xc0
 80036b4:	029b      	lsls	r3, r3, #10
 80036b6:	401a      	ands	r2, r3
 80036b8:	23c0      	movs	r3, #192	; 0xc0
 80036ba:	029b      	lsls	r3, r3, #10
 80036bc:	429a      	cmp	r2, r3
 80036be:	d10c      	bne.n	80036da <HAL_RCCEx_PeriphCLKConfig+0x1b2>
 80036c0:	4b48      	ldr	r3, [pc, #288]	; (80037e4 <HAL_RCCEx_PeriphCLKConfig+0x2bc>)
 80036c2:	681b      	ldr	r3, [r3, #0]
 80036c4:	4a4c      	ldr	r2, [pc, #304]	; (80037f8 <HAL_RCCEx_PeriphCLKConfig+0x2d0>)
 80036c6:	4013      	ands	r3, r2
 80036c8:	0019      	movs	r1, r3
 80036ca:	687b      	ldr	r3, [r7, #4]
 80036cc:	685a      	ldr	r2, [r3, #4]
 80036ce:	23c0      	movs	r3, #192	; 0xc0
 80036d0:	039b      	lsls	r3, r3, #14
 80036d2:	401a      	ands	r2, r3
 80036d4:	4b43      	ldr	r3, [pc, #268]	; (80037e4 <HAL_RCCEx_PeriphCLKConfig+0x2bc>)
 80036d6:	430a      	orrs	r2, r1
 80036d8:	601a      	str	r2, [r3, #0]
 80036da:	4b42      	ldr	r3, [pc, #264]	; (80037e4 <HAL_RCCEx_PeriphCLKConfig+0x2bc>)
 80036dc:	6d19      	ldr	r1, [r3, #80]	; 0x50
 80036de:	687b      	ldr	r3, [r7, #4]
 80036e0:	685a      	ldr	r2, [r3, #4]
 80036e2:	23c0      	movs	r3, #192	; 0xc0
 80036e4:	029b      	lsls	r3, r3, #10
 80036e6:	401a      	ands	r2, r3
 80036e8:	4b3e      	ldr	r3, [pc, #248]	; (80037e4 <HAL_RCCEx_PeriphCLKConfig+0x2bc>)
 80036ea:	430a      	orrs	r2, r1
 80036ec:	651a      	str	r2, [r3, #80]	; 0x50

    /* Require to disable power clock if necessary */
    if(pwrclkchanged == SET)
 80036ee:	2317      	movs	r3, #23
 80036f0:	18fb      	adds	r3, r7, r3
 80036f2:	781b      	ldrb	r3, [r3, #0]
 80036f4:	2b01      	cmp	r3, #1
 80036f6:	d105      	bne.n	8003704 <HAL_RCCEx_PeriphCLKConfig+0x1dc>
    {
      __HAL_RCC_PWR_CLK_DISABLE();
 80036f8:	4b3a      	ldr	r3, [pc, #232]	; (80037e4 <HAL_RCCEx_PeriphCLKConfig+0x2bc>)
 80036fa:	6b9a      	ldr	r2, [r3, #56]	; 0x38
 80036fc:	4b39      	ldr	r3, [pc, #228]	; (80037e4 <HAL_RCCEx_PeriphCLKConfig+0x2bc>)
 80036fe:	493f      	ldr	r1, [pc, #252]	; (80037fc <HAL_RCCEx_PeriphCLKConfig+0x2d4>)
 8003700:	400a      	ands	r2, r1
 8003702:	639a      	str	r2, [r3, #56]	; 0x38
    }
  }

#if defined (RCC_CCIPR_USART1SEL)
  /*------------------------------- USART1 Configuration ------------------------*/
  if(((PeriphClkInit->PeriphClockSelection) & RCC_PERIPHCLK_USART1) == RCC_PERIPHCLK_USART1)
 8003704:	687b      	ldr	r3, [r7, #4]
 8003706:	681b      	ldr	r3, [r3, #0]
 8003708:	2201      	movs	r2, #1
 800370a:	4013      	ands	r3, r2
 800370c:	d009      	beq.n	8003722 <HAL_RCCEx_PeriphCLKConfig+0x1fa>
  {
    /* Check the parameters */
    assert_param(IS_RCC_USART1CLKSOURCE(PeriphClkInit->Usart1ClockSelection));

    /* Configure the USART1 clock source */
    __HAL_RCC_USART1_CONFIG(PeriphClkInit->Usart1ClockSelection);
 800370e:	4b35      	ldr	r3, [pc, #212]	; (80037e4 <HAL_RCCEx_PeriphCLKConfig+0x2bc>)
 8003710:	6cdb      	ldr	r3, [r3, #76]	; 0x4c
 8003712:	2203      	movs	r2, #3
 8003714:	4393      	bics	r3, r2
 8003716:	0019      	movs	r1, r3
 8003718:	687b      	ldr	r3, [r7, #4]
 800371a:	68da      	ldr	r2, [r3, #12]
 800371c:	4b31      	ldr	r3, [pc, #196]	; (80037e4 <HAL_RCCEx_PeriphCLKConfig+0x2bc>)
 800371e:	430a      	orrs	r2, r1
 8003720:	64da      	str	r2, [r3, #76]	; 0x4c
  }
#endif /* RCC_CCIPR_USART1SEL */

  /*----------------------------- USART2 Configuration --------------------------*/
  if(((PeriphClkInit->PeriphClockSelection) & RCC_PERIPHCLK_USART2) == RCC_PERIPHCLK_USART2)
 8003722:	687b      	ldr	r3, [r7, #4]
 8003724:	681b      	ldr	r3, [r3, #0]
 8003726:	2202      	movs	r2, #2
 8003728:	4013      	ands	r3, r2
 800372a:	d009      	beq.n	8003740 <HAL_RCCEx_PeriphCLKConfig+0x218>
  {
    /* Check the parameters */
    assert_param(IS_RCC_USART2CLKSOURCE(PeriphClkInit->Usart2ClockSelection));

    /* Configure the USART2 clock source */
    __HAL_RCC_USART2_CONFIG(PeriphClkInit->Usart2ClockSelection);
 800372c:	4b2d      	ldr	r3, [pc, #180]	; (80037e4 <HAL_RCCEx_PeriphCLKConfig+0x2bc>)
 800372e:	6cdb      	ldr	r3, [r3, #76]	; 0x4c
 8003730:	220c      	movs	r2, #12
 8003732:	4393      	bics	r3, r2
 8003734:	0019      	movs	r1, r3
 8003736:	687b      	ldr	r3, [r7, #4]
 8003738:	691a      	ldr	r2, [r3, #16]
 800373a:	4b2a      	ldr	r3, [pc, #168]	; (80037e4 <HAL_RCCEx_PeriphCLKConfig+0x2bc>)
 800373c:	430a      	orrs	r2, r1
 800373e:	64da      	str	r2, [r3, #76]	; 0x4c
  }

  /*------------------------------ LPUART1 Configuration ------------------------*/
  if(((PeriphClkInit->PeriphClockSelection) & RCC_PERIPHCLK_LPUART1) == RCC_PERIPHCLK_LPUART1)
 8003740:	687b      	ldr	r3, [r7, #4]
 8003742:	681b      	ldr	r3, [r3, #0]
 8003744:	2204      	movs	r2, #4
 8003746:	4013      	ands	r3, r2
 8003748:	d009      	beq.n	800375e <HAL_RCCEx_PeriphCLKConfig+0x236>
  {
    /* Check the parameters */
    assert_param(IS_RCC_LPUART1CLKSOURCE(PeriphClkInit->Lpuart1ClockSelection));

    /* Configure the LPUAR1 clock source */
    __HAL_RCC_LPUART1_CONFIG(PeriphClkInit->Lpuart1ClockSelection);
 800374a:	4b26      	ldr	r3, [pc, #152]	; (80037e4 <HAL_RCCEx_PeriphCLKConfig+0x2bc>)
 800374c:	6cdb      	ldr	r3, [r3, #76]	; 0x4c
 800374e:	4a2c      	ldr	r2, [pc, #176]	; (8003800 <HAL_RCCEx_PeriphCLKConfig+0x2d8>)
 8003750:	4013      	ands	r3, r2
 8003752:	0019      	movs	r1, r3
 8003754:	687b      	ldr	r3, [r7, #4]
 8003756:	695a      	ldr	r2, [r3, #20]
 8003758:	4b22      	ldr	r3, [pc, #136]	; (80037e4 <HAL_RCCEx_PeriphCLKConfig+0x2bc>)
 800375a:	430a      	orrs	r2, r1
 800375c:	64da      	str	r2, [r3, #76]	; 0x4c
  }

  /*------------------------------ I2C1 Configuration ------------------------*/
  if(((PeriphClkInit->PeriphClockSelection) & RCC_PERIPHCLK_I2C1) == RCC_PERIPHCLK_I2C1)
 800375e:	687b      	ldr	r3, [r7, #4]
 8003760:	681b      	ldr	r3, [r3, #0]
 8003762:	2208      	movs	r2, #8
 8003764:	4013      	ands	r3, r2
 8003766:	d009      	beq.n	800377c <HAL_RCCEx_PeriphCLKConfig+0x254>
  {
    /* Check the parameters */
    assert_param(IS_RCC_I2C1CLKSOURCE(PeriphClkInit->I2c1ClockSelection));

    /* Configure the I2C1 clock source */
    __HAL_RCC_I2C1_CONFIG(PeriphClkInit->I2c1ClockSelection);
 8003768:	4b1e      	ldr	r3, [pc, #120]	; (80037e4 <HAL_RCCEx_PeriphCLKConfig+0x2bc>)
 800376a:	6cdb      	ldr	r3, [r3, #76]	; 0x4c
 800376c:	4a25      	ldr	r2, [pc, #148]	; (8003804 <HAL_RCCEx_PeriphCLKConfig+0x2dc>)
 800376e:	4013      	ands	r3, r2
 8003770:	0019      	movs	r1, r3
 8003772:	687b      	ldr	r3, [r7, #4]
 8003774:	699a      	ldr	r2, [r3, #24]
 8003776:	4b1b      	ldr	r3, [pc, #108]	; (80037e4 <HAL_RCCEx_PeriphCLKConfig+0x2bc>)
 8003778:	430a      	orrs	r2, r1
 800377a:	64da      	str	r2, [r3, #76]	; 0x4c
  }

#if defined (RCC_CCIPR_I2C3SEL)
    /*------------------------------ I2C3 Configuration ------------------------*/
  if(((PeriphClkInit->PeriphClockSelection) & RCC_PERIPHCLK_I2C3) == RCC_PERIPHCLK_I2C3)
 800377c:	687b      	ldr	r3, [r7, #4]
 800377e:	681a      	ldr	r2, [r3, #0]
 8003780:	2380      	movs	r3, #128	; 0x80
 8003782:	005b      	lsls	r3, r3, #1
 8003784:	4013      	ands	r3, r2
 8003786:	d009      	beq.n	800379c <HAL_RCCEx_PeriphCLKConfig+0x274>
  {
    /* Check the parameters */
    assert_param(IS_RCC_I2C3CLKSOURCE(PeriphClkInit->I2c3ClockSelection));

    /* Configure the I2C3 clock source */
    __HAL_RCC_I2C3_CONFIG(PeriphClkInit->I2c3ClockSelection);
 8003788:	4b16      	ldr	r3, [pc, #88]	; (80037e4 <HAL_RCCEx_PeriphCLKConfig+0x2bc>)
 800378a:	6cdb      	ldr	r3, [r3, #76]	; 0x4c
 800378c:	4a17      	ldr	r2, [pc, #92]	; (80037ec <HAL_RCCEx_PeriphCLKConfig+0x2c4>)
 800378e:	4013      	ands	r3, r2
 8003790:	0019      	movs	r1, r3
 8003792:	687b      	ldr	r3, [r7, #4]
 8003794:	69da      	ldr	r2, [r3, #28]
 8003796:	4b13      	ldr	r3, [pc, #76]	; (80037e4 <HAL_RCCEx_PeriphCLKConfig+0x2bc>)
 8003798:	430a      	orrs	r2, r1
 800379a:	64da      	str	r2, [r3, #76]	; 0x4c
  }
#endif /* RCC_CCIPR_I2C3SEL */

#if defined(USB)
 /*---------------------------- USB and RNG configuration --------------------*/
  if(((PeriphClkInit->PeriphClockSelection) & RCC_PERIPHCLK_USB) == (RCC_PERIPHCLK_USB))
 800379c:	687b      	ldr	r3, [r7, #4]
 800379e:	681b      	ldr	r3, [r3, #0]
 80037a0:	2240      	movs	r2, #64	; 0x40
 80037a2:	4013      	ands	r3, r2
 80037a4:	d009      	beq.n	80037ba <HAL_RCCEx_PeriphCLKConfig+0x292>
  {
    assert_param(IS_RCC_USBCLKSOURCE(PeriphClkInit->UsbClockSelection));
    __HAL_RCC_USB_CONFIG(PeriphClkInit->UsbClockSelection);
 80037a6:	4b0f      	ldr	r3, [pc, #60]	; (80037e4 <HAL_RCCEx_PeriphCLKConfig+0x2bc>)
 80037a8:	6cdb      	ldr	r3, [r3, #76]	; 0x4c
 80037aa:	4a17      	ldr	r2, [pc, #92]	; (8003808 <HAL_RCCEx_PeriphCLKConfig+0x2e0>)
 80037ac:	4013      	ands	r3, r2
 80037ae:	0019      	movs	r1, r3
 80037b0:	687b      	ldr	r3, [r7, #4]
 80037b2:	6a5a      	ldr	r2, [r3, #36]	; 0x24
 80037b4:	4b0b      	ldr	r3, [pc, #44]	; (80037e4 <HAL_RCCEx_PeriphCLKConfig+0x2bc>)
 80037b6:	430a      	orrs	r2, r1
 80037b8:	64da      	str	r2, [r3, #76]	; 0x4c
  }
#endif /* USB */

  /*---------------------------- LPTIM1 configuration ------------------------*/
  if(((PeriphClkInit->PeriphClockSelection) & RCC_PERIPHCLK_LPTIM1) == (RCC_PERIPHCLK_LPTIM1))
 80037ba:	687b      	ldr	r3, [r7, #4]
 80037bc:	681b      	ldr	r3, [r3, #0]
 80037be:	2280      	movs	r2, #128	; 0x80
 80037c0:	4013      	ands	r3, r2
 80037c2:	d009      	beq.n	80037d8 <HAL_RCCEx_PeriphCLKConfig+0x2b0>
  {
    assert_param(IS_RCC_LPTIMCLK(PeriphClkInit->LptimClockSelection));
    __HAL_RCC_LPTIM1_CONFIG(PeriphClkInit->LptimClockSelection);
 80037c4:	4b07      	ldr	r3, [pc, #28]	; (80037e4 <HAL_RCCEx_PeriphCLKConfig+0x2bc>)
 80037c6:	6cdb      	ldr	r3, [r3, #76]	; 0x4c
 80037c8:	4a10      	ldr	r2, [pc, #64]	; (800380c <HAL_RCCEx_PeriphCLKConfig+0x2e4>)
 80037ca:	4013      	ands	r3, r2
 80037cc:	0019      	movs	r1, r3
 80037ce:	687b      	ldr	r3, [r7, #4]
 80037d0:	6a1a      	ldr	r2, [r3, #32]
 80037d2:	4b04      	ldr	r3, [pc, #16]	; (80037e4 <HAL_RCCEx_PeriphCLKConfig+0x2bc>)
 80037d4:	430a      	orrs	r2, r1
 80037d6:	64da      	str	r2, [r3, #76]	; 0x4c
  }

  return HAL_OK;
 80037d8:	2300      	movs	r3, #0
}
 80037da:	0018      	movs	r0, r3
 80037dc:	46bd      	mov	sp, r7
 80037de:	b006      	add	sp, #24
 80037e0:	bd80      	pop	{r7, pc}
 80037e2:	46c0      	nop			; (mov r8, r8)
 80037e4:	40021000 	.word	0x40021000
 80037e8:	40007000 	.word	0x40007000
 80037ec:	fffcffff 	.word	0xfffcffff
 80037f0:	fff7ffff 	.word	0xfff7ffff
 80037f4:	00001388 	.word	0x00001388
 80037f8:	ffcfffff 	.word	0xffcfffff
 80037fc:	efffffff 	.word	0xefffffff
 8003800:	fffff3ff 	.word	0xfffff3ff
 8003804:	ffffcfff 	.word	0xffffcfff
 8003808:	fbffffff 	.word	0xfbffffff
 800380c:	fff3ffff 	.word	0xfff3ffff

08003810 <HAL_TIM_Base_Init>:
  *         Ex: call @ref HAL_TIM_Base_DeInit() before HAL_TIM_Base_Init()
  * @param  htim TIM Base handle
  * @retval HAL status
  */
HAL_StatusTypeDef HAL_TIM_Base_Init(TIM_HandleTypeDef *htim)
{
 8003810:	b580      	push	{r7, lr}
 8003812:	b082      	sub	sp, #8
 8003814:	af00      	add	r7, sp, #0
 8003816:	6078      	str	r0, [r7, #4]
  /* Check the TIM handle allocation */
  if (htim == NULL)
 8003818:	687b      	ldr	r3, [r7, #4]
 800381a:	2b00      	cmp	r3, #0
 800381c:	d101      	bne.n	8003822 <HAL_TIM_Base_Init+0x12>
  {
    return HAL_ERROR;
 800381e:	2301      	movs	r3, #1
 8003820:	e032      	b.n	8003888 <HAL_TIM_Base_Init+0x78>
  assert_param(IS_TIM_CLOCKDIVISION_DIV(htim->Init.ClockDivision));
  assert_param(IS_TIM_PERIOD(htim->Init.Period));
  assert_param(IS_TIM_PRESCALER(htim->Init.Prescaler));
  assert_param(IS_TIM_AUTORELOAD_PRELOAD(htim->Init.AutoReloadPreload));

  if (htim->State == HAL_TIM_STATE_RESET)
 8003822:	687b      	ldr	r3, [r7, #4]
 8003824:	2239      	movs	r2, #57	; 0x39
 8003826:	5c9b      	ldrb	r3, [r3, r2]
 8003828:	b2db      	uxtb	r3, r3
 800382a:	2b00      	cmp	r3, #0
 800382c:	d107      	bne.n	800383e <HAL_TIM_Base_Init+0x2e>
  {
    /* Allocate lock resource and initialize it */
    htim->Lock = HAL_UNLOCKED;
 800382e:	687b      	ldr	r3, [r7, #4]
 8003830:	2238      	movs	r2, #56	; 0x38
 8003832:	2100      	movs	r1, #0
 8003834:	5499      	strb	r1, [r3, r2]
    }
    /* Init the low level hardware : GPIO, CLOCK, NVIC */
    htim->Base_MspInitCallback(htim);
#else
    /* Init the low level hardware : GPIO, CLOCK, NVIC */
    HAL_TIM_Base_MspInit(htim);
 8003836:	687b      	ldr	r3, [r7, #4]
 8003838:	0018      	movs	r0, r3
 800383a:	f7fd ff03 	bl	8001644 <HAL_TIM_Base_MspInit>
#endif /* USE_HAL_TIM_REGISTER_CALLBACKS */
  }

  /* Set the TIM state */
  htim->State = HAL_TIM_STATE_BUSY;
 800383e:	687b      	ldr	r3, [r7, #4]
 8003840:	2239      	movs	r2, #57	; 0x39
 8003842:	2102      	movs	r1, #2
 8003844:	5499      	strb	r1, [r3, r2]

  /* Set the Time Base configuration */
  TIM_Base_SetConfig(htim->Instance, &htim->Init);
 8003846:	687b      	ldr	r3, [r7, #4]
 8003848:	681a      	ldr	r2, [r3, #0]
 800384a:	687b      	ldr	r3, [r7, #4]
 800384c:	3304      	adds	r3, #4
 800384e:	0019      	movs	r1, r3
 8003850:	0010      	movs	r0, r2
 8003852:	f000 fbeb 	bl	800402c <TIM_Base_SetConfig>

  /* Initialize the DMA burst operation state */
  htim->DMABurstState = HAL_DMA_BURST_STATE_READY;
 8003856:	687b      	ldr	r3, [r7, #4]
 8003858:	223e      	movs	r2, #62	; 0x3e
 800385a:	2101      	movs	r1, #1
 800385c:	5499      	strb	r1, [r3, r2]

  /* Initialize the TIM channels state */
  TIM_CHANNEL_STATE_SET_ALL(htim, HAL_TIM_CHANNEL_STATE_READY);
 800385e:	687b      	ldr	r3, [r7, #4]
 8003860:	223a      	movs	r2, #58	; 0x3a
 8003862:	2101      	movs	r1, #1
 8003864:	5499      	strb	r1, [r3, r2]
 8003866:	687b      	ldr	r3, [r7, #4]
 8003868:	223b      	movs	r2, #59	; 0x3b
 800386a:	2101      	movs	r1, #1
 800386c:	5499      	strb	r1, [r3, r2]
 800386e:	687b      	ldr	r3, [r7, #4]
 8003870:	223c      	movs	r2, #60	; 0x3c
 8003872:	2101      	movs	r1, #1
 8003874:	5499      	strb	r1, [r3, r2]
 8003876:	687b      	ldr	r3, [r7, #4]
 8003878:	223d      	movs	r2, #61	; 0x3d
 800387a:	2101      	movs	r1, #1
 800387c:	5499      	strb	r1, [r3, r2]

  /* Initialize the TIM state*/
  htim->State = HAL_TIM_STATE_READY;
 800387e:	687b      	ldr	r3, [r7, #4]
 8003880:	2239      	movs	r2, #57	; 0x39
 8003882:	2101      	movs	r1, #1
 8003884:	5499      	strb	r1, [r3, r2]

  return HAL_OK;
 8003886:	2300      	movs	r3, #0
}
 8003888:	0018      	movs	r0, r3
 800388a:	46bd      	mov	sp, r7
 800388c:	b002      	add	sp, #8
 800388e:	bd80      	pop	{r7, pc}

08003890 <HAL_TIM_Base_Start_IT>:
  * @brief  Starts the TIM Base generation in interrupt mode.
  * @param  htim TIM Base handle
  * @retval HAL status
  */
HAL_StatusTypeDef HAL_TIM_Base_Start_IT(TIM_HandleTypeDef *htim)
{
 8003890:	b580      	push	{r7, lr}
 8003892:	b084      	sub	sp, #16
 8003894:	af00      	add	r7, sp, #0
 8003896:	6078      	str	r0, [r7, #4]

  /* Check the parameters */
  assert_param(IS_TIM_INSTANCE(htim->Instance));

  /* Check the TIM state */
  if (htim->State != HAL_TIM_STATE_READY)
 8003898:	687b      	ldr	r3, [r7, #4]
 800389a:	2239      	movs	r2, #57	; 0x39
 800389c:	5c9b      	ldrb	r3, [r3, r2]
 800389e:	b2db      	uxtb	r3, r3
 80038a0:	2b01      	cmp	r3, #1
 80038a2:	d001      	beq.n	80038a8 <HAL_TIM_Base_Start_IT+0x18>
  {
    return HAL_ERROR;
 80038a4:	2301      	movs	r3, #1
 80038a6:	e03b      	b.n	8003920 <HAL_TIM_Base_Start_IT+0x90>
  }

  /* Set the TIM state */
  htim->State = HAL_TIM_STATE_BUSY;
 80038a8:	687b      	ldr	r3, [r7, #4]
 80038aa:	2239      	movs	r2, #57	; 0x39
 80038ac:	2102      	movs	r1, #2
 80038ae:	5499      	strb	r1, [r3, r2]

  /* Enable the TIM Update interrupt */
  __HAL_TIM_ENABLE_IT(htim, TIM_IT_UPDATE);
 80038b0:	687b      	ldr	r3, [r7, #4]
 80038b2:	681b      	ldr	r3, [r3, #0]
 80038b4:	68da      	ldr	r2, [r3, #12]
 80038b6:	687b      	ldr	r3, [r7, #4]
 80038b8:	681b      	ldr	r3, [r3, #0]
 80038ba:	2101      	movs	r1, #1
 80038bc:	430a      	orrs	r2, r1
 80038be:	60da      	str	r2, [r3, #12]

  /* Enable the Peripheral, except in trigger mode where enable is automatically done with trigger */
  if (IS_TIM_SLAVE_INSTANCE(htim->Instance))
 80038c0:	687b      	ldr	r3, [r7, #4]
 80038c2:	681a      	ldr	r2, [r3, #0]
 80038c4:	2380      	movs	r3, #128	; 0x80
 80038c6:	05db      	lsls	r3, r3, #23
 80038c8:	429a      	cmp	r2, r3
 80038ca:	d00e      	beq.n	80038ea <HAL_TIM_Base_Start_IT+0x5a>
 80038cc:	687b      	ldr	r3, [r7, #4]
 80038ce:	681b      	ldr	r3, [r3, #0]
 80038d0:	4a15      	ldr	r2, [pc, #84]	; (8003928 <HAL_TIM_Base_Start_IT+0x98>)
 80038d2:	4293      	cmp	r3, r2
 80038d4:	d009      	beq.n	80038ea <HAL_TIM_Base_Start_IT+0x5a>
 80038d6:	687b      	ldr	r3, [r7, #4]
 80038d8:	681b      	ldr	r3, [r3, #0]
 80038da:	4a14      	ldr	r2, [pc, #80]	; (800392c <HAL_TIM_Base_Start_IT+0x9c>)
 80038dc:	4293      	cmp	r3, r2
 80038de:	d004      	beq.n	80038ea <HAL_TIM_Base_Start_IT+0x5a>
 80038e0:	687b      	ldr	r3, [r7, #4]
 80038e2:	681b      	ldr	r3, [r3, #0]
 80038e4:	4a12      	ldr	r2, [pc, #72]	; (8003930 <HAL_TIM_Base_Start_IT+0xa0>)
 80038e6:	4293      	cmp	r3, r2
 80038e8:	d111      	bne.n	800390e <HAL_TIM_Base_Start_IT+0x7e>
  {
    tmpsmcr = htim->Instance->SMCR & TIM_SMCR_SMS;
 80038ea:	687b      	ldr	r3, [r7, #4]
 80038ec:	681b      	ldr	r3, [r3, #0]
 80038ee:	689b      	ldr	r3, [r3, #8]
 80038f0:	2207      	movs	r2, #7
 80038f2:	4013      	ands	r3, r2
 80038f4:	60fb      	str	r3, [r7, #12]
    if (!IS_TIM_SLAVEMODE_TRIGGER_ENABLED(tmpsmcr))
 80038f6:	68fb      	ldr	r3, [r7, #12]
 80038f8:	2b06      	cmp	r3, #6
 80038fa:	d010      	beq.n	800391e <HAL_TIM_Base_Start_IT+0x8e>
    {
      __HAL_TIM_ENABLE(htim);
 80038fc:	687b      	ldr	r3, [r7, #4]
 80038fe:	681b      	ldr	r3, [r3, #0]
 8003900:	681a      	ldr	r2, [r3, #0]
 8003902:	687b      	ldr	r3, [r7, #4]
 8003904:	681b      	ldr	r3, [r3, #0]
 8003906:	2101      	movs	r1, #1
 8003908:	430a      	orrs	r2, r1
 800390a:	601a      	str	r2, [r3, #0]
    if (!IS_TIM_SLAVEMODE_TRIGGER_ENABLED(tmpsmcr))
 800390c:	e007      	b.n	800391e <HAL_TIM_Base_Start_IT+0x8e>
    }
  }
  else
  {
    __HAL_TIM_ENABLE(htim);
 800390e:	687b      	ldr	r3, [r7, #4]
 8003910:	681b      	ldr	r3, [r3, #0]
 8003912:	681a      	ldr	r2, [r3, #0]
 8003914:	687b      	ldr	r3, [r7, #4]
 8003916:	681b      	ldr	r3, [r3, #0]
 8003918:	2101      	movs	r1, #1
 800391a:	430a      	orrs	r2, r1
 800391c:	601a      	str	r2, [r3, #0]
  }

  /* Return function status */
  return HAL_OK;
 800391e:	2300      	movs	r3, #0
}
 8003920:	0018      	movs	r0, r3
 8003922:	46bd      	mov	sp, r7
 8003924:	b004      	add	sp, #16
 8003926:	bd80      	pop	{r7, pc}
 8003928:	40000400 	.word	0x40000400
 800392c:	40010800 	.word	0x40010800
 8003930:	40011400 	.word	0x40011400

08003934 <HAL_TIM_PWM_Init>:
  *         Ex: call @ref HAL_TIM_PWM_DeInit() before HAL_TIM_PWM_Init()
  * @param  htim TIM PWM handle
  * @retval HAL status
  */
HAL_StatusTypeDef HAL_TIM_PWM_Init(TIM_HandleTypeDef *htim)
{
 8003934:	b580      	push	{r7, lr}
 8003936:	b082      	sub	sp, #8
 8003938:	af00      	add	r7, sp, #0
 800393a:	6078      	str	r0, [r7, #4]
  /* Check the TIM handle allocation */
  if (htim == NULL)
 800393c:	687b      	ldr	r3, [r7, #4]
 800393e:	2b00      	cmp	r3, #0
 8003940:	d101      	bne.n	8003946 <HAL_TIM_PWM_Init+0x12>
  {
    return HAL_ERROR;
 8003942:	2301      	movs	r3, #1
 8003944:	e032      	b.n	80039ac <HAL_TIM_PWM_Init+0x78>
  assert_param(IS_TIM_CLOCKDIVISION_DIV(htim->Init.ClockDivision));
  assert_param(IS_TIM_PERIOD(htim->Init.Period));
  assert_param(IS_TIM_PRESCALER(htim->Init.Prescaler));
  assert_param(IS_TIM_AUTORELOAD_PRELOAD(htim->Init.AutoReloadPreload));

  if (htim->State == HAL_TIM_STATE_RESET)
 8003946:	687b      	ldr	r3, [r7, #4]
 8003948:	2239      	movs	r2, #57	; 0x39
 800394a:	5c9b      	ldrb	r3, [r3, r2]
 800394c:	b2db      	uxtb	r3, r3
 800394e:	2b00      	cmp	r3, #0
 8003950:	d107      	bne.n	8003962 <HAL_TIM_PWM_Init+0x2e>
  {
    /* Allocate lock resource and initialize it */
    htim->Lock = HAL_UNLOCKED;
 8003952:	687b      	ldr	r3, [r7, #4]
 8003954:	2238      	movs	r2, #56	; 0x38
 8003956:	2100      	movs	r1, #0
 8003958:	5499      	strb	r1, [r3, r2]
    }
    /* Init the low level hardware : GPIO, CLOCK, NVIC */
    htim->PWM_MspInitCallback(htim);
#else
    /* Init the low level hardware : GPIO, CLOCK, NVIC and DMA */
    HAL_TIM_PWM_MspInit(htim);
 800395a:	687b      	ldr	r3, [r7, #4]
 800395c:	0018      	movs	r0, r3
 800395e:	f000 f829 	bl	80039b4 <HAL_TIM_PWM_MspInit>
#endif /* USE_HAL_TIM_REGISTER_CALLBACKS */
  }

  /* Set the TIM state */
  htim->State = HAL_TIM_STATE_BUSY;
 8003962:	687b      	ldr	r3, [r7, #4]
 8003964:	2239      	movs	r2, #57	; 0x39
 8003966:	2102      	movs	r1, #2
 8003968:	5499      	strb	r1, [r3, r2]

  /* Init the base time for the PWM */
  TIM_Base_SetConfig(htim->Instance, &htim->Init);
 800396a:	687b      	ldr	r3, [r7, #4]
 800396c:	681a      	ldr	r2, [r3, #0]
 800396e:	687b      	ldr	r3, [r7, #4]
 8003970:	3304      	adds	r3, #4
 8003972:	0019      	movs	r1, r3
 8003974:	0010      	movs	r0, r2
 8003976:	f000 fb59 	bl	800402c <TIM_Base_SetConfig>

  /* Initialize the DMA burst operation state */
  htim->DMABurstState = HAL_DMA_BURST_STATE_READY;
 800397a:	687b      	ldr	r3, [r7, #4]
 800397c:	223e      	movs	r2, #62	; 0x3e
 800397e:	2101      	movs	r1, #1
 8003980:	5499      	strb	r1, [r3, r2]

  /* Initialize the TIM channels state */
  TIM_CHANNEL_STATE_SET_ALL(htim, HAL_TIM_CHANNEL_STATE_READY);
 8003982:	687b      	ldr	r3, [r7, #4]
 8003984:	223a      	movs	r2, #58	; 0x3a
 8003986:	2101      	movs	r1, #1
 8003988:	5499      	strb	r1, [r3, r2]
 800398a:	687b      	ldr	r3, [r7, #4]
 800398c:	223b      	movs	r2, #59	; 0x3b
 800398e:	2101      	movs	r1, #1
 8003990:	5499      	strb	r1, [r3, r2]
 8003992:	687b      	ldr	r3, [r7, #4]
 8003994:	223c      	movs	r2, #60	; 0x3c
 8003996:	2101      	movs	r1, #1
 8003998:	5499      	strb	r1, [r3, r2]
 800399a:	687b      	ldr	r3, [r7, #4]
 800399c:	223d      	movs	r2, #61	; 0x3d
 800399e:	2101      	movs	r1, #1
 80039a0:	5499      	strb	r1, [r3, r2]

  /* Initialize the TIM state*/
  htim->State = HAL_TIM_STATE_READY;
 80039a2:	687b      	ldr	r3, [r7, #4]
 80039a4:	2239      	movs	r2, #57	; 0x39
 80039a6:	2101      	movs	r1, #1
 80039a8:	5499      	strb	r1, [r3, r2]

  return HAL_OK;
 80039aa:	2300      	movs	r3, #0
}
 80039ac:	0018      	movs	r0, r3
 80039ae:	46bd      	mov	sp, r7
 80039b0:	b002      	add	sp, #8
 80039b2:	bd80      	pop	{r7, pc}

080039b4 <HAL_TIM_PWM_MspInit>:
  * @brief  Initializes the TIM PWM MSP.
  * @param  htim TIM PWM handle
  * @retval None
  */
__weak void HAL_TIM_PWM_MspInit(TIM_HandleTypeDef *htim)
{
 80039b4:	b580      	push	{r7, lr}
 80039b6:	b082      	sub	sp, #8
 80039b8:	af00      	add	r7, sp, #0
 80039ba:	6078      	str	r0, [r7, #4]
  UNUSED(htim);

  /* NOTE : This function should not be modified, when the callback is needed,
            the HAL_TIM_PWM_MspInit could be implemented in the user file
   */
}
 80039bc:	46c0      	nop			; (mov r8, r8)
 80039be:	46bd      	mov	sp, r7
 80039c0:	b002      	add	sp, #8
 80039c2:	bd80      	pop	{r7, pc}

080039c4 <HAL_TIM_PWM_Start>:
  *            @arg TIM_CHANNEL_3: TIM Channel 3 selected
  *            @arg TIM_CHANNEL_4: TIM Channel 4 selected
  * @retval HAL status
  */
HAL_StatusTypeDef HAL_TIM_PWM_Start(TIM_HandleTypeDef *htim, uint32_t Channel)
{
 80039c4:	b580      	push	{r7, lr}
 80039c6:	b084      	sub	sp, #16
 80039c8:	af00      	add	r7, sp, #0
 80039ca:	6078      	str	r0, [r7, #4]
 80039cc:	6039      	str	r1, [r7, #0]

  /* Check the parameters */
  assert_param(IS_TIM_CCX_INSTANCE(htim->Instance, Channel));

  /* Check the TIM channel state */
  if (TIM_CHANNEL_STATE_GET(htim, Channel) != HAL_TIM_CHANNEL_STATE_READY)
 80039ce:	683b      	ldr	r3, [r7, #0]
 80039d0:	2b00      	cmp	r3, #0
 80039d2:	d108      	bne.n	80039e6 <HAL_TIM_PWM_Start+0x22>
 80039d4:	687b      	ldr	r3, [r7, #4]
 80039d6:	223a      	movs	r2, #58	; 0x3a
 80039d8:	5c9b      	ldrb	r3, [r3, r2]
 80039da:	b2db      	uxtb	r3, r3
 80039dc:	3b01      	subs	r3, #1
 80039de:	1e5a      	subs	r2, r3, #1
 80039e0:	4193      	sbcs	r3, r2
 80039e2:	b2db      	uxtb	r3, r3
 80039e4:	e01f      	b.n	8003a26 <HAL_TIM_PWM_Start+0x62>
 80039e6:	683b      	ldr	r3, [r7, #0]
 80039e8:	2b04      	cmp	r3, #4
 80039ea:	d108      	bne.n	80039fe <HAL_TIM_PWM_Start+0x3a>
 80039ec:	687b      	ldr	r3, [r7, #4]
 80039ee:	223b      	movs	r2, #59	; 0x3b
 80039f0:	5c9b      	ldrb	r3, [r3, r2]
 80039f2:	b2db      	uxtb	r3, r3
 80039f4:	3b01      	subs	r3, #1
 80039f6:	1e5a      	subs	r2, r3, #1
 80039f8:	4193      	sbcs	r3, r2
 80039fa:	b2db      	uxtb	r3, r3
 80039fc:	e013      	b.n	8003a26 <HAL_TIM_PWM_Start+0x62>
 80039fe:	683b      	ldr	r3, [r7, #0]
 8003a00:	2b08      	cmp	r3, #8
 8003a02:	d108      	bne.n	8003a16 <HAL_TIM_PWM_Start+0x52>
 8003a04:	687b      	ldr	r3, [r7, #4]
 8003a06:	223c      	movs	r2, #60	; 0x3c
 8003a08:	5c9b      	ldrb	r3, [r3, r2]
 8003a0a:	b2db      	uxtb	r3, r3
 8003a0c:	3b01      	subs	r3, #1
 8003a0e:	1e5a      	subs	r2, r3, #1
 8003a10:	4193      	sbcs	r3, r2
 8003a12:	b2db      	uxtb	r3, r3
 8003a14:	e007      	b.n	8003a26 <HAL_TIM_PWM_Start+0x62>
 8003a16:	687b      	ldr	r3, [r7, #4]
 8003a18:	223d      	movs	r2, #61	; 0x3d
 8003a1a:	5c9b      	ldrb	r3, [r3, r2]
 8003a1c:	b2db      	uxtb	r3, r3
 8003a1e:	3b01      	subs	r3, #1
 8003a20:	1e5a      	subs	r2, r3, #1
 8003a22:	4193      	sbcs	r3, r2
 8003a24:	b2db      	uxtb	r3, r3
 8003a26:	2b00      	cmp	r3, #0
 8003a28:	d001      	beq.n	8003a2e <HAL_TIM_PWM_Start+0x6a>
  {
    return HAL_ERROR;
 8003a2a:	2301      	movs	r3, #1
 8003a2c:	e052      	b.n	8003ad4 <HAL_TIM_PWM_Start+0x110>
  }

  /* Set the TIM channel state */
  TIM_CHANNEL_STATE_SET(htim, Channel, HAL_TIM_CHANNEL_STATE_BUSY);
 8003a2e:	683b      	ldr	r3, [r7, #0]
 8003a30:	2b00      	cmp	r3, #0
 8003a32:	d104      	bne.n	8003a3e <HAL_TIM_PWM_Start+0x7a>
 8003a34:	687b      	ldr	r3, [r7, #4]
 8003a36:	223a      	movs	r2, #58	; 0x3a
 8003a38:	2102      	movs	r1, #2
 8003a3a:	5499      	strb	r1, [r3, r2]
 8003a3c:	e013      	b.n	8003a66 <HAL_TIM_PWM_Start+0xa2>
 8003a3e:	683b      	ldr	r3, [r7, #0]
 8003a40:	2b04      	cmp	r3, #4
 8003a42:	d104      	bne.n	8003a4e <HAL_TIM_PWM_Start+0x8a>
 8003a44:	687b      	ldr	r3, [r7, #4]
 8003a46:	223b      	movs	r2, #59	; 0x3b
 8003a48:	2102      	movs	r1, #2
 8003a4a:	5499      	strb	r1, [r3, r2]
 8003a4c:	e00b      	b.n	8003a66 <HAL_TIM_PWM_Start+0xa2>
 8003a4e:	683b      	ldr	r3, [r7, #0]
 8003a50:	2b08      	cmp	r3, #8
 8003a52:	d104      	bne.n	8003a5e <HAL_TIM_PWM_Start+0x9a>
 8003a54:	687b      	ldr	r3, [r7, #4]
 8003a56:	223c      	movs	r2, #60	; 0x3c
 8003a58:	2102      	movs	r1, #2
 8003a5a:	5499      	strb	r1, [r3, r2]
 8003a5c:	e003      	b.n	8003a66 <HAL_TIM_PWM_Start+0xa2>
 8003a5e:	687b      	ldr	r3, [r7, #4]
 8003a60:	223d      	movs	r2, #61	; 0x3d
 8003a62:	2102      	movs	r1, #2
 8003a64:	5499      	strb	r1, [r3, r2]

  /* Enable the Capture compare channel */
  TIM_CCxChannelCmd(htim->Instance, Channel, TIM_CCx_ENABLE);
 8003a66:	687b      	ldr	r3, [r7, #4]
 8003a68:	681b      	ldr	r3, [r3, #0]
 8003a6a:	6839      	ldr	r1, [r7, #0]
 8003a6c:	2201      	movs	r2, #1
 8003a6e:	0018      	movs	r0, r3
 8003a70:	f000 fcd8 	bl	8004424 <TIM_CCxChannelCmd>

  /* Enable the Peripheral, except in trigger mode where enable is automatically done with trigger */
  if (IS_TIM_SLAVE_INSTANCE(htim->Instance))
 8003a74:	687b      	ldr	r3, [r7, #4]
 8003a76:	681a      	ldr	r2, [r3, #0]
 8003a78:	2380      	movs	r3, #128	; 0x80
 8003a7a:	05db      	lsls	r3, r3, #23
 8003a7c:	429a      	cmp	r2, r3
 8003a7e:	d00e      	beq.n	8003a9e <HAL_TIM_PWM_Start+0xda>
 8003a80:	687b      	ldr	r3, [r7, #4]
 8003a82:	681b      	ldr	r3, [r3, #0]
 8003a84:	4a15      	ldr	r2, [pc, #84]	; (8003adc <HAL_TIM_PWM_Start+0x118>)
 8003a86:	4293      	cmp	r3, r2
 8003a88:	d009      	beq.n	8003a9e <HAL_TIM_PWM_Start+0xda>
 8003a8a:	687b      	ldr	r3, [r7, #4]
 8003a8c:	681b      	ldr	r3, [r3, #0]
 8003a8e:	4a14      	ldr	r2, [pc, #80]	; (8003ae0 <HAL_TIM_PWM_Start+0x11c>)
 8003a90:	4293      	cmp	r3, r2
 8003a92:	d004      	beq.n	8003a9e <HAL_TIM_PWM_Start+0xda>
 8003a94:	687b      	ldr	r3, [r7, #4]
 8003a96:	681b      	ldr	r3, [r3, #0]
 8003a98:	4a12      	ldr	r2, [pc, #72]	; (8003ae4 <HAL_TIM_PWM_Start+0x120>)
 8003a9a:	4293      	cmp	r3, r2
 8003a9c:	d111      	bne.n	8003ac2 <HAL_TIM_PWM_Start+0xfe>
  {
    tmpsmcr = htim->Instance->SMCR & TIM_SMCR_SMS;
 8003a9e:	687b      	ldr	r3, [r7, #4]
 8003aa0:	681b      	ldr	r3, [r3, #0]
 8003aa2:	689b      	ldr	r3, [r3, #8]
 8003aa4:	2207      	movs	r2, #7
 8003aa6:	4013      	ands	r3, r2
 8003aa8:	60fb      	str	r3, [r7, #12]
    if (!IS_TIM_SLAVEMODE_TRIGGER_ENABLED(tmpsmcr))
 8003aaa:	68fb      	ldr	r3, [r7, #12]
 8003aac:	2b06      	cmp	r3, #6
 8003aae:	d010      	beq.n	8003ad2 <HAL_TIM_PWM_Start+0x10e>
    {
      __HAL_TIM_ENABLE(htim);
 8003ab0:	687b      	ldr	r3, [r7, #4]
 8003ab2:	681b      	ldr	r3, [r3, #0]
 8003ab4:	681a      	ldr	r2, [r3, #0]
 8003ab6:	687b      	ldr	r3, [r7, #4]
 8003ab8:	681b      	ldr	r3, [r3, #0]
 8003aba:	2101      	movs	r1, #1
 8003abc:	430a      	orrs	r2, r1
 8003abe:	601a      	str	r2, [r3, #0]
    if (!IS_TIM_SLAVEMODE_TRIGGER_ENABLED(tmpsmcr))
 8003ac0:	e007      	b.n	8003ad2 <HAL_TIM_PWM_Start+0x10e>
    }
  }
  else
  {
    __HAL_TIM_ENABLE(htim);
 8003ac2:	687b      	ldr	r3, [r7, #4]
 8003ac4:	681b      	ldr	r3, [r3, #0]
 8003ac6:	681a      	ldr	r2, [r3, #0]
 8003ac8:	687b      	ldr	r3, [r7, #4]
 8003aca:	681b      	ldr	r3, [r3, #0]
 8003acc:	2101      	movs	r1, #1
 8003ace:	430a      	orrs	r2, r1
 8003ad0:	601a      	str	r2, [r3, #0]
  }

  /* Return function status */
  return HAL_OK;
 8003ad2:	2300      	movs	r3, #0
}
 8003ad4:	0018      	movs	r0, r3
 8003ad6:	46bd      	mov	sp, r7
 8003ad8:	b004      	add	sp, #16
 8003ada:	bd80      	pop	{r7, pc}
 8003adc:	40000400 	.word	0x40000400
 8003ae0:	40010800 	.word	0x40010800
 8003ae4:	40011400 	.word	0x40011400

08003ae8 <HAL_TIM_IRQHandler>:
  * @brief  This function handles TIM interrupts requests.
  * @param  htim TIM  handle
  * @retval None
  */
void HAL_TIM_IRQHandler(TIM_HandleTypeDef *htim)
{
 8003ae8:	b580      	push	{r7, lr}
 8003aea:	b082      	sub	sp, #8
 8003aec:	af00      	add	r7, sp, #0
 8003aee:	6078      	str	r0, [r7, #4]
  /* Capture compare 1 event */
  if (__HAL_TIM_GET_FLAG(htim, TIM_FLAG_CC1) != RESET)
 8003af0:	687b      	ldr	r3, [r7, #4]
 8003af2:	681b      	ldr	r3, [r3, #0]
 8003af4:	691b      	ldr	r3, [r3, #16]
 8003af6:	2202      	movs	r2, #2
 8003af8:	4013      	ands	r3, r2
 8003afa:	2b02      	cmp	r3, #2
 8003afc:	d124      	bne.n	8003b48 <HAL_TIM_IRQHandler+0x60>
  {
    if (__HAL_TIM_GET_IT_SOURCE(htim, TIM_IT_CC1) != RESET)
 8003afe:	687b      	ldr	r3, [r7, #4]
 8003b00:	681b      	ldr	r3, [r3, #0]
 8003b02:	68db      	ldr	r3, [r3, #12]
 8003b04:	2202      	movs	r2, #2
 8003b06:	4013      	ands	r3, r2
 8003b08:	2b02      	cmp	r3, #2
 8003b0a:	d11d      	bne.n	8003b48 <HAL_TIM_IRQHandler+0x60>
    {
      {
        __HAL_TIM_CLEAR_IT(htim, TIM_IT_CC1);
 8003b0c:	687b      	ldr	r3, [r7, #4]
 8003b0e:	681b      	ldr	r3, [r3, #0]
 8003b10:	2203      	movs	r2, #3
 8003b12:	4252      	negs	r2, r2
 8003b14:	611a      	str	r2, [r3, #16]
        htim->Channel = HAL_TIM_ACTIVE_CHANNEL_1;
 8003b16:	687b      	ldr	r3, [r7, #4]
 8003b18:	2201      	movs	r2, #1
 8003b1a:	761a      	strb	r2, [r3, #24]

        /* Input capture event */
        if ((htim->Instance->CCMR1 & TIM_CCMR1_CC1S) != 0x00U)
 8003b1c:	687b      	ldr	r3, [r7, #4]
 8003b1e:	681b      	ldr	r3, [r3, #0]
 8003b20:	699b      	ldr	r3, [r3, #24]
 8003b22:	2203      	movs	r2, #3
 8003b24:	4013      	ands	r3, r2
 8003b26:	d004      	beq.n	8003b32 <HAL_TIM_IRQHandler+0x4a>
        {
#if (USE_HAL_TIM_REGISTER_CALLBACKS == 1)
          htim->IC_CaptureCallback(htim);
#else
          HAL_TIM_IC_CaptureCallback(htim);
 8003b28:	687b      	ldr	r3, [r7, #4]
 8003b2a:	0018      	movs	r0, r3
 8003b2c:	f000 fa66 	bl	8003ffc <HAL_TIM_IC_CaptureCallback>
 8003b30:	e007      	b.n	8003b42 <HAL_TIM_IRQHandler+0x5a>
        {
#if (USE_HAL_TIM_REGISTER_CALLBACKS == 1)
          htim->OC_DelayElapsedCallback(htim);
          htim->PWM_PulseFinishedCallback(htim);
#else
          HAL_TIM_OC_DelayElapsedCallback(htim);
 8003b32:	687b      	ldr	r3, [r7, #4]
 8003b34:	0018      	movs	r0, r3
 8003b36:	f000 fa59 	bl	8003fec <HAL_TIM_OC_DelayElapsedCallback>
          HAL_TIM_PWM_PulseFinishedCallback(htim);
 8003b3a:	687b      	ldr	r3, [r7, #4]
 8003b3c:	0018      	movs	r0, r3
 8003b3e:	f000 fa65 	bl	800400c <HAL_TIM_PWM_PulseFinishedCallback>
#endif /* USE_HAL_TIM_REGISTER_CALLBACKS */
        }
        htim->Channel = HAL_TIM_ACTIVE_CHANNEL_CLEARED;
 8003b42:	687b      	ldr	r3, [r7, #4]
 8003b44:	2200      	movs	r2, #0
 8003b46:	761a      	strb	r2, [r3, #24]
      }
    }
  }
  /* Capture compare 2 event */
  if (__HAL_TIM_GET_FLAG(htim, TIM_FLAG_CC2) != RESET)
 8003b48:	687b      	ldr	r3, [r7, #4]
 8003b4a:	681b      	ldr	r3, [r3, #0]
 8003b4c:	691b      	ldr	r3, [r3, #16]
 8003b4e:	2204      	movs	r2, #4
 8003b50:	4013      	ands	r3, r2
 8003b52:	2b04      	cmp	r3, #4
 8003b54:	d125      	bne.n	8003ba2 <HAL_TIM_IRQHandler+0xba>
  {
    if (__HAL_TIM_GET_IT_SOURCE(htim, TIM_IT_CC2) != RESET)
 8003b56:	687b      	ldr	r3, [r7, #4]
 8003b58:	681b      	ldr	r3, [r3, #0]
 8003b5a:	68db      	ldr	r3, [r3, #12]
 8003b5c:	2204      	movs	r2, #4
 8003b5e:	4013      	ands	r3, r2
 8003b60:	2b04      	cmp	r3, #4
 8003b62:	d11e      	bne.n	8003ba2 <HAL_TIM_IRQHandler+0xba>
    {
      __HAL_TIM_CLEAR_IT(htim, TIM_IT_CC2);
 8003b64:	687b      	ldr	r3, [r7, #4]
 8003b66:	681b      	ldr	r3, [r3, #0]
 8003b68:	2205      	movs	r2, #5
 8003b6a:	4252      	negs	r2, r2
 8003b6c:	611a      	str	r2, [r3, #16]
      htim->Channel = HAL_TIM_ACTIVE_CHANNEL_2;
 8003b6e:	687b      	ldr	r3, [r7, #4]
 8003b70:	2202      	movs	r2, #2
 8003b72:	761a      	strb	r2, [r3, #24]
      /* Input capture event */
      if ((htim->Instance->CCMR1 & TIM_CCMR1_CC2S) != 0x00U)
 8003b74:	687b      	ldr	r3, [r7, #4]
 8003b76:	681b      	ldr	r3, [r3, #0]
 8003b78:	699a      	ldr	r2, [r3, #24]
 8003b7a:	23c0      	movs	r3, #192	; 0xc0
 8003b7c:	009b      	lsls	r3, r3, #2
 8003b7e:	4013      	ands	r3, r2
 8003b80:	d004      	beq.n	8003b8c <HAL_TIM_IRQHandler+0xa4>
      {
#if (USE_HAL_TIM_REGISTER_CALLBACKS == 1)
        htim->IC_CaptureCallback(htim);
#else
        HAL_TIM_IC_CaptureCallback(htim);
 8003b82:	687b      	ldr	r3, [r7, #4]
 8003b84:	0018      	movs	r0, r3
 8003b86:	f000 fa39 	bl	8003ffc <HAL_TIM_IC_CaptureCallback>
 8003b8a:	e007      	b.n	8003b9c <HAL_TIM_IRQHandler+0xb4>
      {
#if (USE_HAL_TIM_REGISTER_CALLBACKS == 1)
        htim->OC_DelayElapsedCallback(htim);
        htim->PWM_PulseFinishedCallback(htim);
#else
        HAL_TIM_OC_DelayElapsedCallback(htim);
 8003b8c:	687b      	ldr	r3, [r7, #4]
 8003b8e:	0018      	movs	r0, r3
 8003b90:	f000 fa2c 	bl	8003fec <HAL_TIM_OC_DelayElapsedCallback>
        HAL_TIM_PWM_PulseFinishedCallback(htim);
 8003b94:	687b      	ldr	r3, [r7, #4]
 8003b96:	0018      	movs	r0, r3
 8003b98:	f000 fa38 	bl	800400c <HAL_TIM_PWM_PulseFinishedCallback>
#endif /* USE_HAL_TIM_REGISTER_CALLBACKS */
      }
      htim->Channel = HAL_TIM_ACTIVE_CHANNEL_CLEARED;
 8003b9c:	687b      	ldr	r3, [r7, #4]
 8003b9e:	2200      	movs	r2, #0
 8003ba0:	761a      	strb	r2, [r3, #24]
    }
  }
  /* Capture compare 3 event */
  if (__HAL_TIM_GET_FLAG(htim, TIM_FLAG_CC3) != RESET)
 8003ba2:	687b      	ldr	r3, [r7, #4]
 8003ba4:	681b      	ldr	r3, [r3, #0]
 8003ba6:	691b      	ldr	r3, [r3, #16]
 8003ba8:	2208      	movs	r2, #8
 8003baa:	4013      	ands	r3, r2
 8003bac:	2b08      	cmp	r3, #8
 8003bae:	d124      	bne.n	8003bfa <HAL_TIM_IRQHandler+0x112>
  {
    if (__HAL_TIM_GET_IT_SOURCE(htim, TIM_IT_CC3) != RESET)
 8003bb0:	687b      	ldr	r3, [r7, #4]
 8003bb2:	681b      	ldr	r3, [r3, #0]
 8003bb4:	68db      	ldr	r3, [r3, #12]
 8003bb6:	2208      	movs	r2, #8
 8003bb8:	4013      	ands	r3, r2
 8003bba:	2b08      	cmp	r3, #8
 8003bbc:	d11d      	bne.n	8003bfa <HAL_TIM_IRQHandler+0x112>
    {
      __HAL_TIM_CLEAR_IT(htim, TIM_IT_CC3);
 8003bbe:	687b      	ldr	r3, [r7, #4]
 8003bc0:	681b      	ldr	r3, [r3, #0]
 8003bc2:	2209      	movs	r2, #9
 8003bc4:	4252      	negs	r2, r2
 8003bc6:	611a      	str	r2, [r3, #16]
      htim->Channel = HAL_TIM_ACTIVE_CHANNEL_3;
 8003bc8:	687b      	ldr	r3, [r7, #4]
 8003bca:	2204      	movs	r2, #4
 8003bcc:	761a      	strb	r2, [r3, #24]
      /* Input capture event */
      if ((htim->Instance->CCMR2 & TIM_CCMR2_CC3S) != 0x00U)
 8003bce:	687b      	ldr	r3, [r7, #4]
 8003bd0:	681b      	ldr	r3, [r3, #0]
 8003bd2:	69db      	ldr	r3, [r3, #28]
 8003bd4:	2203      	movs	r2, #3
 8003bd6:	4013      	ands	r3, r2
 8003bd8:	d004      	beq.n	8003be4 <HAL_TIM_IRQHandler+0xfc>
      {
#if (USE_HAL_TIM_REGISTER_CALLBACKS == 1)
        htim->IC_CaptureCallback(htim);
#else
        HAL_TIM_IC_CaptureCallback(htim);
 8003bda:	687b      	ldr	r3, [r7, #4]
 8003bdc:	0018      	movs	r0, r3
 8003bde:	f000 fa0d 	bl	8003ffc <HAL_TIM_IC_CaptureCallback>
 8003be2:	e007      	b.n	8003bf4 <HAL_TIM_IRQHandler+0x10c>
      {
#if (USE_HAL_TIM_REGISTER_CALLBACKS == 1)
        htim->OC_DelayElapsedCallback(htim);
        htim->PWM_PulseFinishedCallback(htim);
#else
        HAL_TIM_OC_DelayElapsedCallback(htim);
 8003be4:	687b      	ldr	r3, [r7, #4]
 8003be6:	0018      	movs	r0, r3
 8003be8:	f000 fa00 	bl	8003fec <HAL_TIM_OC_DelayElapsedCallback>
        HAL_TIM_PWM_PulseFinishedCallback(htim);
 8003bec:	687b      	ldr	r3, [r7, #4]
 8003bee:	0018      	movs	r0, r3
 8003bf0:	f000 fa0c 	bl	800400c <HAL_TIM_PWM_PulseFinishedCallback>
#endif /* USE_HAL_TIM_REGISTER_CALLBACKS */
      }
      htim->Channel = HAL_TIM_ACTIVE_CHANNEL_CLEARED;
 8003bf4:	687b      	ldr	r3, [r7, #4]
 8003bf6:	2200      	movs	r2, #0
 8003bf8:	761a      	strb	r2, [r3, #24]
    }
  }
  /* Capture compare 4 event */
  if (__HAL_TIM_GET_FLAG(htim, TIM_FLAG_CC4) != RESET)
 8003bfa:	687b      	ldr	r3, [r7, #4]
 8003bfc:	681b      	ldr	r3, [r3, #0]
 8003bfe:	691b      	ldr	r3, [r3, #16]
 8003c00:	2210      	movs	r2, #16
 8003c02:	4013      	ands	r3, r2
 8003c04:	2b10      	cmp	r3, #16
 8003c06:	d125      	bne.n	8003c54 <HAL_TIM_IRQHandler+0x16c>
  {
    if (__HAL_TIM_GET_IT_SOURCE(htim, TIM_IT_CC4) != RESET)
 8003c08:	687b      	ldr	r3, [r7, #4]
 8003c0a:	681b      	ldr	r3, [r3, #0]
 8003c0c:	68db      	ldr	r3, [r3, #12]
 8003c0e:	2210      	movs	r2, #16
 8003c10:	4013      	ands	r3, r2
 8003c12:	2b10      	cmp	r3, #16
 8003c14:	d11e      	bne.n	8003c54 <HAL_TIM_IRQHandler+0x16c>
    {
      __HAL_TIM_CLEAR_IT(htim, TIM_IT_CC4);
 8003c16:	687b      	ldr	r3, [r7, #4]
 8003c18:	681b      	ldr	r3, [r3, #0]
 8003c1a:	2211      	movs	r2, #17
 8003c1c:	4252      	negs	r2, r2
 8003c1e:	611a      	str	r2, [r3, #16]
      htim->Channel = HAL_TIM_ACTIVE_CHANNEL_4;
 8003c20:	687b      	ldr	r3, [r7, #4]
 8003c22:	2208      	movs	r2, #8
 8003c24:	761a      	strb	r2, [r3, #24]
      /* Input capture event */
      if ((htim->Instance->CCMR2 & TIM_CCMR2_CC4S) != 0x00U)
 8003c26:	687b      	ldr	r3, [r7, #4]
 8003c28:	681b      	ldr	r3, [r3, #0]
 8003c2a:	69da      	ldr	r2, [r3, #28]
 8003c2c:	23c0      	movs	r3, #192	; 0xc0
 8003c2e:	009b      	lsls	r3, r3, #2
 8003c30:	4013      	ands	r3, r2
 8003c32:	d004      	beq.n	8003c3e <HAL_TIM_IRQHandler+0x156>
      {
#if (USE_HAL_TIM_REGISTER_CALLBACKS == 1)
        htim->IC_CaptureCallback(htim);
#else
        HAL_TIM_IC_CaptureCallback(htim);
 8003c34:	687b      	ldr	r3, [r7, #4]
 8003c36:	0018      	movs	r0, r3
 8003c38:	f000 f9e0 	bl	8003ffc <HAL_TIM_IC_CaptureCallback>
 8003c3c:	e007      	b.n	8003c4e <HAL_TIM_IRQHandler+0x166>
      {
#if (USE_HAL_TIM_REGISTER_CALLBACKS == 1)
        htim->OC_DelayElapsedCallback(htim);
        htim->PWM_PulseFinishedCallback(htim);
#else
        HAL_TIM_OC_DelayElapsedCallback(htim);
 8003c3e:	687b      	ldr	r3, [r7, #4]
 8003c40:	0018      	movs	r0, r3
 8003c42:	f000 f9d3 	bl	8003fec <HAL_TIM_OC_DelayElapsedCallback>
        HAL_TIM_PWM_PulseFinishedCallback(htim);
 8003c46:	687b      	ldr	r3, [r7, #4]
 8003c48:	0018      	movs	r0, r3
 8003c4a:	f000 f9df 	bl	800400c <HAL_TIM_PWM_PulseFinishedCallback>
#endif /* USE_HAL_TIM_REGISTER_CALLBACKS */
      }
      htim->Channel = HAL_TIM_ACTIVE_CHANNEL_CLEARED;
 8003c4e:	687b      	ldr	r3, [r7, #4]
 8003c50:	2200      	movs	r2, #0
 8003c52:	761a      	strb	r2, [r3, #24]
    }
  }
  /* TIM Update event */
  if (__HAL_TIM_GET_FLAG(htim, TIM_FLAG_UPDATE) != RESET)
 8003c54:	687b      	ldr	r3, [r7, #4]
 8003c56:	681b      	ldr	r3, [r3, #0]
 8003c58:	691b      	ldr	r3, [r3, #16]
 8003c5a:	2201      	movs	r2, #1
 8003c5c:	4013      	ands	r3, r2
 8003c5e:	2b01      	cmp	r3, #1
 8003c60:	d10f      	bne.n	8003c82 <HAL_TIM_IRQHandler+0x19a>
  {
    if (__HAL_TIM_GET_IT_SOURCE(htim, TIM_IT_UPDATE) != RESET)
 8003c62:	687b      	ldr	r3, [r7, #4]
 8003c64:	681b      	ldr	r3, [r3, #0]
 8003c66:	68db      	ldr	r3, [r3, #12]
 8003c68:	2201      	movs	r2, #1
 8003c6a:	4013      	ands	r3, r2
 8003c6c:	2b01      	cmp	r3, #1
 8003c6e:	d108      	bne.n	8003c82 <HAL_TIM_IRQHandler+0x19a>
    {
      __HAL_TIM_CLEAR_IT(htim, TIM_IT_UPDATE);
 8003c70:	687b      	ldr	r3, [r7, #4]
 8003c72:	681b      	ldr	r3, [r3, #0]
 8003c74:	2202      	movs	r2, #2
 8003c76:	4252      	negs	r2, r2
 8003c78:	611a      	str	r2, [r3, #16]
#if (USE_HAL_TIM_REGISTER_CALLBACKS == 1)
      htim->PeriodElapsedCallback(htim);
#else
      HAL_TIM_PeriodElapsedCallback(htim);
 8003c7a:	687b      	ldr	r3, [r7, #4]
 8003c7c:	0018      	movs	r0, r3
 8003c7e:	f7fd fa51 	bl	8001124 <HAL_TIM_PeriodElapsedCallback>
#endif /* USE_HAL_TIM_REGISTER_CALLBACKS */
    }
  }
  /* TIM Trigger detection event */
  if (__HAL_TIM_GET_FLAG(htim, TIM_FLAG_TRIGGER) != RESET)
 8003c82:	687b      	ldr	r3, [r7, #4]
 8003c84:	681b      	ldr	r3, [r3, #0]
 8003c86:	691b      	ldr	r3, [r3, #16]
 8003c88:	2240      	movs	r2, #64	; 0x40
 8003c8a:	4013      	ands	r3, r2
 8003c8c:	2b40      	cmp	r3, #64	; 0x40
 8003c8e:	d10f      	bne.n	8003cb0 <HAL_TIM_IRQHandler+0x1c8>
  {
    if (__HAL_TIM_GET_IT_SOURCE(htim, TIM_IT_TRIGGER) != RESET)
 8003c90:	687b      	ldr	r3, [r7, #4]
 8003c92:	681b      	ldr	r3, [r3, #0]
 8003c94:	68db      	ldr	r3, [r3, #12]
 8003c96:	2240      	movs	r2, #64	; 0x40
 8003c98:	4013      	ands	r3, r2
 8003c9a:	2b40      	cmp	r3, #64	; 0x40
 8003c9c:	d108      	bne.n	8003cb0 <HAL_TIM_IRQHandler+0x1c8>
    {
      __HAL_TIM_CLEAR_IT(htim, TIM_IT_TRIGGER);
 8003c9e:	687b      	ldr	r3, [r7, #4]
 8003ca0:	681b      	ldr	r3, [r3, #0]
 8003ca2:	2241      	movs	r2, #65	; 0x41
 8003ca4:	4252      	negs	r2, r2
 8003ca6:	611a      	str	r2, [r3, #16]
#if (USE_HAL_TIM_REGISTER_CALLBACKS == 1)
      htim->TriggerCallback(htim);
#else
      HAL_TIM_TriggerCallback(htim);
 8003ca8:	687b      	ldr	r3, [r7, #4]
 8003caa:	0018      	movs	r0, r3
 8003cac:	f000 f9b6 	bl	800401c <HAL_TIM_TriggerCallback>
#endif /* USE_HAL_TIM_REGISTER_CALLBACKS */
    }
  }
}
 8003cb0:	46c0      	nop			; (mov r8, r8)
 8003cb2:	46bd      	mov	sp, r7
 8003cb4:	b002      	add	sp, #8
 8003cb6:	bd80      	pop	{r7, pc}

08003cb8 <HAL_TIM_PWM_ConfigChannel>:
  * @retval HAL status
  */
HAL_StatusTypeDef HAL_TIM_PWM_ConfigChannel(TIM_HandleTypeDef *htim,
                                            TIM_OC_InitTypeDef *sConfig,
                                            uint32_t Channel)
{
 8003cb8:	b580      	push	{r7, lr}
 8003cba:	b086      	sub	sp, #24
 8003cbc:	af00      	add	r7, sp, #0
 8003cbe:	60f8      	str	r0, [r7, #12]
 8003cc0:	60b9      	str	r1, [r7, #8]
 8003cc2:	607a      	str	r2, [r7, #4]
  HAL_StatusTypeDef status = HAL_OK;
 8003cc4:	2317      	movs	r3, #23
 8003cc6:	18fb      	adds	r3, r7, r3
 8003cc8:	2200      	movs	r2, #0
 8003cca:	701a      	strb	r2, [r3, #0]
  assert_param(IS_TIM_PWM_MODE(sConfig->OCMode));
  assert_param(IS_TIM_OC_POLARITY(sConfig->OCPolarity));
  assert_param(IS_TIM_FAST_STATE(sConfig->OCFastMode));

  /* Process Locked */
  __HAL_LOCK(htim);
 8003ccc:	68fb      	ldr	r3, [r7, #12]
 8003cce:	2238      	movs	r2, #56	; 0x38
 8003cd0:	5c9b      	ldrb	r3, [r3, r2]
 8003cd2:	2b01      	cmp	r3, #1
 8003cd4:	d101      	bne.n	8003cda <HAL_TIM_PWM_ConfigChannel+0x22>
 8003cd6:	2302      	movs	r3, #2
 8003cd8:	e0ad      	b.n	8003e36 <HAL_TIM_PWM_ConfigChannel+0x17e>
 8003cda:	68fb      	ldr	r3, [r7, #12]
 8003cdc:	2238      	movs	r2, #56	; 0x38
 8003cde:	2101      	movs	r1, #1
 8003ce0:	5499      	strb	r1, [r3, r2]

  switch (Channel)
 8003ce2:	687b      	ldr	r3, [r7, #4]
 8003ce4:	2b0c      	cmp	r3, #12
 8003ce6:	d100      	bne.n	8003cea <HAL_TIM_PWM_ConfigChannel+0x32>
 8003ce8:	e076      	b.n	8003dd8 <HAL_TIM_PWM_ConfigChannel+0x120>
 8003cea:	687b      	ldr	r3, [r7, #4]
 8003cec:	2b0c      	cmp	r3, #12
 8003cee:	d900      	bls.n	8003cf2 <HAL_TIM_PWM_ConfigChannel+0x3a>
 8003cf0:	e095      	b.n	8003e1e <HAL_TIM_PWM_ConfigChannel+0x166>
 8003cf2:	687b      	ldr	r3, [r7, #4]
 8003cf4:	2b08      	cmp	r3, #8
 8003cf6:	d04e      	beq.n	8003d96 <HAL_TIM_PWM_ConfigChannel+0xde>
 8003cf8:	687b      	ldr	r3, [r7, #4]
 8003cfa:	2b08      	cmp	r3, #8
 8003cfc:	d900      	bls.n	8003d00 <HAL_TIM_PWM_ConfigChannel+0x48>
 8003cfe:	e08e      	b.n	8003e1e <HAL_TIM_PWM_ConfigChannel+0x166>
 8003d00:	687b      	ldr	r3, [r7, #4]
 8003d02:	2b00      	cmp	r3, #0
 8003d04:	d003      	beq.n	8003d0e <HAL_TIM_PWM_ConfigChannel+0x56>
 8003d06:	687b      	ldr	r3, [r7, #4]
 8003d08:	2b04      	cmp	r3, #4
 8003d0a:	d021      	beq.n	8003d50 <HAL_TIM_PWM_ConfigChannel+0x98>
 8003d0c:	e087      	b.n	8003e1e <HAL_TIM_PWM_ConfigChannel+0x166>
    {
      /* Check the parameters */
      assert_param(IS_TIM_CC1_INSTANCE(htim->Instance));

      /* Configure the Channel 1 in PWM mode */
      TIM_OC1_SetConfig(htim->Instance, sConfig);
 8003d0e:	68fb      	ldr	r3, [r7, #12]
 8003d10:	681b      	ldr	r3, [r3, #0]
 8003d12:	68ba      	ldr	r2, [r7, #8]
 8003d14:	0011      	movs	r1, r2
 8003d16:	0018      	movs	r0, r3
 8003d18:	f000 f9e6 	bl	80040e8 <TIM_OC1_SetConfig>

      /* Set the Preload enable bit for channel1 */
      htim->Instance->CCMR1 |= TIM_CCMR1_OC1PE;
 8003d1c:	68fb      	ldr	r3, [r7, #12]
 8003d1e:	681b      	ldr	r3, [r3, #0]
 8003d20:	699a      	ldr	r2, [r3, #24]
 8003d22:	68fb      	ldr	r3, [r7, #12]
 8003d24:	681b      	ldr	r3, [r3, #0]
 8003d26:	2108      	movs	r1, #8
 8003d28:	430a      	orrs	r2, r1
 8003d2a:	619a      	str	r2, [r3, #24]

      /* Configure the Output Fast mode */
      htim->Instance->CCMR1 &= ~TIM_CCMR1_OC1FE;
 8003d2c:	68fb      	ldr	r3, [r7, #12]
 8003d2e:	681b      	ldr	r3, [r3, #0]
 8003d30:	699a      	ldr	r2, [r3, #24]
 8003d32:	68fb      	ldr	r3, [r7, #12]
 8003d34:	681b      	ldr	r3, [r3, #0]
 8003d36:	2104      	movs	r1, #4
 8003d38:	438a      	bics	r2, r1
 8003d3a:	619a      	str	r2, [r3, #24]
      htim->Instance->CCMR1 |= sConfig->OCFastMode;
 8003d3c:	68fb      	ldr	r3, [r7, #12]
 8003d3e:	681b      	ldr	r3, [r3, #0]
 8003d40:	6999      	ldr	r1, [r3, #24]
 8003d42:	68bb      	ldr	r3, [r7, #8]
 8003d44:	68da      	ldr	r2, [r3, #12]
 8003d46:	68fb      	ldr	r3, [r7, #12]
 8003d48:	681b      	ldr	r3, [r3, #0]
 8003d4a:	430a      	orrs	r2, r1
 8003d4c:	619a      	str	r2, [r3, #24]
      break;
 8003d4e:	e06b      	b.n	8003e28 <HAL_TIM_PWM_ConfigChannel+0x170>
    {
      /* Check the parameters */
      assert_param(IS_TIM_CC2_INSTANCE(htim->Instance));

      /* Configure the Channel 2 in PWM mode */
      TIM_OC2_SetConfig(htim->Instance, sConfig);
 8003d50:	68fb      	ldr	r3, [r7, #12]
 8003d52:	681b      	ldr	r3, [r3, #0]
 8003d54:	68ba      	ldr	r2, [r7, #8]
 8003d56:	0011      	movs	r1, r2
 8003d58:	0018      	movs	r0, r3
 8003d5a:	f000 fa01 	bl	8004160 <TIM_OC2_SetConfig>

      /* Set the Preload enable bit for channel2 */
      htim->Instance->CCMR1 |= TIM_CCMR1_OC2PE;
 8003d5e:	68fb      	ldr	r3, [r7, #12]
 8003d60:	681b      	ldr	r3, [r3, #0]
 8003d62:	699a      	ldr	r2, [r3, #24]
 8003d64:	68fb      	ldr	r3, [r7, #12]
 8003d66:	681b      	ldr	r3, [r3, #0]
 8003d68:	2180      	movs	r1, #128	; 0x80
 8003d6a:	0109      	lsls	r1, r1, #4
 8003d6c:	430a      	orrs	r2, r1
 8003d6e:	619a      	str	r2, [r3, #24]

      /* Configure the Output Fast mode */
      htim->Instance->CCMR1 &= ~TIM_CCMR1_OC2FE;
 8003d70:	68fb      	ldr	r3, [r7, #12]
 8003d72:	681b      	ldr	r3, [r3, #0]
 8003d74:	699a      	ldr	r2, [r3, #24]
 8003d76:	68fb      	ldr	r3, [r7, #12]
 8003d78:	681b      	ldr	r3, [r3, #0]
 8003d7a:	4931      	ldr	r1, [pc, #196]	; (8003e40 <HAL_TIM_PWM_ConfigChannel+0x188>)
 8003d7c:	400a      	ands	r2, r1
 8003d7e:	619a      	str	r2, [r3, #24]
      htim->Instance->CCMR1 |= sConfig->OCFastMode << 8U;
 8003d80:	68fb      	ldr	r3, [r7, #12]
 8003d82:	681b      	ldr	r3, [r3, #0]
 8003d84:	6999      	ldr	r1, [r3, #24]
 8003d86:	68bb      	ldr	r3, [r7, #8]
 8003d88:	68db      	ldr	r3, [r3, #12]
 8003d8a:	021a      	lsls	r2, r3, #8
 8003d8c:	68fb      	ldr	r3, [r7, #12]
 8003d8e:	681b      	ldr	r3, [r3, #0]
 8003d90:	430a      	orrs	r2, r1
 8003d92:	619a      	str	r2, [r3, #24]
      break;
 8003d94:	e048      	b.n	8003e28 <HAL_TIM_PWM_ConfigChannel+0x170>
    {
      /* Check the parameters */
      assert_param(IS_TIM_CC3_INSTANCE(htim->Instance));

      /* Configure the Channel 3 in PWM mode */
      TIM_OC3_SetConfig(htim->Instance, sConfig);
 8003d96:	68fb      	ldr	r3, [r7, #12]
 8003d98:	681b      	ldr	r3, [r3, #0]
 8003d9a:	68ba      	ldr	r2, [r7, #8]
 8003d9c:	0011      	movs	r1, r2
 8003d9e:	0018      	movs	r0, r3
 8003da0:	f000 fa20 	bl	80041e4 <TIM_OC3_SetConfig>

      /* Set the Preload enable bit for channel3 */
      htim->Instance->CCMR2 |= TIM_CCMR2_OC3PE;
 8003da4:	68fb      	ldr	r3, [r7, #12]
 8003da6:	681b      	ldr	r3, [r3, #0]
 8003da8:	69da      	ldr	r2, [r3, #28]
 8003daa:	68fb      	ldr	r3, [r7, #12]
 8003dac:	681b      	ldr	r3, [r3, #0]
 8003dae:	2108      	movs	r1, #8
 8003db0:	430a      	orrs	r2, r1
 8003db2:	61da      	str	r2, [r3, #28]

      /* Configure the Output Fast mode */
      htim->Instance->CCMR2 &= ~TIM_CCMR2_OC3FE;
 8003db4:	68fb      	ldr	r3, [r7, #12]
 8003db6:	681b      	ldr	r3, [r3, #0]
 8003db8:	69da      	ldr	r2, [r3, #28]
 8003dba:	68fb      	ldr	r3, [r7, #12]
 8003dbc:	681b      	ldr	r3, [r3, #0]
 8003dbe:	2104      	movs	r1, #4
 8003dc0:	438a      	bics	r2, r1
 8003dc2:	61da      	str	r2, [r3, #28]
      htim->Instance->CCMR2 |= sConfig->OCFastMode;
 8003dc4:	68fb      	ldr	r3, [r7, #12]
 8003dc6:	681b      	ldr	r3, [r3, #0]
 8003dc8:	69d9      	ldr	r1, [r3, #28]
 8003dca:	68bb      	ldr	r3, [r7, #8]
 8003dcc:	68da      	ldr	r2, [r3, #12]
 8003dce:	68fb      	ldr	r3, [r7, #12]
 8003dd0:	681b      	ldr	r3, [r3, #0]
 8003dd2:	430a      	orrs	r2, r1
 8003dd4:	61da      	str	r2, [r3, #28]
      break;
 8003dd6:	e027      	b.n	8003e28 <HAL_TIM_PWM_ConfigChannel+0x170>
    {
      /* Check the parameters */
      assert_param(IS_TIM_CC4_INSTANCE(htim->Instance));

      /* Configure the Channel 4 in PWM mode */
      TIM_OC4_SetConfig(htim->Instance, sConfig);
 8003dd8:	68fb      	ldr	r3, [r7, #12]
 8003dda:	681b      	ldr	r3, [r3, #0]
 8003ddc:	68ba      	ldr	r2, [r7, #8]
 8003dde:	0011      	movs	r1, r2
 8003de0:	0018      	movs	r0, r3
 8003de2:	f000 fa3f 	bl	8004264 <TIM_OC4_SetConfig>

      /* Set the Preload enable bit for channel4 */
      htim->Instance->CCMR2 |= TIM_CCMR2_OC4PE;
 8003de6:	68fb      	ldr	r3, [r7, #12]
 8003de8:	681b      	ldr	r3, [r3, #0]
 8003dea:	69da      	ldr	r2, [r3, #28]
 8003dec:	68fb      	ldr	r3, [r7, #12]
 8003dee:	681b      	ldr	r3, [r3, #0]
 8003df0:	2180      	movs	r1, #128	; 0x80
 8003df2:	0109      	lsls	r1, r1, #4
 8003df4:	430a      	orrs	r2, r1
 8003df6:	61da      	str	r2, [r3, #28]

      /* Configure the Output Fast mode */
      htim->Instance->CCMR2 &= ~TIM_CCMR2_OC4FE;
 8003df8:	68fb      	ldr	r3, [r7, #12]
 8003dfa:	681b      	ldr	r3, [r3, #0]
 8003dfc:	69da      	ldr	r2, [r3, #28]
 8003dfe:	68fb      	ldr	r3, [r7, #12]
 8003e00:	681b      	ldr	r3, [r3, #0]
 8003e02:	490f      	ldr	r1, [pc, #60]	; (8003e40 <HAL_TIM_PWM_ConfigChannel+0x188>)
 8003e04:	400a      	ands	r2, r1
 8003e06:	61da      	str	r2, [r3, #28]
      htim->Instance->CCMR2 |= sConfig->OCFastMode << 8U;
 8003e08:	68fb      	ldr	r3, [r7, #12]
 8003e0a:	681b      	ldr	r3, [r3, #0]
 8003e0c:	69d9      	ldr	r1, [r3, #28]
 8003e0e:	68bb      	ldr	r3, [r7, #8]
 8003e10:	68db      	ldr	r3, [r3, #12]
 8003e12:	021a      	lsls	r2, r3, #8
 8003e14:	68fb      	ldr	r3, [r7, #12]
 8003e16:	681b      	ldr	r3, [r3, #0]
 8003e18:	430a      	orrs	r2, r1
 8003e1a:	61da      	str	r2, [r3, #28]
      break;
 8003e1c:	e004      	b.n	8003e28 <HAL_TIM_PWM_ConfigChannel+0x170>
    }

    default:
      status = HAL_ERROR;
 8003e1e:	2317      	movs	r3, #23
 8003e20:	18fb      	adds	r3, r7, r3
 8003e22:	2201      	movs	r2, #1
 8003e24:	701a      	strb	r2, [r3, #0]
      break;
 8003e26:	46c0      	nop			; (mov r8, r8)
  }

  __HAL_UNLOCK(htim);
 8003e28:	68fb      	ldr	r3, [r7, #12]
 8003e2a:	2238      	movs	r2, #56	; 0x38
 8003e2c:	2100      	movs	r1, #0
 8003e2e:	5499      	strb	r1, [r3, r2]

  return status;
 8003e30:	2317      	movs	r3, #23
 8003e32:	18fb      	adds	r3, r7, r3
 8003e34:	781b      	ldrb	r3, [r3, #0]
}
 8003e36:	0018      	movs	r0, r3
 8003e38:	46bd      	mov	sp, r7
 8003e3a:	b006      	add	sp, #24
 8003e3c:	bd80      	pop	{r7, pc}
 8003e3e:	46c0      	nop			; (mov r8, r8)
 8003e40:	fffffbff 	.word	0xfffffbff

08003e44 <HAL_TIM_ConfigClockSource>:
  * @param  sClockSourceConfig pointer to a TIM_ClockConfigTypeDef structure that
  *         contains the clock source information for the TIM peripheral.
  * @retval HAL status
  */
HAL_StatusTypeDef HAL_TIM_ConfigClockSource(TIM_HandleTypeDef *htim, TIM_ClockConfigTypeDef *sClockSourceConfig)
{
 8003e44:	b580      	push	{r7, lr}
 8003e46:	b084      	sub	sp, #16
 8003e48:	af00      	add	r7, sp, #0
 8003e4a:	6078      	str	r0, [r7, #4]
 8003e4c:	6039      	str	r1, [r7, #0]
  HAL_StatusTypeDef status = HAL_OK;
 8003e4e:	230f      	movs	r3, #15
 8003e50:	18fb      	adds	r3, r7, r3
 8003e52:	2200      	movs	r2, #0
 8003e54:	701a      	strb	r2, [r3, #0]
  uint32_t tmpsmcr;

  /* Process Locked */
  __HAL_LOCK(htim);
 8003e56:	687b      	ldr	r3, [r7, #4]
 8003e58:	2238      	movs	r2, #56	; 0x38
 8003e5a:	5c9b      	ldrb	r3, [r3, r2]
 8003e5c:	2b01      	cmp	r3, #1
 8003e5e:	d101      	bne.n	8003e64 <HAL_TIM_ConfigClockSource+0x20>
 8003e60:	2302      	movs	r3, #2
 8003e62:	e0bc      	b.n	8003fde <HAL_TIM_ConfigClockSource+0x19a>
 8003e64:	687b      	ldr	r3, [r7, #4]
 8003e66:	2238      	movs	r2, #56	; 0x38
 8003e68:	2101      	movs	r1, #1
 8003e6a:	5499      	strb	r1, [r3, r2]

  htim->State = HAL_TIM_STATE_BUSY;
 8003e6c:	687b      	ldr	r3, [r7, #4]
 8003e6e:	2239      	movs	r2, #57	; 0x39
 8003e70:	2102      	movs	r1, #2
 8003e72:	5499      	strb	r1, [r3, r2]

  /* Check the parameters */
  assert_param(IS_TIM_CLOCKSOURCE(sClockSourceConfig->ClockSource));

  /* Reset the SMS, TS, ECE, ETPS and ETRF bits */
  tmpsmcr = htim->Instance->SMCR;
 8003e74:	687b      	ldr	r3, [r7, #4]
 8003e76:	681b      	ldr	r3, [r3, #0]
 8003e78:	689b      	ldr	r3, [r3, #8]
 8003e7a:	60bb      	str	r3, [r7, #8]
  tmpsmcr &= ~(TIM_SMCR_SMS | TIM_SMCR_TS);
 8003e7c:	68bb      	ldr	r3, [r7, #8]
 8003e7e:	2277      	movs	r2, #119	; 0x77
 8003e80:	4393      	bics	r3, r2
 8003e82:	60bb      	str	r3, [r7, #8]
  tmpsmcr &= ~(TIM_SMCR_ETF | TIM_SMCR_ETPS | TIM_SMCR_ECE | TIM_SMCR_ETP);
 8003e84:	68bb      	ldr	r3, [r7, #8]
 8003e86:	4a58      	ldr	r2, [pc, #352]	; (8003fe8 <HAL_TIM_ConfigClockSource+0x1a4>)
 8003e88:	4013      	ands	r3, r2
 8003e8a:	60bb      	str	r3, [r7, #8]
  htim->Instance->SMCR = tmpsmcr;
 8003e8c:	687b      	ldr	r3, [r7, #4]
 8003e8e:	681b      	ldr	r3, [r3, #0]
 8003e90:	68ba      	ldr	r2, [r7, #8]
 8003e92:	609a      	str	r2, [r3, #8]

  switch (sClockSourceConfig->ClockSource)
 8003e94:	683b      	ldr	r3, [r7, #0]
 8003e96:	681b      	ldr	r3, [r3, #0]
 8003e98:	2280      	movs	r2, #128	; 0x80
 8003e9a:	0192      	lsls	r2, r2, #6
 8003e9c:	4293      	cmp	r3, r2
 8003e9e:	d040      	beq.n	8003f22 <HAL_TIM_ConfigClockSource+0xde>
 8003ea0:	2280      	movs	r2, #128	; 0x80
 8003ea2:	0192      	lsls	r2, r2, #6
 8003ea4:	4293      	cmp	r3, r2
 8003ea6:	d900      	bls.n	8003eaa <HAL_TIM_ConfigClockSource+0x66>
 8003ea8:	e088      	b.n	8003fbc <HAL_TIM_ConfigClockSource+0x178>
 8003eaa:	2280      	movs	r2, #128	; 0x80
 8003eac:	0152      	lsls	r2, r2, #5
 8003eae:	4293      	cmp	r3, r2
 8003eb0:	d100      	bne.n	8003eb4 <HAL_TIM_ConfigClockSource+0x70>
 8003eb2:	e088      	b.n	8003fc6 <HAL_TIM_ConfigClockSource+0x182>
 8003eb4:	2280      	movs	r2, #128	; 0x80
 8003eb6:	0152      	lsls	r2, r2, #5
 8003eb8:	4293      	cmp	r3, r2
 8003eba:	d900      	bls.n	8003ebe <HAL_TIM_ConfigClockSource+0x7a>
 8003ebc:	e07e      	b.n	8003fbc <HAL_TIM_ConfigClockSource+0x178>
 8003ebe:	2b70      	cmp	r3, #112	; 0x70
 8003ec0:	d018      	beq.n	8003ef4 <HAL_TIM_ConfigClockSource+0xb0>
 8003ec2:	d900      	bls.n	8003ec6 <HAL_TIM_ConfigClockSource+0x82>
 8003ec4:	e07a      	b.n	8003fbc <HAL_TIM_ConfigClockSource+0x178>
 8003ec6:	2b60      	cmp	r3, #96	; 0x60
 8003ec8:	d04f      	beq.n	8003f6a <HAL_TIM_ConfigClockSource+0x126>
 8003eca:	d900      	bls.n	8003ece <HAL_TIM_ConfigClockSource+0x8a>
 8003ecc:	e076      	b.n	8003fbc <HAL_TIM_ConfigClockSource+0x178>
 8003ece:	2b50      	cmp	r3, #80	; 0x50
 8003ed0:	d03b      	beq.n	8003f4a <HAL_TIM_ConfigClockSource+0x106>
 8003ed2:	d900      	bls.n	8003ed6 <HAL_TIM_ConfigClockSource+0x92>
 8003ed4:	e072      	b.n	8003fbc <HAL_TIM_ConfigClockSource+0x178>
 8003ed6:	2b40      	cmp	r3, #64	; 0x40
 8003ed8:	d057      	beq.n	8003f8a <HAL_TIM_ConfigClockSource+0x146>
 8003eda:	d900      	bls.n	8003ede <HAL_TIM_ConfigClockSource+0x9a>
 8003edc:	e06e      	b.n	8003fbc <HAL_TIM_ConfigClockSource+0x178>
 8003ede:	2b30      	cmp	r3, #48	; 0x30
 8003ee0:	d063      	beq.n	8003faa <HAL_TIM_ConfigClockSource+0x166>
 8003ee2:	d86b      	bhi.n	8003fbc <HAL_TIM_ConfigClockSource+0x178>
 8003ee4:	2b20      	cmp	r3, #32
 8003ee6:	d060      	beq.n	8003faa <HAL_TIM_ConfigClockSource+0x166>
 8003ee8:	d868      	bhi.n	8003fbc <HAL_TIM_ConfigClockSource+0x178>
 8003eea:	2b00      	cmp	r3, #0
 8003eec:	d05d      	beq.n	8003faa <HAL_TIM_ConfigClockSource+0x166>
 8003eee:	2b10      	cmp	r3, #16
 8003ef0:	d05b      	beq.n	8003faa <HAL_TIM_ConfigClockSource+0x166>
 8003ef2:	e063      	b.n	8003fbc <HAL_TIM_ConfigClockSource+0x178>
      assert_param(IS_TIM_CLOCKPRESCALER(sClockSourceConfig->ClockPrescaler));
      assert_param(IS_TIM_CLOCKPOLARITY(sClockSourceConfig->ClockPolarity));
      assert_param(IS_TIM_CLOCKFILTER(sClockSourceConfig->ClockFilter));

      /* Configure the ETR Clock source */
      TIM_ETR_SetConfig(htim->Instance,
 8003ef4:	687b      	ldr	r3, [r7, #4]
 8003ef6:	6818      	ldr	r0, [r3, #0]
 8003ef8:	683b      	ldr	r3, [r7, #0]
 8003efa:	6899      	ldr	r1, [r3, #8]
 8003efc:	683b      	ldr	r3, [r7, #0]
 8003efe:	685a      	ldr	r2, [r3, #4]
 8003f00:	683b      	ldr	r3, [r7, #0]
 8003f02:	68db      	ldr	r3, [r3, #12]
 8003f04:	f000 fa6e 	bl	80043e4 <TIM_ETR_SetConfig>
                        sClockSourceConfig->ClockPrescaler,
                        sClockSourceConfig->ClockPolarity,
                        sClockSourceConfig->ClockFilter);

      /* Select the External clock mode1 and the ETRF trigger */
      tmpsmcr = htim->Instance->SMCR;
 8003f08:	687b      	ldr	r3, [r7, #4]
 8003f0a:	681b      	ldr	r3, [r3, #0]
 8003f0c:	689b      	ldr	r3, [r3, #8]
 8003f0e:	60bb      	str	r3, [r7, #8]
      tmpsmcr |= (TIM_SLAVEMODE_EXTERNAL1 | TIM_CLOCKSOURCE_ETRMODE1);
 8003f10:	68bb      	ldr	r3, [r7, #8]
 8003f12:	2277      	movs	r2, #119	; 0x77
 8003f14:	4313      	orrs	r3, r2
 8003f16:	60bb      	str	r3, [r7, #8]
      /* Write to TIMx SMCR */
      htim->Instance->SMCR = tmpsmcr;
 8003f18:	687b      	ldr	r3, [r7, #4]
 8003f1a:	681b      	ldr	r3, [r3, #0]
 8003f1c:	68ba      	ldr	r2, [r7, #8]
 8003f1e:	609a      	str	r2, [r3, #8]
      break;
 8003f20:	e052      	b.n	8003fc8 <HAL_TIM_ConfigClockSource+0x184>
      assert_param(IS_TIM_CLOCKPRESCALER(sClockSourceConfig->ClockPrescaler));
      assert_param(IS_TIM_CLOCKPOLARITY(sClockSourceConfig->ClockPolarity));
      assert_param(IS_TIM_CLOCKFILTER(sClockSourceConfig->ClockFilter));

      /* Configure the ETR Clock source */
      TIM_ETR_SetConfig(htim->Instance,
 8003f22:	687b      	ldr	r3, [r7, #4]
 8003f24:	6818      	ldr	r0, [r3, #0]
 8003f26:	683b      	ldr	r3, [r7, #0]
 8003f28:	6899      	ldr	r1, [r3, #8]
 8003f2a:	683b      	ldr	r3, [r7, #0]
 8003f2c:	685a      	ldr	r2, [r3, #4]
 8003f2e:	683b      	ldr	r3, [r7, #0]
 8003f30:	68db      	ldr	r3, [r3, #12]
 8003f32:	f000 fa57 	bl	80043e4 <TIM_ETR_SetConfig>
                        sClockSourceConfig->ClockPrescaler,
                        sClockSourceConfig->ClockPolarity,
                        sClockSourceConfig->ClockFilter);
      /* Enable the External clock mode2 */
      htim->Instance->SMCR |= TIM_SMCR_ECE;
 8003f36:	687b      	ldr	r3, [r7, #4]
 8003f38:	681b      	ldr	r3, [r3, #0]
 8003f3a:	689a      	ldr	r2, [r3, #8]
 8003f3c:	687b      	ldr	r3, [r7, #4]
 8003f3e:	681b      	ldr	r3, [r3, #0]
 8003f40:	2180      	movs	r1, #128	; 0x80
 8003f42:	01c9      	lsls	r1, r1, #7
 8003f44:	430a      	orrs	r2, r1
 8003f46:	609a      	str	r2, [r3, #8]
      break;
 8003f48:	e03e      	b.n	8003fc8 <HAL_TIM_ConfigClockSource+0x184>

      /* Check TI1 input conditioning related parameters */
      assert_param(IS_TIM_CLOCKPOLARITY(sClockSourceConfig->ClockPolarity));
      assert_param(IS_TIM_CLOCKFILTER(sClockSourceConfig->ClockFilter));

      TIM_TI1_ConfigInputStage(htim->Instance,
 8003f4a:	687b      	ldr	r3, [r7, #4]
 8003f4c:	6818      	ldr	r0, [r3, #0]
 8003f4e:	683b      	ldr	r3, [r7, #0]
 8003f50:	6859      	ldr	r1, [r3, #4]
 8003f52:	683b      	ldr	r3, [r7, #0]
 8003f54:	68db      	ldr	r3, [r3, #12]
 8003f56:	001a      	movs	r2, r3
 8003f58:	f000 f9ca 	bl	80042f0 <TIM_TI1_ConfigInputStage>
                               sClockSourceConfig->ClockPolarity,
                               sClockSourceConfig->ClockFilter);
      TIM_ITRx_SetConfig(htim->Instance, TIM_CLOCKSOURCE_TI1);
 8003f5c:	687b      	ldr	r3, [r7, #4]
 8003f5e:	681b      	ldr	r3, [r3, #0]
 8003f60:	2150      	movs	r1, #80	; 0x50
 8003f62:	0018      	movs	r0, r3
 8003f64:	f000 fa24 	bl	80043b0 <TIM_ITRx_SetConfig>
      break;
 8003f68:	e02e      	b.n	8003fc8 <HAL_TIM_ConfigClockSource+0x184>

      /* Check TI2 input conditioning related parameters */
      assert_param(IS_TIM_CLOCKPOLARITY(sClockSourceConfig->ClockPolarity));
      assert_param(IS_TIM_CLOCKFILTER(sClockSourceConfig->ClockFilter));

      TIM_TI2_ConfigInputStage(htim->Instance,
 8003f6a:	687b      	ldr	r3, [r7, #4]
 8003f6c:	6818      	ldr	r0, [r3, #0]
 8003f6e:	683b      	ldr	r3, [r7, #0]
 8003f70:	6859      	ldr	r1, [r3, #4]
 8003f72:	683b      	ldr	r3, [r7, #0]
 8003f74:	68db      	ldr	r3, [r3, #12]
 8003f76:	001a      	movs	r2, r3
 8003f78:	f000 f9e8 	bl	800434c <TIM_TI2_ConfigInputStage>
                               sClockSourceConfig->ClockPolarity,
                               sClockSourceConfig->ClockFilter);
      TIM_ITRx_SetConfig(htim->Instance, TIM_CLOCKSOURCE_TI2);
 8003f7c:	687b      	ldr	r3, [r7, #4]
 8003f7e:	681b      	ldr	r3, [r3, #0]
 8003f80:	2160      	movs	r1, #96	; 0x60
 8003f82:	0018      	movs	r0, r3
 8003f84:	f000 fa14 	bl	80043b0 <TIM_ITRx_SetConfig>
      break;
 8003f88:	e01e      	b.n	8003fc8 <HAL_TIM_ConfigClockSource+0x184>

      /* Check TI1 input conditioning related parameters */
      assert_param(IS_TIM_CLOCKPOLARITY(sClockSourceConfig->ClockPolarity));
      assert_param(IS_TIM_CLOCKFILTER(sClockSourceConfig->ClockFilter));

      TIM_TI1_ConfigInputStage(htim->Instance,
 8003f8a:	687b      	ldr	r3, [r7, #4]
 8003f8c:	6818      	ldr	r0, [r3, #0]
 8003f8e:	683b      	ldr	r3, [r7, #0]
 8003f90:	6859      	ldr	r1, [r3, #4]
 8003f92:	683b      	ldr	r3, [r7, #0]
 8003f94:	68db      	ldr	r3, [r3, #12]
 8003f96:	001a      	movs	r2, r3
 8003f98:	f000 f9aa 	bl	80042f0 <TIM_TI1_ConfigInputStage>
                               sClockSourceConfig->ClockPolarity,
                               sClockSourceConfig->ClockFilter);
      TIM_ITRx_SetConfig(htim->Instance, TIM_CLOCKSOURCE_TI1ED);
 8003f9c:	687b      	ldr	r3, [r7, #4]
 8003f9e:	681b      	ldr	r3, [r3, #0]
 8003fa0:	2140      	movs	r1, #64	; 0x40
 8003fa2:	0018      	movs	r0, r3
 8003fa4:	f000 fa04 	bl	80043b0 <TIM_ITRx_SetConfig>
      break;
 8003fa8:	e00e      	b.n	8003fc8 <HAL_TIM_ConfigClockSource+0x184>
    case TIM_CLOCKSOURCE_ITR3:
    {
      /* Check whether or not the timer instance supports internal trigger input */
      assert_param(IS_TIM_CLOCKSOURCE_ITRX_INSTANCE(htim->Instance));

      TIM_ITRx_SetConfig(htim->Instance, sClockSourceConfig->ClockSource);
 8003faa:	687b      	ldr	r3, [r7, #4]
 8003fac:	681a      	ldr	r2, [r3, #0]
 8003fae:	683b      	ldr	r3, [r7, #0]
 8003fb0:	681b      	ldr	r3, [r3, #0]
 8003fb2:	0019      	movs	r1, r3
 8003fb4:	0010      	movs	r0, r2
 8003fb6:	f000 f9fb 	bl	80043b0 <TIM_ITRx_SetConfig>
      break;
 8003fba:	e005      	b.n	8003fc8 <HAL_TIM_ConfigClockSource+0x184>
    }

    default:
      status = HAL_ERROR;
 8003fbc:	230f      	movs	r3, #15
 8003fbe:	18fb      	adds	r3, r7, r3
 8003fc0:	2201      	movs	r2, #1
 8003fc2:	701a      	strb	r2, [r3, #0]
      break;
 8003fc4:	e000      	b.n	8003fc8 <HAL_TIM_ConfigClockSource+0x184>
      break;
 8003fc6:	46c0      	nop			; (mov r8, r8)
  }
  htim->State = HAL_TIM_STATE_READY;
 8003fc8:	687b      	ldr	r3, [r7, #4]
 8003fca:	2239      	movs	r2, #57	; 0x39
 8003fcc:	2101      	movs	r1, #1
 8003fce:	5499      	strb	r1, [r3, r2]

  __HAL_UNLOCK(htim);
 8003fd0:	687b      	ldr	r3, [r7, #4]
 8003fd2:	2238      	movs	r2, #56	; 0x38
 8003fd4:	2100      	movs	r1, #0
 8003fd6:	5499      	strb	r1, [r3, r2]

  return status;
 8003fd8:	230f      	movs	r3, #15
 8003fda:	18fb      	adds	r3, r7, r3
 8003fdc:	781b      	ldrb	r3, [r3, #0]
}
 8003fde:	0018      	movs	r0, r3
 8003fe0:	46bd      	mov	sp, r7
 8003fe2:	b004      	add	sp, #16
 8003fe4:	bd80      	pop	{r7, pc}
 8003fe6:	46c0      	nop			; (mov r8, r8)
 8003fe8:	ffff00ff 	.word	0xffff00ff

08003fec <HAL_TIM_OC_DelayElapsedCallback>:
  * @brief  Output Compare callback in non-blocking mode
  * @param  htim TIM OC handle
  * @retval None
  */
__weak void HAL_TIM_OC_DelayElapsedCallback(TIM_HandleTypeDef *htim)
{
 8003fec:	b580      	push	{r7, lr}
 8003fee:	b082      	sub	sp, #8
 8003ff0:	af00      	add	r7, sp, #0
 8003ff2:	6078      	str	r0, [r7, #4]
  UNUSED(htim);

  /* NOTE : This function should not be modified, when the callback is needed,
            the HAL_TIM_OC_DelayElapsedCallback could be implemented in the user file
   */
}
 8003ff4:	46c0      	nop			; (mov r8, r8)
 8003ff6:	46bd      	mov	sp, r7
 8003ff8:	b002      	add	sp, #8
 8003ffa:	bd80      	pop	{r7, pc}

08003ffc <HAL_TIM_IC_CaptureCallback>:
  * @brief  Input Capture callback in non-blocking mode
  * @param  htim TIM IC handle
  * @retval None
  */
__weak void HAL_TIM_IC_CaptureCallback(TIM_HandleTypeDef *htim)
{
 8003ffc:	b580      	push	{r7, lr}
 8003ffe:	b082      	sub	sp, #8
 8004000:	af00      	add	r7, sp, #0
 8004002:	6078      	str	r0, [r7, #4]
  UNUSED(htim);

  /* NOTE : This function should not be modified, when the callback is needed,
            the HAL_TIM_IC_CaptureCallback could be implemented in the user file
   */
}
 8004004:	46c0      	nop			; (mov r8, r8)
 8004006:	46bd      	mov	sp, r7
 8004008:	b002      	add	sp, #8
 800400a:	bd80      	pop	{r7, pc}

0800400c <HAL_TIM_PWM_PulseFinishedCallback>:
  * @brief  PWM Pulse finished callback in non-blocking mode
  * @param  htim TIM handle
  * @retval None
  */
__weak void HAL_TIM_PWM_PulseFinishedCallback(TIM_HandleTypeDef *htim)
{
 800400c:	b580      	push	{r7, lr}
 800400e:	b082      	sub	sp, #8
 8004010:	af00      	add	r7, sp, #0
 8004012:	6078      	str	r0, [r7, #4]
  UNUSED(htim);

  /* NOTE : This function should not be modified, when the callback is needed,
            the HAL_TIM_PWM_PulseFinishedCallback could be implemented in the user file
   */
}
 8004014:	46c0      	nop			; (mov r8, r8)
 8004016:	46bd      	mov	sp, r7
 8004018:	b002      	add	sp, #8
 800401a:	bd80      	pop	{r7, pc}

0800401c <HAL_TIM_TriggerCallback>:
  * @brief  Hall Trigger detection callback in non-blocking mode
  * @param  htim TIM handle
  * @retval None
  */
__weak void HAL_TIM_TriggerCallback(TIM_HandleTypeDef *htim)
{
 800401c:	b580      	push	{r7, lr}
 800401e:	b082      	sub	sp, #8
 8004020:	af00      	add	r7, sp, #0
 8004022:	6078      	str	r0, [r7, #4]
  UNUSED(htim);

  /* NOTE : This function should not be modified, when the callback is needed,
            the HAL_TIM_TriggerCallback could be implemented in the user file
   */
}
 8004024:	46c0      	nop			; (mov r8, r8)
 8004026:	46bd      	mov	sp, r7
 8004028:	b002      	add	sp, #8
 800402a:	bd80      	pop	{r7, pc}

0800402c <TIM_Base_SetConfig>:
  * @param  TIMx TIM peripheral
  * @param  Structure TIM Base configuration structure
  * @retval None
  */
static void TIM_Base_SetConfig(TIM_TypeDef *TIMx, TIM_Base_InitTypeDef *Structure)
{
 800402c:	b580      	push	{r7, lr}
 800402e:	b084      	sub	sp, #16
 8004030:	af00      	add	r7, sp, #0
 8004032:	6078      	str	r0, [r7, #4]
 8004034:	6039      	str	r1, [r7, #0]
  uint32_t tmpcr1;
  tmpcr1 = TIMx->CR1;
 8004036:	687b      	ldr	r3, [r7, #4]
 8004038:	681b      	ldr	r3, [r3, #0]
 800403a:	60fb      	str	r3, [r7, #12]

  /* Set TIM Time Base Unit parameters ---------------------------------------*/
  if (IS_TIM_COUNTER_MODE_SELECT_INSTANCE(TIMx))
 800403c:	687a      	ldr	r2, [r7, #4]
 800403e:	2380      	movs	r3, #128	; 0x80
 8004040:	05db      	lsls	r3, r3, #23
 8004042:	429a      	cmp	r2, r3
 8004044:	d00b      	beq.n	800405e <TIM_Base_SetConfig+0x32>
 8004046:	687b      	ldr	r3, [r7, #4]
 8004048:	4a23      	ldr	r2, [pc, #140]	; (80040d8 <TIM_Base_SetConfig+0xac>)
 800404a:	4293      	cmp	r3, r2
 800404c:	d007      	beq.n	800405e <TIM_Base_SetConfig+0x32>
 800404e:	687b      	ldr	r3, [r7, #4]
 8004050:	4a22      	ldr	r2, [pc, #136]	; (80040dc <TIM_Base_SetConfig+0xb0>)
 8004052:	4293      	cmp	r3, r2
 8004054:	d003      	beq.n	800405e <TIM_Base_SetConfig+0x32>
 8004056:	687b      	ldr	r3, [r7, #4]
 8004058:	4a21      	ldr	r2, [pc, #132]	; (80040e0 <TIM_Base_SetConfig+0xb4>)
 800405a:	4293      	cmp	r3, r2
 800405c:	d108      	bne.n	8004070 <TIM_Base_SetConfig+0x44>
  {
    /* Select the Counter Mode */
    tmpcr1 &= ~(TIM_CR1_DIR | TIM_CR1_CMS);
 800405e:	68fb      	ldr	r3, [r7, #12]
 8004060:	2270      	movs	r2, #112	; 0x70
 8004062:	4393      	bics	r3, r2
 8004064:	60fb      	str	r3, [r7, #12]
    tmpcr1 |= Structure->CounterMode;
 8004066:	683b      	ldr	r3, [r7, #0]
 8004068:	685b      	ldr	r3, [r3, #4]
 800406a:	68fa      	ldr	r2, [r7, #12]
 800406c:	4313      	orrs	r3, r2
 800406e:	60fb      	str	r3, [r7, #12]
  }

  if (IS_TIM_CLOCK_DIVISION_INSTANCE(TIMx))
 8004070:	687a      	ldr	r2, [r7, #4]
 8004072:	2380      	movs	r3, #128	; 0x80
 8004074:	05db      	lsls	r3, r3, #23
 8004076:	429a      	cmp	r2, r3
 8004078:	d00b      	beq.n	8004092 <TIM_Base_SetConfig+0x66>
 800407a:	687b      	ldr	r3, [r7, #4]
 800407c:	4a16      	ldr	r2, [pc, #88]	; (80040d8 <TIM_Base_SetConfig+0xac>)
 800407e:	4293      	cmp	r3, r2
 8004080:	d007      	beq.n	8004092 <TIM_Base_SetConfig+0x66>
 8004082:	687b      	ldr	r3, [r7, #4]
 8004084:	4a15      	ldr	r2, [pc, #84]	; (80040dc <TIM_Base_SetConfig+0xb0>)
 8004086:	4293      	cmp	r3, r2
 8004088:	d003      	beq.n	8004092 <TIM_Base_SetConfig+0x66>
 800408a:	687b      	ldr	r3, [r7, #4]
 800408c:	4a14      	ldr	r2, [pc, #80]	; (80040e0 <TIM_Base_SetConfig+0xb4>)
 800408e:	4293      	cmp	r3, r2
 8004090:	d108      	bne.n	80040a4 <TIM_Base_SetConfig+0x78>
  {
    /* Set the clock division */
    tmpcr1 &= ~TIM_CR1_CKD;
 8004092:	68fb      	ldr	r3, [r7, #12]
 8004094:	4a13      	ldr	r2, [pc, #76]	; (80040e4 <TIM_Base_SetConfig+0xb8>)
 8004096:	4013      	ands	r3, r2
 8004098:	60fb      	str	r3, [r7, #12]
    tmpcr1 |= (uint32_t)Structure->ClockDivision;
 800409a:	683b      	ldr	r3, [r7, #0]
 800409c:	68db      	ldr	r3, [r3, #12]
 800409e:	68fa      	ldr	r2, [r7, #12]
 80040a0:	4313      	orrs	r3, r2
 80040a2:	60fb      	str	r3, [r7, #12]
  }

  /* Set the auto-reload preload */
  MODIFY_REG(tmpcr1, TIM_CR1_ARPE, Structure->AutoReloadPreload);
 80040a4:	68fb      	ldr	r3, [r7, #12]
 80040a6:	2280      	movs	r2, #128	; 0x80
 80040a8:	4393      	bics	r3, r2
 80040aa:	001a      	movs	r2, r3
 80040ac:	683b      	ldr	r3, [r7, #0]
 80040ae:	691b      	ldr	r3, [r3, #16]
 80040b0:	4313      	orrs	r3, r2
 80040b2:	60fb      	str	r3, [r7, #12]

  TIMx->CR1 = tmpcr1;
 80040b4:	687b      	ldr	r3, [r7, #4]
 80040b6:	68fa      	ldr	r2, [r7, #12]
 80040b8:	601a      	str	r2, [r3, #0]

  /* Set the Autoreload value */
  TIMx->ARR = (uint32_t)Structure->Period ;
 80040ba:	683b      	ldr	r3, [r7, #0]
 80040bc:	689a      	ldr	r2, [r3, #8]
 80040be:	687b      	ldr	r3, [r7, #4]
 80040c0:	62da      	str	r2, [r3, #44]	; 0x2c

  /* Set the Prescaler value */
  TIMx->PSC = Structure->Prescaler;
 80040c2:	683b      	ldr	r3, [r7, #0]
 80040c4:	681a      	ldr	r2, [r3, #0]
 80040c6:	687b      	ldr	r3, [r7, #4]
 80040c8:	629a      	str	r2, [r3, #40]	; 0x28

  /* Generate an update event to reload the Prescaler
     and the repetition counter (only for advanced timer) value immediately */
  TIMx->EGR = TIM_EGR_UG;
 80040ca:	687b      	ldr	r3, [r7, #4]
 80040cc:	2201      	movs	r2, #1
 80040ce:	615a      	str	r2, [r3, #20]
}
 80040d0:	46c0      	nop			; (mov r8, r8)
 80040d2:	46bd      	mov	sp, r7
 80040d4:	b004      	add	sp, #16
 80040d6:	bd80      	pop	{r7, pc}
 80040d8:	40000400 	.word	0x40000400
 80040dc:	40010800 	.word	0x40010800
 80040e0:	40011400 	.word	0x40011400
 80040e4:	fffffcff 	.word	0xfffffcff

080040e8 <TIM_OC1_SetConfig>:
  * @param  TIMx to select the TIM peripheral
  * @param  OC_Config The output configuration structure
  * @retval None
  */
static void TIM_OC1_SetConfig(TIM_TypeDef *TIMx, TIM_OC_InitTypeDef *OC_Config)
{
 80040e8:	b580      	push	{r7, lr}
 80040ea:	b086      	sub	sp, #24
 80040ec:	af00      	add	r7, sp, #0
 80040ee:	6078      	str	r0, [r7, #4]
 80040f0:	6039      	str	r1, [r7, #0]
  uint32_t tmpccmrx;
  uint32_t tmpccer;
  uint32_t tmpcr2;

  /* Disable the Channel 1: Reset the CC1E Bit */
  TIMx->CCER &= ~TIM_CCER_CC1E;
 80040f2:	687b      	ldr	r3, [r7, #4]
 80040f4:	6a1b      	ldr	r3, [r3, #32]
 80040f6:	2201      	movs	r2, #1
 80040f8:	4393      	bics	r3, r2
 80040fa:	001a      	movs	r2, r3
 80040fc:	687b      	ldr	r3, [r7, #4]
 80040fe:	621a      	str	r2, [r3, #32]

  /* Get the TIMx CCER register value */
  tmpccer = TIMx->CCER;
 8004100:	687b      	ldr	r3, [r7, #4]
 8004102:	6a1b      	ldr	r3, [r3, #32]
 8004104:	617b      	str	r3, [r7, #20]
  /* Get the TIMx CR2 register value */
  tmpcr2 =  TIMx->CR2;
 8004106:	687b      	ldr	r3, [r7, #4]
 8004108:	685b      	ldr	r3, [r3, #4]
 800410a:	613b      	str	r3, [r7, #16]

  /* Get the TIMx CCMR1 register value */
  tmpccmrx = TIMx->CCMR1;
 800410c:	687b      	ldr	r3, [r7, #4]
 800410e:	699b      	ldr	r3, [r3, #24]
 8004110:	60fb      	str	r3, [r7, #12]

  /* Reset the Output Compare Mode Bits */
  tmpccmrx &= ~TIM_CCMR1_OC1M;
 8004112:	68fb      	ldr	r3, [r7, #12]
 8004114:	2270      	movs	r2, #112	; 0x70
 8004116:	4393      	bics	r3, r2
 8004118:	60fb      	str	r3, [r7, #12]
  tmpccmrx &= ~TIM_CCMR1_CC1S;
 800411a:	68fb      	ldr	r3, [r7, #12]
 800411c:	2203      	movs	r2, #3
 800411e:	4393      	bics	r3, r2
 8004120:	60fb      	str	r3, [r7, #12]
  /* Select the Output Compare Mode */
  tmpccmrx |= OC_Config->OCMode;
 8004122:	683b      	ldr	r3, [r7, #0]
 8004124:	681b      	ldr	r3, [r3, #0]
 8004126:	68fa      	ldr	r2, [r7, #12]
 8004128:	4313      	orrs	r3, r2
 800412a:	60fb      	str	r3, [r7, #12]

  /* Reset the Output Polarity level */
  tmpccer &= ~TIM_CCER_CC1P;
 800412c:	697b      	ldr	r3, [r7, #20]
 800412e:	2202      	movs	r2, #2
 8004130:	4393      	bics	r3, r2
 8004132:	617b      	str	r3, [r7, #20]
  /* Set the Output Compare Polarity */
  tmpccer |= OC_Config->OCPolarity;
 8004134:	683b      	ldr	r3, [r7, #0]
 8004136:	689b      	ldr	r3, [r3, #8]
 8004138:	697a      	ldr	r2, [r7, #20]
 800413a:	4313      	orrs	r3, r2
 800413c:	617b      	str	r3, [r7, #20]

  /* Write to TIMx CR2 */
  TIMx->CR2 = tmpcr2;
 800413e:	687b      	ldr	r3, [r7, #4]
 8004140:	693a      	ldr	r2, [r7, #16]
 8004142:	605a      	str	r2, [r3, #4]

  /* Write to TIMx CCMR1 */
  TIMx->CCMR1 = tmpccmrx;
 8004144:	687b      	ldr	r3, [r7, #4]
 8004146:	68fa      	ldr	r2, [r7, #12]
 8004148:	619a      	str	r2, [r3, #24]

  /* Set the Capture Compare Register value */
  TIMx->CCR1 = OC_Config->Pulse;
 800414a:	683b      	ldr	r3, [r7, #0]
 800414c:	685a      	ldr	r2, [r3, #4]
 800414e:	687b      	ldr	r3, [r7, #4]
 8004150:	635a      	str	r2, [r3, #52]	; 0x34

  /* Write to TIMx CCER */
  TIMx->CCER = tmpccer;
 8004152:	687b      	ldr	r3, [r7, #4]
 8004154:	697a      	ldr	r2, [r7, #20]
 8004156:	621a      	str	r2, [r3, #32]
}
 8004158:	46c0      	nop			; (mov r8, r8)
 800415a:	46bd      	mov	sp, r7
 800415c:	b006      	add	sp, #24
 800415e:	bd80      	pop	{r7, pc}

08004160 <TIM_OC2_SetConfig>:
  * @param  TIMx to select the TIM peripheral
  * @param  OC_Config The output configuration structure
  * @retval None
  */
static void TIM_OC2_SetConfig(TIM_TypeDef *TIMx, TIM_OC_InitTypeDef *OC_Config)
{
 8004160:	b580      	push	{r7, lr}
 8004162:	b086      	sub	sp, #24
 8004164:	af00      	add	r7, sp, #0
 8004166:	6078      	str	r0, [r7, #4]
 8004168:	6039      	str	r1, [r7, #0]
  uint32_t tmpccmrx;
  uint32_t tmpccer;
  uint32_t tmpcr2;

  /* Disable the Channel 2: Reset the CC2E Bit */
  TIMx->CCER &= ~TIM_CCER_CC2E;
 800416a:	687b      	ldr	r3, [r7, #4]
 800416c:	6a1b      	ldr	r3, [r3, #32]
 800416e:	2210      	movs	r2, #16
 8004170:	4393      	bics	r3, r2
 8004172:	001a      	movs	r2, r3
 8004174:	687b      	ldr	r3, [r7, #4]
 8004176:	621a      	str	r2, [r3, #32]

  /* Get the TIMx CCER register value */
  tmpccer = TIMx->CCER;
 8004178:	687b      	ldr	r3, [r7, #4]
 800417a:	6a1b      	ldr	r3, [r3, #32]
 800417c:	617b      	str	r3, [r7, #20]
  /* Get the TIMx CR2 register value */
  tmpcr2 =  TIMx->CR2;
 800417e:	687b      	ldr	r3, [r7, #4]
 8004180:	685b      	ldr	r3, [r3, #4]
 8004182:	613b      	str	r3, [r7, #16]

  /* Get the TIMx CCMR1 register value */
  tmpccmrx = TIMx->CCMR1;
 8004184:	687b      	ldr	r3, [r7, #4]
 8004186:	699b      	ldr	r3, [r3, #24]
 8004188:	60fb      	str	r3, [r7, #12]

  /* Reset the Output Compare mode and Capture/Compare selection Bits */
  tmpccmrx &= ~TIM_CCMR1_OC2M;
 800418a:	68fb      	ldr	r3, [r7, #12]
 800418c:	4a13      	ldr	r2, [pc, #76]	; (80041dc <TIM_OC2_SetConfig+0x7c>)
 800418e:	4013      	ands	r3, r2
 8004190:	60fb      	str	r3, [r7, #12]
  tmpccmrx &= ~TIM_CCMR1_CC2S;
 8004192:	68fb      	ldr	r3, [r7, #12]
 8004194:	4a12      	ldr	r2, [pc, #72]	; (80041e0 <TIM_OC2_SetConfig+0x80>)
 8004196:	4013      	ands	r3, r2
 8004198:	60fb      	str	r3, [r7, #12]

  /* Select the Output Compare Mode */
  tmpccmrx |= (OC_Config->OCMode << 8U);
 800419a:	683b      	ldr	r3, [r7, #0]
 800419c:	681b      	ldr	r3, [r3, #0]
 800419e:	021b      	lsls	r3, r3, #8
 80041a0:	68fa      	ldr	r2, [r7, #12]
 80041a2:	4313      	orrs	r3, r2
 80041a4:	60fb      	str	r3, [r7, #12]

  /* Reset the Output Polarity level */
  tmpccer &= ~TIM_CCER_CC2P;
 80041a6:	697b      	ldr	r3, [r7, #20]
 80041a8:	2220      	movs	r2, #32
 80041aa:	4393      	bics	r3, r2
 80041ac:	617b      	str	r3, [r7, #20]
  /* Set the Output Compare Polarity */
  tmpccer |= (OC_Config->OCPolarity << 4U);
 80041ae:	683b      	ldr	r3, [r7, #0]
 80041b0:	689b      	ldr	r3, [r3, #8]
 80041b2:	011b      	lsls	r3, r3, #4
 80041b4:	697a      	ldr	r2, [r7, #20]
 80041b6:	4313      	orrs	r3, r2
 80041b8:	617b      	str	r3, [r7, #20]

  /* Write to TIMx CR2 */
  TIMx->CR2 = tmpcr2;
 80041ba:	687b      	ldr	r3, [r7, #4]
 80041bc:	693a      	ldr	r2, [r7, #16]
 80041be:	605a      	str	r2, [r3, #4]

  /* Write to TIMx CCMR1 */
  TIMx->CCMR1 = tmpccmrx;
 80041c0:	687b      	ldr	r3, [r7, #4]
 80041c2:	68fa      	ldr	r2, [r7, #12]
 80041c4:	619a      	str	r2, [r3, #24]

  /* Set the Capture Compare Register value */
  TIMx->CCR2 = OC_Config->Pulse;
 80041c6:	683b      	ldr	r3, [r7, #0]
 80041c8:	685a      	ldr	r2, [r3, #4]
 80041ca:	687b      	ldr	r3, [r7, #4]
 80041cc:	639a      	str	r2, [r3, #56]	; 0x38

  /* Write to TIMx CCER */
  TIMx->CCER = tmpccer;
 80041ce:	687b      	ldr	r3, [r7, #4]
 80041d0:	697a      	ldr	r2, [r7, #20]
 80041d2:	621a      	str	r2, [r3, #32]
}
 80041d4:	46c0      	nop			; (mov r8, r8)
 80041d6:	46bd      	mov	sp, r7
 80041d8:	b006      	add	sp, #24
 80041da:	bd80      	pop	{r7, pc}
 80041dc:	ffff8fff 	.word	0xffff8fff
 80041e0:	fffffcff 	.word	0xfffffcff

080041e4 <TIM_OC3_SetConfig>:
  * @param  TIMx to select the TIM peripheral
  * @param  OC_Config The output configuration structure
  * @retval None
  */
static void TIM_OC3_SetConfig(TIM_TypeDef *TIMx, TIM_OC_InitTypeDef *OC_Config)
{
 80041e4:	b580      	push	{r7, lr}
 80041e6:	b086      	sub	sp, #24
 80041e8:	af00      	add	r7, sp, #0
 80041ea:	6078      	str	r0, [r7, #4]
 80041ec:	6039      	str	r1, [r7, #0]
  uint32_t tmpccmrx;
  uint32_t tmpccer;
  uint32_t tmpcr2;

  /* Disable the Channel 3: Reset the CC2E Bit */
  TIMx->CCER &= ~TIM_CCER_CC3E;
 80041ee:	687b      	ldr	r3, [r7, #4]
 80041f0:	6a1b      	ldr	r3, [r3, #32]
 80041f2:	4a1a      	ldr	r2, [pc, #104]	; (800425c <TIM_OC3_SetConfig+0x78>)
 80041f4:	401a      	ands	r2, r3
 80041f6:	687b      	ldr	r3, [r7, #4]
 80041f8:	621a      	str	r2, [r3, #32]

  /* Get the TIMx CCER register value */
  tmpccer = TIMx->CCER;
 80041fa:	687b      	ldr	r3, [r7, #4]
 80041fc:	6a1b      	ldr	r3, [r3, #32]
 80041fe:	617b      	str	r3, [r7, #20]
  /* Get the TIMx CR2 register value */
  tmpcr2 =  TIMx->CR2;
 8004200:	687b      	ldr	r3, [r7, #4]
 8004202:	685b      	ldr	r3, [r3, #4]
 8004204:	613b      	str	r3, [r7, #16]

  /* Get the TIMx CCMR2 register value */
  tmpccmrx = TIMx->CCMR2;
 8004206:	687b      	ldr	r3, [r7, #4]
 8004208:	69db      	ldr	r3, [r3, #28]
 800420a:	60fb      	str	r3, [r7, #12]

  /* Reset the Output Compare mode and Capture/Compare selection Bits */
  tmpccmrx &= ~TIM_CCMR2_OC3M;
 800420c:	68fb      	ldr	r3, [r7, #12]
 800420e:	2270      	movs	r2, #112	; 0x70
 8004210:	4393      	bics	r3, r2
 8004212:	60fb      	str	r3, [r7, #12]
  tmpccmrx &= ~TIM_CCMR2_CC3S;
 8004214:	68fb      	ldr	r3, [r7, #12]
 8004216:	2203      	movs	r2, #3
 8004218:	4393      	bics	r3, r2
 800421a:	60fb      	str	r3, [r7, #12]
  /* Select the Output Compare Mode */
  tmpccmrx |= OC_Config->OCMode;
 800421c:	683b      	ldr	r3, [r7, #0]
 800421e:	681b      	ldr	r3, [r3, #0]
 8004220:	68fa      	ldr	r2, [r7, #12]
 8004222:	4313      	orrs	r3, r2
 8004224:	60fb      	str	r3, [r7, #12]

  /* Reset the Output Polarity level */
  tmpccer &= ~TIM_CCER_CC3P;
 8004226:	697b      	ldr	r3, [r7, #20]
 8004228:	4a0d      	ldr	r2, [pc, #52]	; (8004260 <TIM_OC3_SetConfig+0x7c>)
 800422a:	4013      	ands	r3, r2
 800422c:	617b      	str	r3, [r7, #20]
  /* Set the Output Compare Polarity */
  tmpccer |= (OC_Config->OCPolarity << 8U);
 800422e:	683b      	ldr	r3, [r7, #0]
 8004230:	689b      	ldr	r3, [r3, #8]
 8004232:	021b      	lsls	r3, r3, #8
 8004234:	697a      	ldr	r2, [r7, #20]
 8004236:	4313      	orrs	r3, r2
 8004238:	617b      	str	r3, [r7, #20]

  /* Write to TIMx CR2 */
  TIMx->CR2 = tmpcr2;
 800423a:	687b      	ldr	r3, [r7, #4]
 800423c:	693a      	ldr	r2, [r7, #16]
 800423e:	605a      	str	r2, [r3, #4]

  /* Write to TIMx CCMR2 */
  TIMx->CCMR2 = tmpccmrx;
 8004240:	687b      	ldr	r3, [r7, #4]
 8004242:	68fa      	ldr	r2, [r7, #12]
 8004244:	61da      	str	r2, [r3, #28]

  /* Set the Capture Compare Register value */
  TIMx->CCR3 = OC_Config->Pulse;
 8004246:	683b      	ldr	r3, [r7, #0]
 8004248:	685a      	ldr	r2, [r3, #4]
 800424a:	687b      	ldr	r3, [r7, #4]
 800424c:	63da      	str	r2, [r3, #60]	; 0x3c

  /* Write to TIMx CCER */
  TIMx->CCER = tmpccer;
 800424e:	687b      	ldr	r3, [r7, #4]
 8004250:	697a      	ldr	r2, [r7, #20]
 8004252:	621a      	str	r2, [r3, #32]
}
 8004254:	46c0      	nop			; (mov r8, r8)
 8004256:	46bd      	mov	sp, r7
 8004258:	b006      	add	sp, #24
 800425a:	bd80      	pop	{r7, pc}
 800425c:	fffffeff 	.word	0xfffffeff
 8004260:	fffffdff 	.word	0xfffffdff

08004264 <TIM_OC4_SetConfig>:
  * @param  TIMx to select the TIM peripheral
  * @param  OC_Config The output configuration structure
  * @retval None
  */
static void TIM_OC4_SetConfig(TIM_TypeDef *TIMx, TIM_OC_InitTypeDef *OC_Config)
{
 8004264:	b580      	push	{r7, lr}
 8004266:	b086      	sub	sp, #24
 8004268:	af00      	add	r7, sp, #0
 800426a:	6078      	str	r0, [r7, #4]
 800426c:	6039      	str	r1, [r7, #0]
  uint32_t tmpccmrx;
  uint32_t tmpccer;
  uint32_t tmpcr2;

  /* Disable the Channel 4: Reset the CC4E Bit */
  TIMx->CCER &= ~TIM_CCER_CC4E;
 800426e:	687b      	ldr	r3, [r7, #4]
 8004270:	6a1b      	ldr	r3, [r3, #32]
 8004272:	4a1b      	ldr	r2, [pc, #108]	; (80042e0 <TIM_OC4_SetConfig+0x7c>)
 8004274:	401a      	ands	r2, r3
 8004276:	687b      	ldr	r3, [r7, #4]
 8004278:	621a      	str	r2, [r3, #32]

  /* Get the TIMx CCER register value */
  tmpccer = TIMx->CCER;
 800427a:	687b      	ldr	r3, [r7, #4]
 800427c:	6a1b      	ldr	r3, [r3, #32]
 800427e:	617b      	str	r3, [r7, #20]
  /* Get the TIMx CR2 register value */
  tmpcr2 =  TIMx->CR2;
 8004280:	687b      	ldr	r3, [r7, #4]
 8004282:	685b      	ldr	r3, [r3, #4]
 8004284:	613b      	str	r3, [r7, #16]

  /* Get the TIMx CCMR2 register value */
  tmpccmrx = TIMx->CCMR2;
 8004286:	687b      	ldr	r3, [r7, #4]
 8004288:	69db      	ldr	r3, [r3, #28]
 800428a:	60fb      	str	r3, [r7, #12]

  /* Reset the Output Compare mode and Capture/Compare selection Bits */
  tmpccmrx &= ~TIM_CCMR2_OC4M;
 800428c:	68fb      	ldr	r3, [r7, #12]
 800428e:	4a15      	ldr	r2, [pc, #84]	; (80042e4 <TIM_OC4_SetConfig+0x80>)
 8004290:	4013      	ands	r3, r2
 8004292:	60fb      	str	r3, [r7, #12]
  tmpccmrx &= ~TIM_CCMR2_CC4S;
 8004294:	68fb      	ldr	r3, [r7, #12]
 8004296:	4a14      	ldr	r2, [pc, #80]	; (80042e8 <TIM_OC4_SetConfig+0x84>)
 8004298:	4013      	ands	r3, r2
 800429a:	60fb      	str	r3, [r7, #12]

  /* Select the Output Compare Mode */
  tmpccmrx |= (OC_Config->OCMode << 8U);
 800429c:	683b      	ldr	r3, [r7, #0]
 800429e:	681b      	ldr	r3, [r3, #0]
 80042a0:	021b      	lsls	r3, r3, #8
 80042a2:	68fa      	ldr	r2, [r7, #12]
 80042a4:	4313      	orrs	r3, r2
 80042a6:	60fb      	str	r3, [r7, #12]

  /* Reset the Output Polarity level */
  tmpccer &= ~TIM_CCER_CC4P;
 80042a8:	697b      	ldr	r3, [r7, #20]
 80042aa:	4a10      	ldr	r2, [pc, #64]	; (80042ec <TIM_OC4_SetConfig+0x88>)
 80042ac:	4013      	ands	r3, r2
 80042ae:	617b      	str	r3, [r7, #20]
  /* Set the Output Compare Polarity */
  tmpccer |= (OC_Config->OCPolarity << 12U);
 80042b0:	683b      	ldr	r3, [r7, #0]
 80042b2:	689b      	ldr	r3, [r3, #8]
 80042b4:	031b      	lsls	r3, r3, #12
 80042b6:	697a      	ldr	r2, [r7, #20]
 80042b8:	4313      	orrs	r3, r2
 80042ba:	617b      	str	r3, [r7, #20]

  /* Write to TIMx CR2 */
  TIMx->CR2 = tmpcr2;
 80042bc:	687b      	ldr	r3, [r7, #4]
 80042be:	693a      	ldr	r2, [r7, #16]
 80042c0:	605a      	str	r2, [r3, #4]

  /* Write to TIMx CCMR2 */
  TIMx->CCMR2 = tmpccmrx;
 80042c2:	687b      	ldr	r3, [r7, #4]
 80042c4:	68fa      	ldr	r2, [r7, #12]
 80042c6:	61da      	str	r2, [r3, #28]

  /* Set the Capture Compare Register value */
  TIMx->CCR4 = OC_Config->Pulse;
 80042c8:	683b      	ldr	r3, [r7, #0]
 80042ca:	685a      	ldr	r2, [r3, #4]
 80042cc:	687b      	ldr	r3, [r7, #4]
 80042ce:	641a      	str	r2, [r3, #64]	; 0x40

  /* Write to TIMx CCER */
  TIMx->CCER = tmpccer;
 80042d0:	687b      	ldr	r3, [r7, #4]
 80042d2:	697a      	ldr	r2, [r7, #20]
 80042d4:	621a      	str	r2, [r3, #32]
}
 80042d6:	46c0      	nop			; (mov r8, r8)
 80042d8:	46bd      	mov	sp, r7
 80042da:	b006      	add	sp, #24
 80042dc:	bd80      	pop	{r7, pc}
 80042de:	46c0      	nop			; (mov r8, r8)
 80042e0:	ffffefff 	.word	0xffffefff
 80042e4:	ffff8fff 	.word	0xffff8fff
 80042e8:	fffffcff 	.word	0xfffffcff
 80042ec:	ffffdfff 	.word	0xffffdfff

080042f0 <TIM_TI1_ConfigInputStage>:
  * @param  TIM_ICFilter Specifies the Input Capture Filter.
  *          This parameter must be a value between 0x00 and 0x0F.
  * @retval None
  */
static void TIM_TI1_ConfigInputStage(TIM_TypeDef *TIMx, uint32_t TIM_ICPolarity, uint32_t TIM_ICFilter)
{
 80042f0:	b580      	push	{r7, lr}
 80042f2:	b086      	sub	sp, #24
 80042f4:	af00      	add	r7, sp, #0
 80042f6:	60f8      	str	r0, [r7, #12]
 80042f8:	60b9      	str	r1, [r7, #8]
 80042fa:	607a      	str	r2, [r7, #4]
  uint32_t tmpccmr1;
  uint32_t tmpccer;

  /* Disable the Channel 1: Reset the CC1E Bit */
  tmpccer = TIMx->CCER;
 80042fc:	68fb      	ldr	r3, [r7, #12]
 80042fe:	6a1b      	ldr	r3, [r3, #32]
 8004300:	617b      	str	r3, [r7, #20]
  TIMx->CCER &= ~TIM_CCER_CC1E;
 8004302:	68fb      	ldr	r3, [r7, #12]
 8004304:	6a1b      	ldr	r3, [r3, #32]
 8004306:	2201      	movs	r2, #1
 8004308:	4393      	bics	r3, r2
 800430a:	001a      	movs	r2, r3
 800430c:	68fb      	ldr	r3, [r7, #12]
 800430e:	621a      	str	r2, [r3, #32]
  tmpccmr1 = TIMx->CCMR1;
 8004310:	68fb      	ldr	r3, [r7, #12]
 8004312:	699b      	ldr	r3, [r3, #24]
 8004314:	613b      	str	r3, [r7, #16]

  /* Set the filter */
  tmpccmr1 &= ~TIM_CCMR1_IC1F;
 8004316:	693b      	ldr	r3, [r7, #16]
 8004318:	22f0      	movs	r2, #240	; 0xf0
 800431a:	4393      	bics	r3, r2
 800431c:	613b      	str	r3, [r7, #16]
  tmpccmr1 |= (TIM_ICFilter << 4U);
 800431e:	687b      	ldr	r3, [r7, #4]
 8004320:	011b      	lsls	r3, r3, #4
 8004322:	693a      	ldr	r2, [r7, #16]
 8004324:	4313      	orrs	r3, r2
 8004326:	613b      	str	r3, [r7, #16]

  /* Select the Polarity and set the CC1E Bit */
  tmpccer &= ~(TIM_CCER_CC1P | TIM_CCER_CC1NP);
 8004328:	697b      	ldr	r3, [r7, #20]
 800432a:	220a      	movs	r2, #10
 800432c:	4393      	bics	r3, r2
 800432e:	617b      	str	r3, [r7, #20]
  tmpccer |= TIM_ICPolarity;
 8004330:	697a      	ldr	r2, [r7, #20]
 8004332:	68bb      	ldr	r3, [r7, #8]
 8004334:	4313      	orrs	r3, r2
 8004336:	617b      	str	r3, [r7, #20]

  /* Write to TIMx CCMR1 and CCER registers */
  TIMx->CCMR1 = tmpccmr1;
 8004338:	68fb      	ldr	r3, [r7, #12]
 800433a:	693a      	ldr	r2, [r7, #16]
 800433c:	619a      	str	r2, [r3, #24]
  TIMx->CCER = tmpccer;
 800433e:	68fb      	ldr	r3, [r7, #12]
 8004340:	697a      	ldr	r2, [r7, #20]
 8004342:	621a      	str	r2, [r3, #32]
}
 8004344:	46c0      	nop			; (mov r8, r8)
 8004346:	46bd      	mov	sp, r7
 8004348:	b006      	add	sp, #24
 800434a:	bd80      	pop	{r7, pc}

0800434c <TIM_TI2_ConfigInputStage>:
  * @param  TIM_ICFilter Specifies the Input Capture Filter.
  *          This parameter must be a value between 0x00 and 0x0F.
  * @retval None
  */
static void TIM_TI2_ConfigInputStage(TIM_TypeDef *TIMx, uint32_t TIM_ICPolarity, uint32_t TIM_ICFilter)
{
 800434c:	b580      	push	{r7, lr}
 800434e:	b086      	sub	sp, #24
 8004350:	af00      	add	r7, sp, #0
 8004352:	60f8      	str	r0, [r7, #12]
 8004354:	60b9      	str	r1, [r7, #8]
 8004356:	607a      	str	r2, [r7, #4]
  uint32_t tmpccmr1;
  uint32_t tmpccer;

  /* Disable the Channel 2: Reset the CC2E Bit */
  TIMx->CCER &= ~TIM_CCER_CC2E;
 8004358:	68fb      	ldr	r3, [r7, #12]
 800435a:	6a1b      	ldr	r3, [r3, #32]
 800435c:	2210      	movs	r2, #16
 800435e:	4393      	bics	r3, r2
 8004360:	001a      	movs	r2, r3
 8004362:	68fb      	ldr	r3, [r7, #12]
 8004364:	621a      	str	r2, [r3, #32]
  tmpccmr1 = TIMx->CCMR1;
 8004366:	68fb      	ldr	r3, [r7, #12]
 8004368:	699b      	ldr	r3, [r3, #24]
 800436a:	617b      	str	r3, [r7, #20]
  tmpccer = TIMx->CCER;
 800436c:	68fb      	ldr	r3, [r7, #12]
 800436e:	6a1b      	ldr	r3, [r3, #32]
 8004370:	613b      	str	r3, [r7, #16]

  /* Set the filter */
  tmpccmr1 &= ~TIM_CCMR1_IC2F;
 8004372:	697b      	ldr	r3, [r7, #20]
 8004374:	4a0d      	ldr	r2, [pc, #52]	; (80043ac <TIM_TI2_ConfigInputStage+0x60>)
 8004376:	4013      	ands	r3, r2
 8004378:	617b      	str	r3, [r7, #20]
  tmpccmr1 |= (TIM_ICFilter << 12U);
 800437a:	687b      	ldr	r3, [r7, #4]
 800437c:	031b      	lsls	r3, r3, #12
 800437e:	697a      	ldr	r2, [r7, #20]
 8004380:	4313      	orrs	r3, r2
 8004382:	617b      	str	r3, [r7, #20]

  /* Select the Polarity and set the CC2E Bit */
  tmpccer &= ~(TIM_CCER_CC2P | TIM_CCER_CC2NP);
 8004384:	693b      	ldr	r3, [r7, #16]
 8004386:	22a0      	movs	r2, #160	; 0xa0
 8004388:	4393      	bics	r3, r2
 800438a:	613b      	str	r3, [r7, #16]
  tmpccer |= (TIM_ICPolarity << 4U);
 800438c:	68bb      	ldr	r3, [r7, #8]
 800438e:	011b      	lsls	r3, r3, #4
 8004390:	693a      	ldr	r2, [r7, #16]
 8004392:	4313      	orrs	r3, r2
 8004394:	613b      	str	r3, [r7, #16]

  /* Write to TIMx CCMR1 and CCER registers */
  TIMx->CCMR1 = tmpccmr1 ;
 8004396:	68fb      	ldr	r3, [r7, #12]
 8004398:	697a      	ldr	r2, [r7, #20]
 800439a:	619a      	str	r2, [r3, #24]
  TIMx->CCER = tmpccer;
 800439c:	68fb      	ldr	r3, [r7, #12]
 800439e:	693a      	ldr	r2, [r7, #16]
 80043a0:	621a      	str	r2, [r3, #32]
}
 80043a2:	46c0      	nop			; (mov r8, r8)
 80043a4:	46bd      	mov	sp, r7
 80043a6:	b006      	add	sp, #24
 80043a8:	bd80      	pop	{r7, pc}
 80043aa:	46c0      	nop			; (mov r8, r8)
 80043ac:	ffff0fff 	.word	0xffff0fff

080043b0 <TIM_ITRx_SetConfig>:
  *            @arg TIM_TS_TI2FP2: Filtered Timer Input 2
  *            @arg TIM_TS_ETRF: External Trigger input
  * @retval None
  */
static void TIM_ITRx_SetConfig(TIM_TypeDef *TIMx, uint32_t InputTriggerSource)
{
 80043b0:	b580      	push	{r7, lr}
 80043b2:	b084      	sub	sp, #16
 80043b4:	af00      	add	r7, sp, #0
 80043b6:	6078      	str	r0, [r7, #4]
 80043b8:	6039      	str	r1, [r7, #0]
  uint32_t tmpsmcr;

  /* Get the TIMx SMCR register value */
  tmpsmcr = TIMx->SMCR;
 80043ba:	687b      	ldr	r3, [r7, #4]
 80043bc:	689b      	ldr	r3, [r3, #8]
 80043be:	60fb      	str	r3, [r7, #12]
  /* Reset the TS Bits */
  tmpsmcr &= ~TIM_SMCR_TS;
 80043c0:	68fb      	ldr	r3, [r7, #12]
 80043c2:	2270      	movs	r2, #112	; 0x70
 80043c4:	4393      	bics	r3, r2
 80043c6:	60fb      	str	r3, [r7, #12]
  /* Set the Input Trigger source and the slave mode*/
  tmpsmcr |= (InputTriggerSource | TIM_SLAVEMODE_EXTERNAL1);
 80043c8:	683a      	ldr	r2, [r7, #0]
 80043ca:	68fb      	ldr	r3, [r7, #12]
 80043cc:	4313      	orrs	r3, r2
 80043ce:	2207      	movs	r2, #7
 80043d0:	4313      	orrs	r3, r2
 80043d2:	60fb      	str	r3, [r7, #12]
  /* Write to TIMx SMCR */
  TIMx->SMCR = tmpsmcr;
 80043d4:	687b      	ldr	r3, [r7, #4]
 80043d6:	68fa      	ldr	r2, [r7, #12]
 80043d8:	609a      	str	r2, [r3, #8]
}
 80043da:	46c0      	nop			; (mov r8, r8)
 80043dc:	46bd      	mov	sp, r7
 80043de:	b004      	add	sp, #16
 80043e0:	bd80      	pop	{r7, pc}
	...

080043e4 <TIM_ETR_SetConfig>:
  *          This parameter must be a value between 0x00 and 0x0F
  * @retval None
  */
static void TIM_ETR_SetConfig(TIM_TypeDef *TIMx, uint32_t TIM_ExtTRGPrescaler,
                              uint32_t TIM_ExtTRGPolarity, uint32_t ExtTRGFilter)
{
 80043e4:	b580      	push	{r7, lr}
 80043e6:	b086      	sub	sp, #24
 80043e8:	af00      	add	r7, sp, #0
 80043ea:	60f8      	str	r0, [r7, #12]
 80043ec:	60b9      	str	r1, [r7, #8]
 80043ee:	607a      	str	r2, [r7, #4]
 80043f0:	603b      	str	r3, [r7, #0]
  uint32_t tmpsmcr;

  tmpsmcr = TIMx->SMCR;
 80043f2:	68fb      	ldr	r3, [r7, #12]
 80043f4:	689b      	ldr	r3, [r3, #8]
 80043f6:	617b      	str	r3, [r7, #20]

  /* Reset the ETR Bits */
  tmpsmcr &= ~(TIM_SMCR_ETF | TIM_SMCR_ETPS | TIM_SMCR_ECE | TIM_SMCR_ETP);
 80043f8:	697b      	ldr	r3, [r7, #20]
 80043fa:	4a09      	ldr	r2, [pc, #36]	; (8004420 <TIM_ETR_SetConfig+0x3c>)
 80043fc:	4013      	ands	r3, r2
 80043fe:	617b      	str	r3, [r7, #20]

  /* Set the Prescaler, the Filter value and the Polarity */
  tmpsmcr |= (uint32_t)(TIM_ExtTRGPrescaler | (TIM_ExtTRGPolarity | (ExtTRGFilter << 8U)));
 8004400:	683b      	ldr	r3, [r7, #0]
 8004402:	021a      	lsls	r2, r3, #8
 8004404:	687b      	ldr	r3, [r7, #4]
 8004406:	431a      	orrs	r2, r3
 8004408:	68bb      	ldr	r3, [r7, #8]
 800440a:	4313      	orrs	r3, r2
 800440c:	697a      	ldr	r2, [r7, #20]
 800440e:	4313      	orrs	r3, r2
 8004410:	617b      	str	r3, [r7, #20]

  /* Write to TIMx SMCR */
  TIMx->SMCR = tmpsmcr;
 8004412:	68fb      	ldr	r3, [r7, #12]
 8004414:	697a      	ldr	r2, [r7, #20]
 8004416:	609a      	str	r2, [r3, #8]
}
 8004418:	46c0      	nop			; (mov r8, r8)
 800441a:	46bd      	mov	sp, r7
 800441c:	b006      	add	sp, #24
 800441e:	bd80      	pop	{r7, pc}
 8004420:	ffff00ff 	.word	0xffff00ff

08004424 <TIM_CCxChannelCmd>:
  * @param  ChannelState specifies the TIM Channel CCxE bit new state.
  *          This parameter can be: TIM_CCx_ENABLE or TIM_CCx_DISABLE.
  * @retval None
  */
static void TIM_CCxChannelCmd(TIM_TypeDef *TIMx, uint32_t Channel, uint32_t ChannelState)
{
 8004424:	b580      	push	{r7, lr}
 8004426:	b086      	sub	sp, #24
 8004428:	af00      	add	r7, sp, #0
 800442a:	60f8      	str	r0, [r7, #12]
 800442c:	60b9      	str	r1, [r7, #8]
 800442e:	607a      	str	r2, [r7, #4]

  /* Check the parameters */
  assert_param(IS_TIM_CC1_INSTANCE(TIMx));
  assert_param(IS_TIM_CHANNELS(Channel));

  tmp = TIM_CCER_CC1E << (Channel & 0x1FU); /* 0x1FU = 31 bits max shift */
 8004430:	68bb      	ldr	r3, [r7, #8]
 8004432:	221f      	movs	r2, #31
 8004434:	4013      	ands	r3, r2
 8004436:	2201      	movs	r2, #1
 8004438:	409a      	lsls	r2, r3
 800443a:	0013      	movs	r3, r2
 800443c:	617b      	str	r3, [r7, #20]

  /* Reset the CCxE Bit */
  TIMx->CCER &= ~tmp;
 800443e:	68fb      	ldr	r3, [r7, #12]
 8004440:	6a1b      	ldr	r3, [r3, #32]
 8004442:	697a      	ldr	r2, [r7, #20]
 8004444:	43d2      	mvns	r2, r2
 8004446:	401a      	ands	r2, r3
 8004448:	68fb      	ldr	r3, [r7, #12]
 800444a:	621a      	str	r2, [r3, #32]

  /* Set or reset the CCxE Bit */
  TIMx->CCER |= (uint32_t)(ChannelState << (Channel & 0x1FU)); /* 0x1FU = 31 bits max shift */
 800444c:	68fb      	ldr	r3, [r7, #12]
 800444e:	6a1a      	ldr	r2, [r3, #32]
 8004450:	68bb      	ldr	r3, [r7, #8]
 8004452:	211f      	movs	r1, #31
 8004454:	400b      	ands	r3, r1
 8004456:	6879      	ldr	r1, [r7, #4]
 8004458:	4099      	lsls	r1, r3
 800445a:	000b      	movs	r3, r1
 800445c:	431a      	orrs	r2, r3
 800445e:	68fb      	ldr	r3, [r7, #12]
 8004460:	621a      	str	r2, [r3, #32]
}
 8004462:	46c0      	nop			; (mov r8, r8)
 8004464:	46bd      	mov	sp, r7
 8004466:	b006      	add	sp, #24
 8004468:	bd80      	pop	{r7, pc}
	...

0800446c <HAL_TIMEx_MasterConfigSynchronization>:
  *         mode.
  * @retval HAL status
  */
HAL_StatusTypeDef HAL_TIMEx_MasterConfigSynchronization(TIM_HandleTypeDef *htim,
                                                        TIM_MasterConfigTypeDef *sMasterConfig)
{
 800446c:	b580      	push	{r7, lr}
 800446e:	b084      	sub	sp, #16
 8004470:	af00      	add	r7, sp, #0
 8004472:	6078      	str	r0, [r7, #4]
 8004474:	6039      	str	r1, [r7, #0]
  assert_param(IS_TIM_MASTER_INSTANCE(htim->Instance));
  assert_param(IS_TIM_TRGO_SOURCE(sMasterConfig->MasterOutputTrigger));
  assert_param(IS_TIM_MSM_STATE(sMasterConfig->MasterSlaveMode));

  /* Check input state */
  __HAL_LOCK(htim);
 8004476:	687b      	ldr	r3, [r7, #4]
 8004478:	2238      	movs	r2, #56	; 0x38
 800447a:	5c9b      	ldrb	r3, [r3, r2]
 800447c:	2b01      	cmp	r3, #1
 800447e:	d101      	bne.n	8004484 <HAL_TIMEx_MasterConfigSynchronization+0x18>
 8004480:	2302      	movs	r3, #2
 8004482:	e047      	b.n	8004514 <HAL_TIMEx_MasterConfigSynchronization+0xa8>
 8004484:	687b      	ldr	r3, [r7, #4]
 8004486:	2238      	movs	r2, #56	; 0x38
 8004488:	2101      	movs	r1, #1
 800448a:	5499      	strb	r1, [r3, r2]

  /* Change the handler state */
  htim->State = HAL_TIM_STATE_BUSY;
 800448c:	687b      	ldr	r3, [r7, #4]
 800448e:	2239      	movs	r2, #57	; 0x39
 8004490:	2102      	movs	r1, #2
 8004492:	5499      	strb	r1, [r3, r2]

  /* Get the TIMx CR2 register value */
  tmpcr2 = htim->Instance->CR2;
 8004494:	687b      	ldr	r3, [r7, #4]
 8004496:	681b      	ldr	r3, [r3, #0]
 8004498:	685b      	ldr	r3, [r3, #4]
 800449a:	60fb      	str	r3, [r7, #12]

  /* Get the TIMx SMCR register value */
  tmpsmcr = htim->Instance->SMCR;
 800449c:	687b      	ldr	r3, [r7, #4]
 800449e:	681b      	ldr	r3, [r3, #0]
 80044a0:	689b      	ldr	r3, [r3, #8]
 80044a2:	60bb      	str	r3, [r7, #8]

  /* Reset the MMS Bits */
  tmpcr2 &= ~TIM_CR2_MMS;
 80044a4:	68fb      	ldr	r3, [r7, #12]
 80044a6:	2270      	movs	r2, #112	; 0x70
 80044a8:	4393      	bics	r3, r2
 80044aa:	60fb      	str	r3, [r7, #12]
  /* Select the TRGO source */
  tmpcr2 |=  sMasterConfig->MasterOutputTrigger;
 80044ac:	683b      	ldr	r3, [r7, #0]
 80044ae:	681b      	ldr	r3, [r3, #0]
 80044b0:	68fa      	ldr	r2, [r7, #12]
 80044b2:	4313      	orrs	r3, r2
 80044b4:	60fb      	str	r3, [r7, #12]

  /* Update TIMx CR2 */
  htim->Instance->CR2 = tmpcr2;
 80044b6:	687b      	ldr	r3, [r7, #4]
 80044b8:	681b      	ldr	r3, [r3, #0]
 80044ba:	68fa      	ldr	r2, [r7, #12]
 80044bc:	605a      	str	r2, [r3, #4]

  if (IS_TIM_SLAVE_INSTANCE(htim->Instance))
 80044be:	687b      	ldr	r3, [r7, #4]
 80044c0:	681a      	ldr	r2, [r3, #0]
 80044c2:	2380      	movs	r3, #128	; 0x80
 80044c4:	05db      	lsls	r3, r3, #23
 80044c6:	429a      	cmp	r2, r3
 80044c8:	d00e      	beq.n	80044e8 <HAL_TIMEx_MasterConfigSynchronization+0x7c>
 80044ca:	687b      	ldr	r3, [r7, #4]
 80044cc:	681b      	ldr	r3, [r3, #0]
 80044ce:	4a13      	ldr	r2, [pc, #76]	; (800451c <HAL_TIMEx_MasterConfigSynchronization+0xb0>)
 80044d0:	4293      	cmp	r3, r2
 80044d2:	d009      	beq.n	80044e8 <HAL_TIMEx_MasterConfigSynchronization+0x7c>
 80044d4:	687b      	ldr	r3, [r7, #4]
 80044d6:	681b      	ldr	r3, [r3, #0]
 80044d8:	4a11      	ldr	r2, [pc, #68]	; (8004520 <HAL_TIMEx_MasterConfigSynchronization+0xb4>)
 80044da:	4293      	cmp	r3, r2
 80044dc:	d004      	beq.n	80044e8 <HAL_TIMEx_MasterConfigSynchronization+0x7c>
 80044de:	687b      	ldr	r3, [r7, #4]
 80044e0:	681b      	ldr	r3, [r3, #0]
 80044e2:	4a10      	ldr	r2, [pc, #64]	; (8004524 <HAL_TIMEx_MasterConfigSynchronization+0xb8>)
 80044e4:	4293      	cmp	r3, r2
 80044e6:	d10c      	bne.n	8004502 <HAL_TIMEx_MasterConfigSynchronization+0x96>
  {
    /* Reset the MSM Bit */
    tmpsmcr &= ~TIM_SMCR_MSM;
 80044e8:	68bb      	ldr	r3, [r7, #8]
 80044ea:	2280      	movs	r2, #128	; 0x80
 80044ec:	4393      	bics	r3, r2
 80044ee:	60bb      	str	r3, [r7, #8]
    /* Set master mode */
    tmpsmcr |= sMasterConfig->MasterSlaveMode;
 80044f0:	683b      	ldr	r3, [r7, #0]
 80044f2:	685b      	ldr	r3, [r3, #4]
 80044f4:	68ba      	ldr	r2, [r7, #8]
 80044f6:	4313      	orrs	r3, r2
 80044f8:	60bb      	str	r3, [r7, #8]

    /* Update TIMx SMCR */
    htim->Instance->SMCR = tmpsmcr;
 80044fa:	687b      	ldr	r3, [r7, #4]
 80044fc:	681b      	ldr	r3, [r3, #0]
 80044fe:	68ba      	ldr	r2, [r7, #8]
 8004500:	609a      	str	r2, [r3, #8]
  }

  /* Change the htim state */
  htim->State = HAL_TIM_STATE_READY;
 8004502:	687b      	ldr	r3, [r7, #4]
 8004504:	2239      	movs	r2, #57	; 0x39
 8004506:	2101      	movs	r1, #1
 8004508:	5499      	strb	r1, [r3, r2]

  __HAL_UNLOCK(htim);
 800450a:	687b      	ldr	r3, [r7, #4]
 800450c:	2238      	movs	r2, #56	; 0x38
 800450e:	2100      	movs	r1, #0
 8004510:	5499      	strb	r1, [r3, r2]

  return HAL_OK;
 8004512:	2300      	movs	r3, #0
}
 8004514:	0018      	movs	r0, r3
 8004516:	46bd      	mov	sp, r7
 8004518:	b004      	add	sp, #16
 800451a:	bd80      	pop	{r7, pc}
 800451c:	40000400 	.word	0x40000400
 8004520:	40010800 	.word	0x40010800
 8004524:	40011400 	.word	0x40011400

08004528 <HAL_TIMEx_RemapConfig>:
  @endif
  *
  * @retval HAL status
  */
HAL_StatusTypeDef HAL_TIMEx_RemapConfig(TIM_HandleTypeDef *htim, uint32_t Remap)
{
 8004528:	b580      	push	{r7, lr}
 800452a:	b082      	sub	sp, #8
 800452c:	af00      	add	r7, sp, #0
 800452e:	6078      	str	r0, [r7, #4]
 8004530:	6039      	str	r1, [r7, #0]
  __HAL_LOCK(htim);
 8004532:	687b      	ldr	r3, [r7, #4]
 8004534:	2238      	movs	r2, #56	; 0x38
 8004536:	5c9b      	ldrb	r3, [r3, r2]
 8004538:	2b01      	cmp	r3, #1
 800453a:	d101      	bne.n	8004540 <HAL_TIMEx_RemapConfig+0x18>
 800453c:	2302      	movs	r3, #2
 800453e:	e00c      	b.n	800455a <HAL_TIMEx_RemapConfig+0x32>
 8004540:	687b      	ldr	r3, [r7, #4]
 8004542:	2238      	movs	r2, #56	; 0x38
 8004544:	2101      	movs	r1, #1
 8004546:	5499      	strb	r1, [r3, r2]

  /* Check parameters */
  assert_param(IS_TIM_REMAP(htim->Instance, Remap));

  /* Set the Timer remapping configuration */
  WRITE_REG(htim->Instance->OR, Remap);
 8004548:	687b      	ldr	r3, [r7, #4]
 800454a:	681b      	ldr	r3, [r3, #0]
 800454c:	683a      	ldr	r2, [r7, #0]
 800454e:	651a      	str	r2, [r3, #80]	; 0x50

  __HAL_UNLOCK(htim);
 8004550:	687b      	ldr	r3, [r7, #4]
 8004552:	2238      	movs	r2, #56	; 0x38
 8004554:	2100      	movs	r1, #0
 8004556:	5499      	strb	r1, [r3, r2]

  return HAL_OK;
 8004558:	2300      	movs	r3, #0
}
 800455a:	0018      	movs	r0, r3
 800455c:	46bd      	mov	sp, r7
 800455e:	b002      	add	sp, #8
 8004560:	bd80      	pop	{r7, pc}
	...

08004564 <HAL_UART_Init>:
  *        parameters in the UART_InitTypeDef and initialize the associated handle.
  * @param huart UART handle.
  * @retval HAL status
  */
HAL_StatusTypeDef HAL_UART_Init(UART_HandleTypeDef *huart)
{
 8004564:	b580      	push	{r7, lr}
 8004566:	b082      	sub	sp, #8
 8004568:	af00      	add	r7, sp, #0
 800456a:	6078      	str	r0, [r7, #4]
  /* Check the UART handle allocation */
  if (huart == NULL)
 800456c:	687b      	ldr	r3, [r7, #4]
 800456e:	2b00      	cmp	r3, #0
 8004570:	d101      	bne.n	8004576 <HAL_UART_Init+0x12>
  {
    return HAL_ERROR;
 8004572:	2301      	movs	r3, #1
 8004574:	e044      	b.n	8004600 <HAL_UART_Init+0x9c>
  {
    /* Check the parameters */
    assert_param((IS_UART_INSTANCE(huart->Instance)) || (IS_LPUART_INSTANCE(huart->Instance)));
  }

  if (huart->gState == HAL_UART_STATE_RESET)
 8004576:	687b      	ldr	r3, [r7, #4]
 8004578:	6f9b      	ldr	r3, [r3, #120]	; 0x78
 800457a:	2b00      	cmp	r3, #0
 800457c:	d107      	bne.n	800458e <HAL_UART_Init+0x2a>
  {
    /* Allocate lock resource and initialize it */
    huart->Lock = HAL_UNLOCKED;
 800457e:	687b      	ldr	r3, [r7, #4]
 8004580:	2274      	movs	r2, #116	; 0x74
 8004582:	2100      	movs	r1, #0
 8004584:	5499      	strb	r1, [r3, r2]

    /* Init the low level hardware */
    huart->MspInitCallback(huart);
#else
    /* Init the low level hardware : GPIO, CLOCK */
    HAL_UART_MspInit(huart);
 8004586:	687b      	ldr	r3, [r7, #4]
 8004588:	0018      	movs	r0, r3
 800458a:	f7fd f94f 	bl	800182c <HAL_UART_MspInit>
#endif /* (USE_HAL_UART_REGISTER_CALLBACKS) */
  }

  huart->gState = HAL_UART_STATE_BUSY;
 800458e:	687b      	ldr	r3, [r7, #4]
 8004590:	2224      	movs	r2, #36	; 0x24
 8004592:	679a      	str	r2, [r3, #120]	; 0x78

  __HAL_UART_DISABLE(huart);
 8004594:	687b      	ldr	r3, [r7, #4]
 8004596:	681b      	ldr	r3, [r3, #0]
 8004598:	681a      	ldr	r2, [r3, #0]
 800459a:	687b      	ldr	r3, [r7, #4]
 800459c:	681b      	ldr	r3, [r3, #0]
 800459e:	2101      	movs	r1, #1
 80045a0:	438a      	bics	r2, r1
 80045a2:	601a      	str	r2, [r3, #0]

  /* Set the UART Communication parameters */
  if (UART_SetConfig(huart) == HAL_ERROR)
 80045a4:	687b      	ldr	r3, [r7, #4]
 80045a6:	0018      	movs	r0, r3
 80045a8:	f000 fcbc 	bl	8004f24 <UART_SetConfig>
 80045ac:	0003      	movs	r3, r0
 80045ae:	2b01      	cmp	r3, #1
 80045b0:	d101      	bne.n	80045b6 <HAL_UART_Init+0x52>
  {
    return HAL_ERROR;
 80045b2:	2301      	movs	r3, #1
 80045b4:	e024      	b.n	8004600 <HAL_UART_Init+0x9c>
  }

  if (huart->AdvancedInit.AdvFeatureInit != UART_ADVFEATURE_NO_INIT)
 80045b6:	687b      	ldr	r3, [r7, #4]
 80045b8:	6a5b      	ldr	r3, [r3, #36]	; 0x24
 80045ba:	2b00      	cmp	r3, #0
 80045bc:	d003      	beq.n	80045c6 <HAL_UART_Init+0x62>
  {
    UART_AdvFeatureConfig(huart);
 80045be:	687b      	ldr	r3, [r7, #4]
 80045c0:	0018      	movs	r0, r3
 80045c2:	f000 ff6d 	bl	80054a0 <UART_AdvFeatureConfig>
  }

  /* In asynchronous mode, the following bits must be kept cleared:
  - LINEN and CLKEN bits in the USART_CR2 register,
  - SCEN, HDSEL and IREN  bits in the USART_CR3 register.*/
  CLEAR_BIT(huart->Instance->CR2, (USART_CR2_LINEN | USART_CR2_CLKEN));
 80045c6:	687b      	ldr	r3, [r7, #4]
 80045c8:	681b      	ldr	r3, [r3, #0]
 80045ca:	685a      	ldr	r2, [r3, #4]
 80045cc:	687b      	ldr	r3, [r7, #4]
 80045ce:	681b      	ldr	r3, [r3, #0]
 80045d0:	490d      	ldr	r1, [pc, #52]	; (8004608 <HAL_UART_Init+0xa4>)
 80045d2:	400a      	ands	r2, r1
 80045d4:	605a      	str	r2, [r3, #4]
  CLEAR_BIT(huart->Instance->CR3, (USART_CR3_SCEN | USART_CR3_HDSEL | USART_CR3_IREN));
 80045d6:	687b      	ldr	r3, [r7, #4]
 80045d8:	681b      	ldr	r3, [r3, #0]
 80045da:	689a      	ldr	r2, [r3, #8]
 80045dc:	687b      	ldr	r3, [r7, #4]
 80045de:	681b      	ldr	r3, [r3, #0]
 80045e0:	212a      	movs	r1, #42	; 0x2a
 80045e2:	438a      	bics	r2, r1
 80045e4:	609a      	str	r2, [r3, #8]

  __HAL_UART_ENABLE(huart);
 80045e6:	687b      	ldr	r3, [r7, #4]
 80045e8:	681b      	ldr	r3, [r3, #0]
 80045ea:	681a      	ldr	r2, [r3, #0]
 80045ec:	687b      	ldr	r3, [r7, #4]
 80045ee:	681b      	ldr	r3, [r3, #0]
 80045f0:	2101      	movs	r1, #1
 80045f2:	430a      	orrs	r2, r1
 80045f4:	601a      	str	r2, [r3, #0]

  /* TEACK and/or REACK to check before moving huart->gState and huart->RxState to Ready */
  return (UART_CheckIdleState(huart));
 80045f6:	687b      	ldr	r3, [r7, #4]
 80045f8:	0018      	movs	r0, r3
 80045fa:	f001 f805 	bl	8005608 <UART_CheckIdleState>
 80045fe:	0003      	movs	r3, r0
}
 8004600:	0018      	movs	r0, r3
 8004602:	46bd      	mov	sp, r7
 8004604:	b002      	add	sp, #8
 8004606:	bd80      	pop	{r7, pc}
 8004608:	ffffb7ff 	.word	0xffffb7ff

0800460c <HAL_UART_Transmit>:
  * @param Size    Amount of data elements (u8 or u16) to be sent.
  * @param Timeout Timeout duration.
  * @retval HAL status
  */
HAL_StatusTypeDef HAL_UART_Transmit(UART_HandleTypeDef *huart, uint8_t *pData, uint16_t Size, uint32_t Timeout)
{
 800460c:	b580      	push	{r7, lr}
 800460e:	b08a      	sub	sp, #40	; 0x28
 8004610:	af02      	add	r7, sp, #8
 8004612:	60f8      	str	r0, [r7, #12]
 8004614:	60b9      	str	r1, [r7, #8]
 8004616:	603b      	str	r3, [r7, #0]
 8004618:	1dbb      	adds	r3, r7, #6
 800461a:	801a      	strh	r2, [r3, #0]
  uint8_t  *pdata8bits;
  uint16_t *pdata16bits;
  uint32_t tickstart;

  /* Check that a Tx process is not already ongoing */
  if (huart->gState == HAL_UART_STATE_READY)
 800461c:	68fb      	ldr	r3, [r7, #12]
 800461e:	6f9b      	ldr	r3, [r3, #120]	; 0x78
 8004620:	2b20      	cmp	r3, #32
 8004622:	d000      	beq.n	8004626 <HAL_UART_Transmit+0x1a>
 8004624:	e095      	b.n	8004752 <HAL_UART_Transmit+0x146>
  {
    if ((pData == NULL) || (Size == 0U))
 8004626:	68bb      	ldr	r3, [r7, #8]
 8004628:	2b00      	cmp	r3, #0
 800462a:	d003      	beq.n	8004634 <HAL_UART_Transmit+0x28>
 800462c:	1dbb      	adds	r3, r7, #6
 800462e:	881b      	ldrh	r3, [r3, #0]
 8004630:	2b00      	cmp	r3, #0
 8004632:	d101      	bne.n	8004638 <HAL_UART_Transmit+0x2c>
    {
      return  HAL_ERROR;
 8004634:	2301      	movs	r3, #1
 8004636:	e08d      	b.n	8004754 <HAL_UART_Transmit+0x148>
    }

    /* In case of 9bits/No Parity transfer, pData buffer provided as input parameter
       should be aligned on a u16 frontier, as data to be filled into TDR will be
       handled through a u16 cast. */
    if ((huart->Init.WordLength == UART_WORDLENGTH_9B) && (huart->Init.Parity == UART_PARITY_NONE))
 8004638:	68fb      	ldr	r3, [r7, #12]
 800463a:	689a      	ldr	r2, [r3, #8]
 800463c:	2380      	movs	r3, #128	; 0x80
 800463e:	015b      	lsls	r3, r3, #5
 8004640:	429a      	cmp	r2, r3
 8004642:	d109      	bne.n	8004658 <HAL_UART_Transmit+0x4c>
 8004644:	68fb      	ldr	r3, [r7, #12]
 8004646:	691b      	ldr	r3, [r3, #16]
 8004648:	2b00      	cmp	r3, #0
 800464a:	d105      	bne.n	8004658 <HAL_UART_Transmit+0x4c>
    {
      if ((((uint32_t)pData) & 1U) != 0U)
 800464c:	68bb      	ldr	r3, [r7, #8]
 800464e:	2201      	movs	r2, #1
 8004650:	4013      	ands	r3, r2
 8004652:	d001      	beq.n	8004658 <HAL_UART_Transmit+0x4c>
      {
        return  HAL_ERROR;
 8004654:	2301      	movs	r3, #1
 8004656:	e07d      	b.n	8004754 <HAL_UART_Transmit+0x148>
      }
    }

    __HAL_LOCK(huart);
 8004658:	68fb      	ldr	r3, [r7, #12]
 800465a:	2274      	movs	r2, #116	; 0x74
 800465c:	5c9b      	ldrb	r3, [r3, r2]
 800465e:	2b01      	cmp	r3, #1
 8004660:	d101      	bne.n	8004666 <HAL_UART_Transmit+0x5a>
 8004662:	2302      	movs	r3, #2
 8004664:	e076      	b.n	8004754 <HAL_UART_Transmit+0x148>
 8004666:	68fb      	ldr	r3, [r7, #12]
 8004668:	2274      	movs	r2, #116	; 0x74
 800466a:	2101      	movs	r1, #1
 800466c:	5499      	strb	r1, [r3, r2]

    huart->ErrorCode = HAL_UART_ERROR_NONE;
 800466e:	68fb      	ldr	r3, [r7, #12]
 8004670:	2280      	movs	r2, #128	; 0x80
 8004672:	2100      	movs	r1, #0
 8004674:	5099      	str	r1, [r3, r2]
    huart->gState = HAL_UART_STATE_BUSY_TX;
 8004676:	68fb      	ldr	r3, [r7, #12]
 8004678:	2221      	movs	r2, #33	; 0x21
 800467a:	679a      	str	r2, [r3, #120]	; 0x78

    /* Init tickstart for timeout management */
    tickstart = HAL_GetTick();
 800467c:	f7fd f9ec 	bl	8001a58 <HAL_GetTick>
 8004680:	0003      	movs	r3, r0
 8004682:	617b      	str	r3, [r7, #20]

    huart->TxXferSize  = Size;
 8004684:	68fb      	ldr	r3, [r7, #12]
 8004686:	1dba      	adds	r2, r7, #6
 8004688:	2150      	movs	r1, #80	; 0x50
 800468a:	8812      	ldrh	r2, [r2, #0]
 800468c:	525a      	strh	r2, [r3, r1]
    huart->TxXferCount = Size;
 800468e:	68fb      	ldr	r3, [r7, #12]
 8004690:	1dba      	adds	r2, r7, #6
 8004692:	2152      	movs	r1, #82	; 0x52
 8004694:	8812      	ldrh	r2, [r2, #0]
 8004696:	525a      	strh	r2, [r3, r1]

    /* In case of 9bits/No Parity transfer, pData needs to be handled as a uint16_t pointer */
    if ((huart->Init.WordLength == UART_WORDLENGTH_9B) && (huart->Init.Parity == UART_PARITY_NONE))
 8004698:	68fb      	ldr	r3, [r7, #12]
 800469a:	689a      	ldr	r2, [r3, #8]
 800469c:	2380      	movs	r3, #128	; 0x80
 800469e:	015b      	lsls	r3, r3, #5
 80046a0:	429a      	cmp	r2, r3
 80046a2:	d108      	bne.n	80046b6 <HAL_UART_Transmit+0xaa>
 80046a4:	68fb      	ldr	r3, [r7, #12]
 80046a6:	691b      	ldr	r3, [r3, #16]
 80046a8:	2b00      	cmp	r3, #0
 80046aa:	d104      	bne.n	80046b6 <HAL_UART_Transmit+0xaa>
    {
      pdata8bits  = NULL;
 80046ac:	2300      	movs	r3, #0
 80046ae:	61fb      	str	r3, [r7, #28]
      pdata16bits = (uint16_t *) pData;
 80046b0:	68bb      	ldr	r3, [r7, #8]
 80046b2:	61bb      	str	r3, [r7, #24]
 80046b4:	e003      	b.n	80046be <HAL_UART_Transmit+0xb2>
    }
    else
    {
      pdata8bits  = pData;
 80046b6:	68bb      	ldr	r3, [r7, #8]
 80046b8:	61fb      	str	r3, [r7, #28]
      pdata16bits = NULL;
 80046ba:	2300      	movs	r3, #0
 80046bc:	61bb      	str	r3, [r7, #24]
    }

    __HAL_UNLOCK(huart);
 80046be:	68fb      	ldr	r3, [r7, #12]
 80046c0:	2274      	movs	r2, #116	; 0x74
 80046c2:	2100      	movs	r1, #0
 80046c4:	5499      	strb	r1, [r3, r2]

    while (huart->TxXferCount > 0U)
 80046c6:	e02c      	b.n	8004722 <HAL_UART_Transmit+0x116>
    {
      if (UART_WaitOnFlagUntilTimeout(huart, UART_FLAG_TXE, RESET, tickstart, Timeout) != HAL_OK)
 80046c8:	697a      	ldr	r2, [r7, #20]
 80046ca:	68f8      	ldr	r0, [r7, #12]
 80046cc:	683b      	ldr	r3, [r7, #0]
 80046ce:	9300      	str	r3, [sp, #0]
 80046d0:	0013      	movs	r3, r2
 80046d2:	2200      	movs	r2, #0
 80046d4:	2180      	movs	r1, #128	; 0x80
 80046d6:	f000 ffdf 	bl	8005698 <UART_WaitOnFlagUntilTimeout>
 80046da:	1e03      	subs	r3, r0, #0
 80046dc:	d001      	beq.n	80046e2 <HAL_UART_Transmit+0xd6>
      {
        return HAL_TIMEOUT;
 80046de:	2303      	movs	r3, #3
 80046e0:	e038      	b.n	8004754 <HAL_UART_Transmit+0x148>
      }
      if (pdata8bits == NULL)
 80046e2:	69fb      	ldr	r3, [r7, #28]
 80046e4:	2b00      	cmp	r3, #0
 80046e6:	d10b      	bne.n	8004700 <HAL_UART_Transmit+0xf4>
      {
        huart->Instance->TDR = (uint16_t)(*pdata16bits & 0x01FFU);
 80046e8:	69bb      	ldr	r3, [r7, #24]
 80046ea:	881b      	ldrh	r3, [r3, #0]
 80046ec:	001a      	movs	r2, r3
 80046ee:	68fb      	ldr	r3, [r7, #12]
 80046f0:	681b      	ldr	r3, [r3, #0]
 80046f2:	05d2      	lsls	r2, r2, #23
 80046f4:	0dd2      	lsrs	r2, r2, #23
 80046f6:	629a      	str	r2, [r3, #40]	; 0x28
        pdata16bits++;
 80046f8:	69bb      	ldr	r3, [r7, #24]
 80046fa:	3302      	adds	r3, #2
 80046fc:	61bb      	str	r3, [r7, #24]
 80046fe:	e007      	b.n	8004710 <HAL_UART_Transmit+0x104>
      }
      else
      {
        huart->Instance->TDR = (uint8_t)(*pdata8bits & 0xFFU);
 8004700:	69fb      	ldr	r3, [r7, #28]
 8004702:	781a      	ldrb	r2, [r3, #0]
 8004704:	68fb      	ldr	r3, [r7, #12]
 8004706:	681b      	ldr	r3, [r3, #0]
 8004708:	629a      	str	r2, [r3, #40]	; 0x28
        pdata8bits++;
 800470a:	69fb      	ldr	r3, [r7, #28]
 800470c:	3301      	adds	r3, #1
 800470e:	61fb      	str	r3, [r7, #28]
      }
      huart->TxXferCount--;
 8004710:	68fb      	ldr	r3, [r7, #12]
 8004712:	2252      	movs	r2, #82	; 0x52
 8004714:	5a9b      	ldrh	r3, [r3, r2]
 8004716:	b29b      	uxth	r3, r3
 8004718:	3b01      	subs	r3, #1
 800471a:	b299      	uxth	r1, r3
 800471c:	68fb      	ldr	r3, [r7, #12]
 800471e:	2252      	movs	r2, #82	; 0x52
 8004720:	5299      	strh	r1, [r3, r2]
    while (huart->TxXferCount > 0U)
 8004722:	68fb      	ldr	r3, [r7, #12]
 8004724:	2252      	movs	r2, #82	; 0x52
 8004726:	5a9b      	ldrh	r3, [r3, r2]
 8004728:	b29b      	uxth	r3, r3
 800472a:	2b00      	cmp	r3, #0
 800472c:	d1cc      	bne.n	80046c8 <HAL_UART_Transmit+0xbc>
    }

    if (UART_WaitOnFlagUntilTimeout(huart, UART_FLAG_TC, RESET, tickstart, Timeout) != HAL_OK)
 800472e:	697a      	ldr	r2, [r7, #20]
 8004730:	68f8      	ldr	r0, [r7, #12]
 8004732:	683b      	ldr	r3, [r7, #0]
 8004734:	9300      	str	r3, [sp, #0]
 8004736:	0013      	movs	r3, r2
 8004738:	2200      	movs	r2, #0
 800473a:	2140      	movs	r1, #64	; 0x40
 800473c:	f000 ffac 	bl	8005698 <UART_WaitOnFlagUntilTimeout>
 8004740:	1e03      	subs	r3, r0, #0
 8004742:	d001      	beq.n	8004748 <HAL_UART_Transmit+0x13c>
    {
      return HAL_TIMEOUT;
 8004744:	2303      	movs	r3, #3
 8004746:	e005      	b.n	8004754 <HAL_UART_Transmit+0x148>
    }

    /* At end of Tx process, restore huart->gState to Ready */
    huart->gState = HAL_UART_STATE_READY;
 8004748:	68fb      	ldr	r3, [r7, #12]
 800474a:	2220      	movs	r2, #32
 800474c:	679a      	str	r2, [r3, #120]	; 0x78

    return HAL_OK;
 800474e:	2300      	movs	r3, #0
 8004750:	e000      	b.n	8004754 <HAL_UART_Transmit+0x148>
  }
  else
  {
    return HAL_BUSY;
 8004752:	2302      	movs	r3, #2
  }
}
 8004754:	0018      	movs	r0, r3
 8004756:	46bd      	mov	sp, r7
 8004758:	b008      	add	sp, #32
 800475a:	bd80      	pop	{r7, pc}

0800475c <HAL_UART_Receive>:
  * @param Size    Amount of data elements (u8 or u16) to be received.
  * @param Timeout Timeout duration.
  * @retval HAL status
  */
HAL_StatusTypeDef HAL_UART_Receive(UART_HandleTypeDef *huart, uint8_t *pData, uint16_t Size, uint32_t Timeout)
{
 800475c:	b580      	push	{r7, lr}
 800475e:	b08a      	sub	sp, #40	; 0x28
 8004760:	af02      	add	r7, sp, #8
 8004762:	60f8      	str	r0, [r7, #12]
 8004764:	60b9      	str	r1, [r7, #8]
 8004766:	603b      	str	r3, [r7, #0]
 8004768:	1dbb      	adds	r3, r7, #6
 800476a:	801a      	strh	r2, [r3, #0]
  uint16_t *pdata16bits;
  uint16_t uhMask;
  uint32_t tickstart;

  /* Check that a Rx process is not already ongoing */
  if (huart->RxState == HAL_UART_STATE_READY)
 800476c:	68fb      	ldr	r3, [r7, #12]
 800476e:	6fdb      	ldr	r3, [r3, #124]	; 0x7c
 8004770:	2b20      	cmp	r3, #32
 8004772:	d000      	beq.n	8004776 <HAL_UART_Receive+0x1a>
 8004774:	e0d9      	b.n	800492a <HAL_UART_Receive+0x1ce>
  {
    if ((pData == NULL) || (Size == 0U))
 8004776:	68bb      	ldr	r3, [r7, #8]
 8004778:	2b00      	cmp	r3, #0
 800477a:	d003      	beq.n	8004784 <HAL_UART_Receive+0x28>
 800477c:	1dbb      	adds	r3, r7, #6
 800477e:	881b      	ldrh	r3, [r3, #0]
 8004780:	2b00      	cmp	r3, #0
 8004782:	d101      	bne.n	8004788 <HAL_UART_Receive+0x2c>
    {
      return  HAL_ERROR;
 8004784:	2301      	movs	r3, #1
 8004786:	e0d1      	b.n	800492c <HAL_UART_Receive+0x1d0>
    }

    /* In case of 9bits/No Parity transfer, pData buffer provided as input parameter
       should be aligned on a u16 frontier, as data to be received from RDR will be
       handled through a u16 cast. */
    if ((huart->Init.WordLength == UART_WORDLENGTH_9B) && (huart->Init.Parity == UART_PARITY_NONE))
 8004788:	68fb      	ldr	r3, [r7, #12]
 800478a:	689a      	ldr	r2, [r3, #8]
 800478c:	2380      	movs	r3, #128	; 0x80
 800478e:	015b      	lsls	r3, r3, #5
 8004790:	429a      	cmp	r2, r3
 8004792:	d109      	bne.n	80047a8 <HAL_UART_Receive+0x4c>
 8004794:	68fb      	ldr	r3, [r7, #12]
 8004796:	691b      	ldr	r3, [r3, #16]
 8004798:	2b00      	cmp	r3, #0
 800479a:	d105      	bne.n	80047a8 <HAL_UART_Receive+0x4c>
    {
      if ((((uint32_t)pData) & 1U) != 0U)
 800479c:	68bb      	ldr	r3, [r7, #8]
 800479e:	2201      	movs	r2, #1
 80047a0:	4013      	ands	r3, r2
 80047a2:	d001      	beq.n	80047a8 <HAL_UART_Receive+0x4c>
      {
        return  HAL_ERROR;
 80047a4:	2301      	movs	r3, #1
 80047a6:	e0c1      	b.n	800492c <HAL_UART_Receive+0x1d0>
      }
    }

    __HAL_LOCK(huart);
 80047a8:	68fb      	ldr	r3, [r7, #12]
 80047aa:	2274      	movs	r2, #116	; 0x74
 80047ac:	5c9b      	ldrb	r3, [r3, r2]
 80047ae:	2b01      	cmp	r3, #1
 80047b0:	d101      	bne.n	80047b6 <HAL_UART_Receive+0x5a>
 80047b2:	2302      	movs	r3, #2
 80047b4:	e0ba      	b.n	800492c <HAL_UART_Receive+0x1d0>
 80047b6:	68fb      	ldr	r3, [r7, #12]
 80047b8:	2274      	movs	r2, #116	; 0x74
 80047ba:	2101      	movs	r1, #1
 80047bc:	5499      	strb	r1, [r3, r2]

    huart->ErrorCode = HAL_UART_ERROR_NONE;
 80047be:	68fb      	ldr	r3, [r7, #12]
 80047c0:	2280      	movs	r2, #128	; 0x80
 80047c2:	2100      	movs	r1, #0
 80047c4:	5099      	str	r1, [r3, r2]
    huart->RxState = HAL_UART_STATE_BUSY_RX;
 80047c6:	68fb      	ldr	r3, [r7, #12]
 80047c8:	2222      	movs	r2, #34	; 0x22
 80047ca:	67da      	str	r2, [r3, #124]	; 0x7c
    huart->ReceptionType = HAL_UART_RECEPTION_STANDARD;
 80047cc:	68fb      	ldr	r3, [r7, #12]
 80047ce:	2200      	movs	r2, #0
 80047d0:	661a      	str	r2, [r3, #96]	; 0x60

    /* Init tickstart for timeout management */
    tickstart = HAL_GetTick();
 80047d2:	f7fd f941 	bl	8001a58 <HAL_GetTick>
 80047d6:	0003      	movs	r3, r0
 80047d8:	617b      	str	r3, [r7, #20]

    huart->RxXferSize  = Size;
 80047da:	68fb      	ldr	r3, [r7, #12]
 80047dc:	1dba      	adds	r2, r7, #6
 80047de:	2158      	movs	r1, #88	; 0x58
 80047e0:	8812      	ldrh	r2, [r2, #0]
 80047e2:	525a      	strh	r2, [r3, r1]
    huart->RxXferCount = Size;
 80047e4:	68fb      	ldr	r3, [r7, #12]
 80047e6:	1dba      	adds	r2, r7, #6
 80047e8:	215a      	movs	r1, #90	; 0x5a
 80047ea:	8812      	ldrh	r2, [r2, #0]
 80047ec:	525a      	strh	r2, [r3, r1]

    /* Computation of UART mask to apply to RDR register */
    UART_MASK_COMPUTATION(huart);
 80047ee:	68fb      	ldr	r3, [r7, #12]
 80047f0:	689a      	ldr	r2, [r3, #8]
 80047f2:	2380      	movs	r3, #128	; 0x80
 80047f4:	015b      	lsls	r3, r3, #5
 80047f6:	429a      	cmp	r2, r3
 80047f8:	d10d      	bne.n	8004816 <HAL_UART_Receive+0xba>
 80047fa:	68fb      	ldr	r3, [r7, #12]
 80047fc:	691b      	ldr	r3, [r3, #16]
 80047fe:	2b00      	cmp	r3, #0
 8004800:	d104      	bne.n	800480c <HAL_UART_Receive+0xb0>
 8004802:	68fb      	ldr	r3, [r7, #12]
 8004804:	225c      	movs	r2, #92	; 0x5c
 8004806:	494b      	ldr	r1, [pc, #300]	; (8004934 <HAL_UART_Receive+0x1d8>)
 8004808:	5299      	strh	r1, [r3, r2]
 800480a:	e02e      	b.n	800486a <HAL_UART_Receive+0x10e>
 800480c:	68fb      	ldr	r3, [r7, #12]
 800480e:	225c      	movs	r2, #92	; 0x5c
 8004810:	21ff      	movs	r1, #255	; 0xff
 8004812:	5299      	strh	r1, [r3, r2]
 8004814:	e029      	b.n	800486a <HAL_UART_Receive+0x10e>
 8004816:	68fb      	ldr	r3, [r7, #12]
 8004818:	689b      	ldr	r3, [r3, #8]
 800481a:	2b00      	cmp	r3, #0
 800481c:	d10d      	bne.n	800483a <HAL_UART_Receive+0xde>
 800481e:	68fb      	ldr	r3, [r7, #12]
 8004820:	691b      	ldr	r3, [r3, #16]
 8004822:	2b00      	cmp	r3, #0
 8004824:	d104      	bne.n	8004830 <HAL_UART_Receive+0xd4>
 8004826:	68fb      	ldr	r3, [r7, #12]
 8004828:	225c      	movs	r2, #92	; 0x5c
 800482a:	21ff      	movs	r1, #255	; 0xff
 800482c:	5299      	strh	r1, [r3, r2]
 800482e:	e01c      	b.n	800486a <HAL_UART_Receive+0x10e>
 8004830:	68fb      	ldr	r3, [r7, #12]
 8004832:	225c      	movs	r2, #92	; 0x5c
 8004834:	217f      	movs	r1, #127	; 0x7f
 8004836:	5299      	strh	r1, [r3, r2]
 8004838:	e017      	b.n	800486a <HAL_UART_Receive+0x10e>
 800483a:	68fb      	ldr	r3, [r7, #12]
 800483c:	689a      	ldr	r2, [r3, #8]
 800483e:	2380      	movs	r3, #128	; 0x80
 8004840:	055b      	lsls	r3, r3, #21
 8004842:	429a      	cmp	r2, r3
 8004844:	d10d      	bne.n	8004862 <HAL_UART_Receive+0x106>
 8004846:	68fb      	ldr	r3, [r7, #12]
 8004848:	691b      	ldr	r3, [r3, #16]
 800484a:	2b00      	cmp	r3, #0
 800484c:	d104      	bne.n	8004858 <HAL_UART_Receive+0xfc>
 800484e:	68fb      	ldr	r3, [r7, #12]
 8004850:	225c      	movs	r2, #92	; 0x5c
 8004852:	217f      	movs	r1, #127	; 0x7f
 8004854:	5299      	strh	r1, [r3, r2]
 8004856:	e008      	b.n	800486a <HAL_UART_Receive+0x10e>
 8004858:	68fb      	ldr	r3, [r7, #12]
 800485a:	225c      	movs	r2, #92	; 0x5c
 800485c:	213f      	movs	r1, #63	; 0x3f
 800485e:	5299      	strh	r1, [r3, r2]
 8004860:	e003      	b.n	800486a <HAL_UART_Receive+0x10e>
 8004862:	68fb      	ldr	r3, [r7, #12]
 8004864:	225c      	movs	r2, #92	; 0x5c
 8004866:	2100      	movs	r1, #0
 8004868:	5299      	strh	r1, [r3, r2]
    uhMask = huart->Mask;
 800486a:	2312      	movs	r3, #18
 800486c:	18fb      	adds	r3, r7, r3
 800486e:	68fa      	ldr	r2, [r7, #12]
 8004870:	215c      	movs	r1, #92	; 0x5c
 8004872:	5a52      	ldrh	r2, [r2, r1]
 8004874:	801a      	strh	r2, [r3, #0]

    /* In case of 9bits/No Parity transfer, pRxData needs to be handled as a uint16_t pointer */
    if ((huart->Init.WordLength == UART_WORDLENGTH_9B) && (huart->Init.Parity == UART_PARITY_NONE))
 8004876:	68fb      	ldr	r3, [r7, #12]
 8004878:	689a      	ldr	r2, [r3, #8]
 800487a:	2380      	movs	r3, #128	; 0x80
 800487c:	015b      	lsls	r3, r3, #5
 800487e:	429a      	cmp	r2, r3
 8004880:	d108      	bne.n	8004894 <HAL_UART_Receive+0x138>
 8004882:	68fb      	ldr	r3, [r7, #12]
 8004884:	691b      	ldr	r3, [r3, #16]
 8004886:	2b00      	cmp	r3, #0
 8004888:	d104      	bne.n	8004894 <HAL_UART_Receive+0x138>
    {
      pdata8bits  = NULL;
 800488a:	2300      	movs	r3, #0
 800488c:	61fb      	str	r3, [r7, #28]
      pdata16bits = (uint16_t *) pData;
 800488e:	68bb      	ldr	r3, [r7, #8]
 8004890:	61bb      	str	r3, [r7, #24]
 8004892:	e003      	b.n	800489c <HAL_UART_Receive+0x140>
    }
    else
    {
      pdata8bits  = pData;
 8004894:	68bb      	ldr	r3, [r7, #8]
 8004896:	61fb      	str	r3, [r7, #28]
      pdata16bits = NULL;
 8004898:	2300      	movs	r3, #0
 800489a:	61bb      	str	r3, [r7, #24]
    }

    __HAL_UNLOCK(huart);
 800489c:	68fb      	ldr	r3, [r7, #12]
 800489e:	2274      	movs	r2, #116	; 0x74
 80048a0:	2100      	movs	r1, #0
 80048a2:	5499      	strb	r1, [r3, r2]

    /* as long as data have to be received */
    while (huart->RxXferCount > 0U)
 80048a4:	e036      	b.n	8004914 <HAL_UART_Receive+0x1b8>
    {
      if (UART_WaitOnFlagUntilTimeout(huart, UART_FLAG_RXNE, RESET, tickstart, Timeout) != HAL_OK)
 80048a6:	697a      	ldr	r2, [r7, #20]
 80048a8:	68f8      	ldr	r0, [r7, #12]
 80048aa:	683b      	ldr	r3, [r7, #0]
 80048ac:	9300      	str	r3, [sp, #0]
 80048ae:	0013      	movs	r3, r2
 80048b0:	2200      	movs	r2, #0
 80048b2:	2120      	movs	r1, #32
 80048b4:	f000 fef0 	bl	8005698 <UART_WaitOnFlagUntilTimeout>
 80048b8:	1e03      	subs	r3, r0, #0
 80048ba:	d001      	beq.n	80048c0 <HAL_UART_Receive+0x164>
      {
        return HAL_TIMEOUT;
 80048bc:	2303      	movs	r3, #3
 80048be:	e035      	b.n	800492c <HAL_UART_Receive+0x1d0>
      }
      if (pdata8bits == NULL)
 80048c0:	69fb      	ldr	r3, [r7, #28]
 80048c2:	2b00      	cmp	r3, #0
 80048c4:	d10e      	bne.n	80048e4 <HAL_UART_Receive+0x188>
      {
        *pdata16bits = (uint16_t)(huart->Instance->RDR & uhMask);
 80048c6:	68fb      	ldr	r3, [r7, #12]
 80048c8:	681b      	ldr	r3, [r3, #0]
 80048ca:	6a5b      	ldr	r3, [r3, #36]	; 0x24
 80048cc:	b29b      	uxth	r3, r3
 80048ce:	2212      	movs	r2, #18
 80048d0:	18ba      	adds	r2, r7, r2
 80048d2:	8812      	ldrh	r2, [r2, #0]
 80048d4:	4013      	ands	r3, r2
 80048d6:	b29a      	uxth	r2, r3
 80048d8:	69bb      	ldr	r3, [r7, #24]
 80048da:	801a      	strh	r2, [r3, #0]
        pdata16bits++;
 80048dc:	69bb      	ldr	r3, [r7, #24]
 80048de:	3302      	adds	r3, #2
 80048e0:	61bb      	str	r3, [r7, #24]
 80048e2:	e00e      	b.n	8004902 <HAL_UART_Receive+0x1a6>
      }
      else
      {
        *pdata8bits = (uint8_t)(huart->Instance->RDR & (uint8_t)uhMask);
 80048e4:	68fb      	ldr	r3, [r7, #12]
 80048e6:	681b      	ldr	r3, [r3, #0]
 80048e8:	6a5b      	ldr	r3, [r3, #36]	; 0x24
 80048ea:	b2db      	uxtb	r3, r3
 80048ec:	2212      	movs	r2, #18
 80048ee:	18ba      	adds	r2, r7, r2
 80048f0:	8812      	ldrh	r2, [r2, #0]
 80048f2:	b2d2      	uxtb	r2, r2
 80048f4:	4013      	ands	r3, r2
 80048f6:	b2da      	uxtb	r2, r3
 80048f8:	69fb      	ldr	r3, [r7, #28]
 80048fa:	701a      	strb	r2, [r3, #0]
        pdata8bits++;
 80048fc:	69fb      	ldr	r3, [r7, #28]
 80048fe:	3301      	adds	r3, #1
 8004900:	61fb      	str	r3, [r7, #28]
      }
      huart->RxXferCount--;
 8004902:	68fb      	ldr	r3, [r7, #12]
 8004904:	225a      	movs	r2, #90	; 0x5a
 8004906:	5a9b      	ldrh	r3, [r3, r2]
 8004908:	b29b      	uxth	r3, r3
 800490a:	3b01      	subs	r3, #1
 800490c:	b299      	uxth	r1, r3
 800490e:	68fb      	ldr	r3, [r7, #12]
 8004910:	225a      	movs	r2, #90	; 0x5a
 8004912:	5299      	strh	r1, [r3, r2]
    while (huart->RxXferCount > 0U)
 8004914:	68fb      	ldr	r3, [r7, #12]
 8004916:	225a      	movs	r2, #90	; 0x5a
 8004918:	5a9b      	ldrh	r3, [r3, r2]
 800491a:	b29b      	uxth	r3, r3
 800491c:	2b00      	cmp	r3, #0
 800491e:	d1c2      	bne.n	80048a6 <HAL_UART_Receive+0x14a>
    }

    /* At end of Rx process, restore huart->RxState to Ready */
    huart->RxState = HAL_UART_STATE_READY;
 8004920:	68fb      	ldr	r3, [r7, #12]
 8004922:	2220      	movs	r2, #32
 8004924:	67da      	str	r2, [r3, #124]	; 0x7c

    return HAL_OK;
 8004926:	2300      	movs	r3, #0
 8004928:	e000      	b.n	800492c <HAL_UART_Receive+0x1d0>
  }
  else
  {
    return HAL_BUSY;
 800492a:	2302      	movs	r3, #2
  }
}
 800492c:	0018      	movs	r0, r3
 800492e:	46bd      	mov	sp, r7
 8004930:	b008      	add	sp, #32
 8004932:	bd80      	pop	{r7, pc}
 8004934:	000001ff 	.word	0x000001ff

08004938 <HAL_UART_IRQHandler>:
  * @brief Handle UART interrupt request.
  * @param huart UART handle.
  * @retval None
  */
void HAL_UART_IRQHandler(UART_HandleTypeDef *huart)
{
 8004938:	b590      	push	{r4, r7, lr}
 800493a:	b0ab      	sub	sp, #172	; 0xac
 800493c:	af00      	add	r7, sp, #0
 800493e:	6078      	str	r0, [r7, #4]
  uint32_t isrflags   = READ_REG(huart->Instance->ISR);
 8004940:	687b      	ldr	r3, [r7, #4]
 8004942:	681b      	ldr	r3, [r3, #0]
 8004944:	69db      	ldr	r3, [r3, #28]
 8004946:	22a4      	movs	r2, #164	; 0xa4
 8004948:	18b9      	adds	r1, r7, r2
 800494a:	600b      	str	r3, [r1, #0]
  uint32_t cr1its     = READ_REG(huart->Instance->CR1);
 800494c:	687b      	ldr	r3, [r7, #4]
 800494e:	681b      	ldr	r3, [r3, #0]
 8004950:	681b      	ldr	r3, [r3, #0]
 8004952:	20a0      	movs	r0, #160	; 0xa0
 8004954:	1839      	adds	r1, r7, r0
 8004956:	600b      	str	r3, [r1, #0]
  uint32_t cr3its     = READ_REG(huart->Instance->CR3);
 8004958:	687b      	ldr	r3, [r7, #4]
 800495a:	681b      	ldr	r3, [r3, #0]
 800495c:	689b      	ldr	r3, [r3, #8]
 800495e:	219c      	movs	r1, #156	; 0x9c
 8004960:	1879      	adds	r1, r7, r1
 8004962:	600b      	str	r3, [r1, #0]

  uint32_t errorflags;
  uint32_t errorcode;

  /* If no error occurs */
  errorflags = (isrflags & (uint32_t)(USART_ISR_PE | USART_ISR_FE | USART_ISR_ORE | USART_ISR_NE | USART_ISR_RTOF));
 8004964:	0011      	movs	r1, r2
 8004966:	18bb      	adds	r3, r7, r2
 8004968:	681b      	ldr	r3, [r3, #0]
 800496a:	4a99      	ldr	r2, [pc, #612]	; (8004bd0 <HAL_UART_IRQHandler+0x298>)
 800496c:	4013      	ands	r3, r2
 800496e:	2298      	movs	r2, #152	; 0x98
 8004970:	18bc      	adds	r4, r7, r2
 8004972:	6023      	str	r3, [r4, #0]
  if (errorflags == 0U)
 8004974:	18bb      	adds	r3, r7, r2
 8004976:	681b      	ldr	r3, [r3, #0]
 8004978:	2b00      	cmp	r3, #0
 800497a:	d114      	bne.n	80049a6 <HAL_UART_IRQHandler+0x6e>
  {
    /* UART in mode Receiver ---------------------------------------------------*/
    if (((isrflags & USART_ISR_RXNE) != 0U)
 800497c:	187b      	adds	r3, r7, r1
 800497e:	681b      	ldr	r3, [r3, #0]
 8004980:	2220      	movs	r2, #32
 8004982:	4013      	ands	r3, r2
 8004984:	d00f      	beq.n	80049a6 <HAL_UART_IRQHandler+0x6e>
        && ((cr1its & USART_CR1_RXNEIE) != 0U))
 8004986:	183b      	adds	r3, r7, r0
 8004988:	681b      	ldr	r3, [r3, #0]
 800498a:	2220      	movs	r2, #32
 800498c:	4013      	ands	r3, r2
 800498e:	d00a      	beq.n	80049a6 <HAL_UART_IRQHandler+0x6e>
    {
      if (huart->RxISR != NULL)
 8004990:	687b      	ldr	r3, [r7, #4]
 8004992:	6e5b      	ldr	r3, [r3, #100]	; 0x64
 8004994:	2b00      	cmp	r3, #0
 8004996:	d100      	bne.n	800499a <HAL_UART_IRQHandler+0x62>
 8004998:	e298      	b.n	8004ecc <HAL_UART_IRQHandler+0x594>
      {
        huart->RxISR(huart);
 800499a:	687b      	ldr	r3, [r7, #4]
 800499c:	6e5b      	ldr	r3, [r3, #100]	; 0x64
 800499e:	687a      	ldr	r2, [r7, #4]
 80049a0:	0010      	movs	r0, r2
 80049a2:	4798      	blx	r3
      }
      return;
 80049a4:	e292      	b.n	8004ecc <HAL_UART_IRQHandler+0x594>
    }
  }

  /* If some errors occur */
  if ((errorflags != 0U)
 80049a6:	2398      	movs	r3, #152	; 0x98
 80049a8:	18fb      	adds	r3, r7, r3
 80049aa:	681b      	ldr	r3, [r3, #0]
 80049ac:	2b00      	cmp	r3, #0
 80049ae:	d100      	bne.n	80049b2 <HAL_UART_IRQHandler+0x7a>
 80049b0:	e114      	b.n	8004bdc <HAL_UART_IRQHandler+0x2a4>
      && (((cr3its & USART_CR3_EIE) != 0U)
 80049b2:	239c      	movs	r3, #156	; 0x9c
 80049b4:	18fb      	adds	r3, r7, r3
 80049b6:	681b      	ldr	r3, [r3, #0]
 80049b8:	2201      	movs	r2, #1
 80049ba:	4013      	ands	r3, r2
 80049bc:	d106      	bne.n	80049cc <HAL_UART_IRQHandler+0x94>
          || ((cr1its & (USART_CR1_RXNEIE | USART_CR1_PEIE | USART_CR1_RTOIE)) != 0U)))
 80049be:	23a0      	movs	r3, #160	; 0xa0
 80049c0:	18fb      	adds	r3, r7, r3
 80049c2:	681b      	ldr	r3, [r3, #0]
 80049c4:	4a83      	ldr	r2, [pc, #524]	; (8004bd4 <HAL_UART_IRQHandler+0x29c>)
 80049c6:	4013      	ands	r3, r2
 80049c8:	d100      	bne.n	80049cc <HAL_UART_IRQHandler+0x94>
 80049ca:	e107      	b.n	8004bdc <HAL_UART_IRQHandler+0x2a4>
  {
    /* UART parity error interrupt occurred -------------------------------------*/
    if (((isrflags & USART_ISR_PE) != 0U) && ((cr1its & USART_CR1_PEIE) != 0U))
 80049cc:	23a4      	movs	r3, #164	; 0xa4
 80049ce:	18fb      	adds	r3, r7, r3
 80049d0:	681b      	ldr	r3, [r3, #0]
 80049d2:	2201      	movs	r2, #1
 80049d4:	4013      	ands	r3, r2
 80049d6:	d012      	beq.n	80049fe <HAL_UART_IRQHandler+0xc6>
 80049d8:	23a0      	movs	r3, #160	; 0xa0
 80049da:	18fb      	adds	r3, r7, r3
 80049dc:	681a      	ldr	r2, [r3, #0]
 80049de:	2380      	movs	r3, #128	; 0x80
 80049e0:	005b      	lsls	r3, r3, #1
 80049e2:	4013      	ands	r3, r2
 80049e4:	d00b      	beq.n	80049fe <HAL_UART_IRQHandler+0xc6>
    {
      __HAL_UART_CLEAR_FLAG(huart, UART_CLEAR_PEF);
 80049e6:	687b      	ldr	r3, [r7, #4]
 80049e8:	681b      	ldr	r3, [r3, #0]
 80049ea:	2201      	movs	r2, #1
 80049ec:	621a      	str	r2, [r3, #32]

      huart->ErrorCode |= HAL_UART_ERROR_PE;
 80049ee:	687b      	ldr	r3, [r7, #4]
 80049f0:	2280      	movs	r2, #128	; 0x80
 80049f2:	589b      	ldr	r3, [r3, r2]
 80049f4:	2201      	movs	r2, #1
 80049f6:	431a      	orrs	r2, r3
 80049f8:	687b      	ldr	r3, [r7, #4]
 80049fa:	2180      	movs	r1, #128	; 0x80
 80049fc:	505a      	str	r2, [r3, r1]
    }

    /* UART frame error interrupt occurred --------------------------------------*/
    if (((isrflags & USART_ISR_FE) != 0U) && ((cr3its & USART_CR3_EIE) != 0U))
 80049fe:	23a4      	movs	r3, #164	; 0xa4
 8004a00:	18fb      	adds	r3, r7, r3
 8004a02:	681b      	ldr	r3, [r3, #0]
 8004a04:	2202      	movs	r2, #2
 8004a06:	4013      	ands	r3, r2
 8004a08:	d011      	beq.n	8004a2e <HAL_UART_IRQHandler+0xf6>
 8004a0a:	239c      	movs	r3, #156	; 0x9c
 8004a0c:	18fb      	adds	r3, r7, r3
 8004a0e:	681b      	ldr	r3, [r3, #0]
 8004a10:	2201      	movs	r2, #1
 8004a12:	4013      	ands	r3, r2
 8004a14:	d00b      	beq.n	8004a2e <HAL_UART_IRQHandler+0xf6>
    {
      __HAL_UART_CLEAR_FLAG(huart, UART_CLEAR_FEF);
 8004a16:	687b      	ldr	r3, [r7, #4]
 8004a18:	681b      	ldr	r3, [r3, #0]
 8004a1a:	2202      	movs	r2, #2
 8004a1c:	621a      	str	r2, [r3, #32]

      huart->ErrorCode |= HAL_UART_ERROR_FE;
 8004a1e:	687b      	ldr	r3, [r7, #4]
 8004a20:	2280      	movs	r2, #128	; 0x80
 8004a22:	589b      	ldr	r3, [r3, r2]
 8004a24:	2204      	movs	r2, #4
 8004a26:	431a      	orrs	r2, r3
 8004a28:	687b      	ldr	r3, [r7, #4]
 8004a2a:	2180      	movs	r1, #128	; 0x80
 8004a2c:	505a      	str	r2, [r3, r1]
    }

    /* UART noise error interrupt occurred --------------------------------------*/
    if (((isrflags & USART_ISR_NE) != 0U) && ((cr3its & USART_CR3_EIE) != 0U))
 8004a2e:	23a4      	movs	r3, #164	; 0xa4
 8004a30:	18fb      	adds	r3, r7, r3
 8004a32:	681b      	ldr	r3, [r3, #0]
 8004a34:	2204      	movs	r2, #4
 8004a36:	4013      	ands	r3, r2
 8004a38:	d011      	beq.n	8004a5e <HAL_UART_IRQHandler+0x126>
 8004a3a:	239c      	movs	r3, #156	; 0x9c
 8004a3c:	18fb      	adds	r3, r7, r3
 8004a3e:	681b      	ldr	r3, [r3, #0]
 8004a40:	2201      	movs	r2, #1
 8004a42:	4013      	ands	r3, r2
 8004a44:	d00b      	beq.n	8004a5e <HAL_UART_IRQHandler+0x126>
    {
      __HAL_UART_CLEAR_FLAG(huart, UART_CLEAR_NEF);
 8004a46:	687b      	ldr	r3, [r7, #4]
 8004a48:	681b      	ldr	r3, [r3, #0]
 8004a4a:	2204      	movs	r2, #4
 8004a4c:	621a      	str	r2, [r3, #32]

      huart->ErrorCode |= HAL_UART_ERROR_NE;
 8004a4e:	687b      	ldr	r3, [r7, #4]
 8004a50:	2280      	movs	r2, #128	; 0x80
 8004a52:	589b      	ldr	r3, [r3, r2]
 8004a54:	2202      	movs	r2, #2
 8004a56:	431a      	orrs	r2, r3
 8004a58:	687b      	ldr	r3, [r7, #4]
 8004a5a:	2180      	movs	r1, #128	; 0x80
 8004a5c:	505a      	str	r2, [r3, r1]
    }

    /* UART Over-Run interrupt occurred -----------------------------------------*/
    if (((isrflags & USART_ISR_ORE) != 0U)
 8004a5e:	23a4      	movs	r3, #164	; 0xa4
 8004a60:	18fb      	adds	r3, r7, r3
 8004a62:	681b      	ldr	r3, [r3, #0]
 8004a64:	2208      	movs	r2, #8
 8004a66:	4013      	ands	r3, r2
 8004a68:	d017      	beq.n	8004a9a <HAL_UART_IRQHandler+0x162>
        && (((cr1its & USART_CR1_RXNEIE) != 0U) ||
 8004a6a:	23a0      	movs	r3, #160	; 0xa0
 8004a6c:	18fb      	adds	r3, r7, r3
 8004a6e:	681b      	ldr	r3, [r3, #0]
 8004a70:	2220      	movs	r2, #32
 8004a72:	4013      	ands	r3, r2
 8004a74:	d105      	bne.n	8004a82 <HAL_UART_IRQHandler+0x14a>
            ((cr3its & USART_CR3_EIE) != 0U)))
 8004a76:	239c      	movs	r3, #156	; 0x9c
 8004a78:	18fb      	adds	r3, r7, r3
 8004a7a:	681b      	ldr	r3, [r3, #0]
 8004a7c:	2201      	movs	r2, #1
 8004a7e:	4013      	ands	r3, r2
        && (((cr1its & USART_CR1_RXNEIE) != 0U) ||
 8004a80:	d00b      	beq.n	8004a9a <HAL_UART_IRQHandler+0x162>
    {
      __HAL_UART_CLEAR_FLAG(huart, UART_CLEAR_OREF);
 8004a82:	687b      	ldr	r3, [r7, #4]
 8004a84:	681b      	ldr	r3, [r3, #0]
 8004a86:	2208      	movs	r2, #8
 8004a88:	621a      	str	r2, [r3, #32]

      huart->ErrorCode |= HAL_UART_ERROR_ORE;
 8004a8a:	687b      	ldr	r3, [r7, #4]
 8004a8c:	2280      	movs	r2, #128	; 0x80
 8004a8e:	589b      	ldr	r3, [r3, r2]
 8004a90:	2208      	movs	r2, #8
 8004a92:	431a      	orrs	r2, r3
 8004a94:	687b      	ldr	r3, [r7, #4]
 8004a96:	2180      	movs	r1, #128	; 0x80
 8004a98:	505a      	str	r2, [r3, r1]
    }

    /* UART Receiver Timeout interrupt occurred ---------------------------------*/
    if (((isrflags & USART_ISR_RTOF) != 0U) && ((cr1its & USART_CR1_RTOIE) != 0U))
 8004a9a:	23a4      	movs	r3, #164	; 0xa4
 8004a9c:	18fb      	adds	r3, r7, r3
 8004a9e:	681a      	ldr	r2, [r3, #0]
 8004aa0:	2380      	movs	r3, #128	; 0x80
 8004aa2:	011b      	lsls	r3, r3, #4
 8004aa4:	4013      	ands	r3, r2
 8004aa6:	d013      	beq.n	8004ad0 <HAL_UART_IRQHandler+0x198>
 8004aa8:	23a0      	movs	r3, #160	; 0xa0
 8004aaa:	18fb      	adds	r3, r7, r3
 8004aac:	681a      	ldr	r2, [r3, #0]
 8004aae:	2380      	movs	r3, #128	; 0x80
 8004ab0:	04db      	lsls	r3, r3, #19
 8004ab2:	4013      	ands	r3, r2
 8004ab4:	d00c      	beq.n	8004ad0 <HAL_UART_IRQHandler+0x198>
    {
      __HAL_UART_CLEAR_FLAG(huart, UART_CLEAR_RTOF);
 8004ab6:	687b      	ldr	r3, [r7, #4]
 8004ab8:	681b      	ldr	r3, [r3, #0]
 8004aba:	2280      	movs	r2, #128	; 0x80
 8004abc:	0112      	lsls	r2, r2, #4
 8004abe:	621a      	str	r2, [r3, #32]

      huart->ErrorCode |= HAL_UART_ERROR_RTO;
 8004ac0:	687b      	ldr	r3, [r7, #4]
 8004ac2:	2280      	movs	r2, #128	; 0x80
 8004ac4:	589b      	ldr	r3, [r3, r2]
 8004ac6:	2220      	movs	r2, #32
 8004ac8:	431a      	orrs	r2, r3
 8004aca:	687b      	ldr	r3, [r7, #4]
 8004acc:	2180      	movs	r1, #128	; 0x80
 8004ace:	505a      	str	r2, [r3, r1]
    }

    /* Call UART Error Call back function if need be ----------------------------*/
    if (huart->ErrorCode != HAL_UART_ERROR_NONE)
 8004ad0:	687b      	ldr	r3, [r7, #4]
 8004ad2:	2280      	movs	r2, #128	; 0x80
 8004ad4:	589b      	ldr	r3, [r3, r2]
 8004ad6:	2b00      	cmp	r3, #0
 8004ad8:	d100      	bne.n	8004adc <HAL_UART_IRQHandler+0x1a4>
 8004ada:	e1f9      	b.n	8004ed0 <HAL_UART_IRQHandler+0x598>
    {
      /* UART in mode Receiver --------------------------------------------------*/
      if (((isrflags & USART_ISR_RXNE) != 0U)
 8004adc:	23a4      	movs	r3, #164	; 0xa4
 8004ade:	18fb      	adds	r3, r7, r3
 8004ae0:	681b      	ldr	r3, [r3, #0]
 8004ae2:	2220      	movs	r2, #32
 8004ae4:	4013      	ands	r3, r2
 8004ae6:	d00e      	beq.n	8004b06 <HAL_UART_IRQHandler+0x1ce>
          && ((cr1its & USART_CR1_RXNEIE) != 0U))
 8004ae8:	23a0      	movs	r3, #160	; 0xa0
 8004aea:	18fb      	adds	r3, r7, r3
 8004aec:	681b      	ldr	r3, [r3, #0]
 8004aee:	2220      	movs	r2, #32
 8004af0:	4013      	ands	r3, r2
 8004af2:	d008      	beq.n	8004b06 <HAL_UART_IRQHandler+0x1ce>
      {
        if (huart->RxISR != NULL)
 8004af4:	687b      	ldr	r3, [r7, #4]
 8004af6:	6e5b      	ldr	r3, [r3, #100]	; 0x64
 8004af8:	2b00      	cmp	r3, #0
 8004afa:	d004      	beq.n	8004b06 <HAL_UART_IRQHandler+0x1ce>
        {
          huart->RxISR(huart);
 8004afc:	687b      	ldr	r3, [r7, #4]
 8004afe:	6e5b      	ldr	r3, [r3, #100]	; 0x64
 8004b00:	687a      	ldr	r2, [r7, #4]
 8004b02:	0010      	movs	r0, r2
 8004b04:	4798      	blx	r3
      /* If Error is to be considered as blocking :
          - Receiver Timeout error in Reception
          - Overrun error in Reception
          - any error occurs in DMA mode reception
      */
      errorcode = huart->ErrorCode;
 8004b06:	687b      	ldr	r3, [r7, #4]
 8004b08:	2280      	movs	r2, #128	; 0x80
 8004b0a:	589b      	ldr	r3, [r3, r2]
 8004b0c:	2194      	movs	r1, #148	; 0x94
 8004b0e:	187a      	adds	r2, r7, r1
 8004b10:	6013      	str	r3, [r2, #0]
      if ((HAL_IS_BIT_SET(huart->Instance->CR3, USART_CR3_DMAR)) ||
 8004b12:	687b      	ldr	r3, [r7, #4]
 8004b14:	681b      	ldr	r3, [r3, #0]
 8004b16:	689b      	ldr	r3, [r3, #8]
 8004b18:	2240      	movs	r2, #64	; 0x40
 8004b1a:	4013      	ands	r3, r2
 8004b1c:	2b40      	cmp	r3, #64	; 0x40
 8004b1e:	d004      	beq.n	8004b2a <HAL_UART_IRQHandler+0x1f2>
          ((errorcode & (HAL_UART_ERROR_RTO | HAL_UART_ERROR_ORE)) != 0U))
 8004b20:	187b      	adds	r3, r7, r1
 8004b22:	681b      	ldr	r3, [r3, #0]
 8004b24:	2228      	movs	r2, #40	; 0x28
 8004b26:	4013      	ands	r3, r2
      if ((HAL_IS_BIT_SET(huart->Instance->CR3, USART_CR3_DMAR)) ||
 8004b28:	d047      	beq.n	8004bba <HAL_UART_IRQHandler+0x282>
      {
        /* Blocking error : transfer is aborted
           Set the UART state ready to be able to start again the process,
           Disable Rx Interrupts, and disable Rx DMA request, if ongoing */
        UART_EndRxTransfer(huart);
 8004b2a:	687b      	ldr	r3, [r7, #4]
 8004b2c:	0018      	movs	r0, r3
 8004b2e:	f000 fe77 	bl	8005820 <UART_EndRxTransfer>

        /* Disable the UART DMA Rx request if enabled */
        if (HAL_IS_BIT_SET(huart->Instance->CR3, USART_CR3_DMAR))
 8004b32:	687b      	ldr	r3, [r7, #4]
 8004b34:	681b      	ldr	r3, [r3, #0]
 8004b36:	689b      	ldr	r3, [r3, #8]
 8004b38:	2240      	movs	r2, #64	; 0x40
 8004b3a:	4013      	ands	r3, r2
 8004b3c:	2b40      	cmp	r3, #64	; 0x40
 8004b3e:	d137      	bne.n	8004bb0 <HAL_UART_IRQHandler+0x278>
 */
__STATIC_FORCEINLINE uint32_t __get_PRIMASK(void)
{
  uint32_t result;

  __ASM volatile ("MRS %0, primask" : "=r" (result) :: "memory");
 8004b40:	f3ef 8310 	mrs	r3, PRIMASK
 8004b44:	663b      	str	r3, [r7, #96]	; 0x60
  return(result);
 8004b46:	6e3b      	ldr	r3, [r7, #96]	; 0x60
        {
          ATOMIC_CLEAR_BIT(huart->Instance->CR3, USART_CR3_DMAR);
 8004b48:	2090      	movs	r0, #144	; 0x90
 8004b4a:	183a      	adds	r2, r7, r0
 8004b4c:	6013      	str	r3, [r2, #0]
 8004b4e:	2301      	movs	r3, #1
 8004b50:	667b      	str	r3, [r7, #100]	; 0x64
  \details Assigns the given value to the Priority Mask Register.
  \param [in]    priMask  Priority Mask
 */
__STATIC_FORCEINLINE void __set_PRIMASK(uint32_t priMask)
{
  __ASM volatile ("MSR primask, %0" : : "r" (priMask) : "memory");
 8004b52:	6e7b      	ldr	r3, [r7, #100]	; 0x64
 8004b54:	f383 8810 	msr	PRIMASK, r3
}
 8004b58:	46c0      	nop			; (mov r8, r8)
 8004b5a:	687b      	ldr	r3, [r7, #4]
 8004b5c:	681b      	ldr	r3, [r3, #0]
 8004b5e:	689a      	ldr	r2, [r3, #8]
 8004b60:	687b      	ldr	r3, [r7, #4]
 8004b62:	681b      	ldr	r3, [r3, #0]
 8004b64:	2140      	movs	r1, #64	; 0x40
 8004b66:	438a      	bics	r2, r1
 8004b68:	609a      	str	r2, [r3, #8]
 8004b6a:	183b      	adds	r3, r7, r0
 8004b6c:	681b      	ldr	r3, [r3, #0]
 8004b6e:	66bb      	str	r3, [r7, #104]	; 0x68
  __ASM volatile ("MSR primask, %0" : : "r" (priMask) : "memory");
 8004b70:	6ebb      	ldr	r3, [r7, #104]	; 0x68
 8004b72:	f383 8810 	msr	PRIMASK, r3
}
 8004b76:	46c0      	nop			; (mov r8, r8)

          /* Abort the UART DMA Rx channel */
          if (huart->hdmarx != NULL)
 8004b78:	687b      	ldr	r3, [r7, #4]
 8004b7a:	6f1b      	ldr	r3, [r3, #112]	; 0x70
 8004b7c:	2b00      	cmp	r3, #0
 8004b7e:	d012      	beq.n	8004ba6 <HAL_UART_IRQHandler+0x26e>
          {
            /* Set the UART DMA Abort callback :
               will lead to call HAL_UART_ErrorCallback() at end of DMA abort procedure */
            huart->hdmarx->XferAbortCallback = UART_DMAAbortOnError;
 8004b80:	687b      	ldr	r3, [r7, #4]
 8004b82:	6f1b      	ldr	r3, [r3, #112]	; 0x70
 8004b84:	4a14      	ldr	r2, [pc, #80]	; (8004bd8 <HAL_UART_IRQHandler+0x2a0>)
 8004b86:	639a      	str	r2, [r3, #56]	; 0x38

            /* Abort DMA RX */
            if (HAL_DMA_Abort_IT(huart->hdmarx) != HAL_OK)
 8004b88:	687b      	ldr	r3, [r7, #4]
 8004b8a:	6f1b      	ldr	r3, [r3, #112]	; 0x70
 8004b8c:	0018      	movs	r0, r3
 8004b8e:	f7fd fcef 	bl	8002570 <HAL_DMA_Abort_IT>
 8004b92:	1e03      	subs	r3, r0, #0
 8004b94:	d01a      	beq.n	8004bcc <HAL_UART_IRQHandler+0x294>
            {
              /* Call Directly huart->hdmarx->XferAbortCallback function in case of error */
              huart->hdmarx->XferAbortCallback(huart->hdmarx);
 8004b96:	687b      	ldr	r3, [r7, #4]
 8004b98:	6f1b      	ldr	r3, [r3, #112]	; 0x70
 8004b9a:	6b9a      	ldr	r2, [r3, #56]	; 0x38
 8004b9c:	687b      	ldr	r3, [r7, #4]
 8004b9e:	6f1b      	ldr	r3, [r3, #112]	; 0x70
 8004ba0:	0018      	movs	r0, r3
 8004ba2:	4790      	blx	r2
        if (HAL_IS_BIT_SET(huart->Instance->CR3, USART_CR3_DMAR))
 8004ba4:	e012      	b.n	8004bcc <HAL_UART_IRQHandler+0x294>
#if (USE_HAL_UART_REGISTER_CALLBACKS == 1)
            /*Call registered error callback*/
            huart->ErrorCallback(huart);
#else
            /*Call legacy weak error callback*/
            HAL_UART_ErrorCallback(huart);
 8004ba6:	687b      	ldr	r3, [r7, #4]
 8004ba8:	0018      	movs	r0, r3
 8004baa:	f000 f9a7 	bl	8004efc <HAL_UART_ErrorCallback>
        if (HAL_IS_BIT_SET(huart->Instance->CR3, USART_CR3_DMAR))
 8004bae:	e00d      	b.n	8004bcc <HAL_UART_IRQHandler+0x294>
#if (USE_HAL_UART_REGISTER_CALLBACKS == 1)
          /*Call registered error callback*/
          huart->ErrorCallback(huart);
#else
          /*Call legacy weak error callback*/
          HAL_UART_ErrorCallback(huart);
 8004bb0:	687b      	ldr	r3, [r7, #4]
 8004bb2:	0018      	movs	r0, r3
 8004bb4:	f000 f9a2 	bl	8004efc <HAL_UART_ErrorCallback>
        if (HAL_IS_BIT_SET(huart->Instance->CR3, USART_CR3_DMAR))
 8004bb8:	e008      	b.n	8004bcc <HAL_UART_IRQHandler+0x294>
#if (USE_HAL_UART_REGISTER_CALLBACKS == 1)
        /*Call registered error callback*/
        huart->ErrorCallback(huart);
#else
        /*Call legacy weak error callback*/
        HAL_UART_ErrorCallback(huart);
 8004bba:	687b      	ldr	r3, [r7, #4]
 8004bbc:	0018      	movs	r0, r3
 8004bbe:	f000 f99d 	bl	8004efc <HAL_UART_ErrorCallback>
#endif /* USE_HAL_UART_REGISTER_CALLBACKS */
        huart->ErrorCode = HAL_UART_ERROR_NONE;
 8004bc2:	687b      	ldr	r3, [r7, #4]
 8004bc4:	2280      	movs	r2, #128	; 0x80
 8004bc6:	2100      	movs	r1, #0
 8004bc8:	5099      	str	r1, [r3, r2]
      }
    }
    return;
 8004bca:	e181      	b.n	8004ed0 <HAL_UART_IRQHandler+0x598>
        if (HAL_IS_BIT_SET(huart->Instance->CR3, USART_CR3_DMAR))
 8004bcc:	46c0      	nop			; (mov r8, r8)
    return;
 8004bce:	e17f      	b.n	8004ed0 <HAL_UART_IRQHandler+0x598>
 8004bd0:	0000080f 	.word	0x0000080f
 8004bd4:	04000120 	.word	0x04000120
 8004bd8:	080058e5 	.word	0x080058e5

  } /* End if some error occurs */

  /* Check current reception Mode :
     If Reception till IDLE event has been selected : */
  if ((huart->ReceptionType == HAL_UART_RECEPTION_TOIDLE)
 8004bdc:	687b      	ldr	r3, [r7, #4]
 8004bde:	6e1b      	ldr	r3, [r3, #96]	; 0x60
 8004be0:	2b01      	cmp	r3, #1
 8004be2:	d000      	beq.n	8004be6 <HAL_UART_IRQHandler+0x2ae>
 8004be4:	e133      	b.n	8004e4e <HAL_UART_IRQHandler+0x516>
      && ((isrflags & USART_ISR_IDLE) != 0U)
 8004be6:	23a4      	movs	r3, #164	; 0xa4
 8004be8:	18fb      	adds	r3, r7, r3
 8004bea:	681b      	ldr	r3, [r3, #0]
 8004bec:	2210      	movs	r2, #16
 8004bee:	4013      	ands	r3, r2
 8004bf0:	d100      	bne.n	8004bf4 <HAL_UART_IRQHandler+0x2bc>
 8004bf2:	e12c      	b.n	8004e4e <HAL_UART_IRQHandler+0x516>
      && ((cr1its & USART_ISR_IDLE) != 0U))
 8004bf4:	23a0      	movs	r3, #160	; 0xa0
 8004bf6:	18fb      	adds	r3, r7, r3
 8004bf8:	681b      	ldr	r3, [r3, #0]
 8004bfa:	2210      	movs	r2, #16
 8004bfc:	4013      	ands	r3, r2
 8004bfe:	d100      	bne.n	8004c02 <HAL_UART_IRQHandler+0x2ca>
 8004c00:	e125      	b.n	8004e4e <HAL_UART_IRQHandler+0x516>
  {
    __HAL_UART_CLEAR_FLAG(huart, UART_CLEAR_IDLEF);
 8004c02:	687b      	ldr	r3, [r7, #4]
 8004c04:	681b      	ldr	r3, [r3, #0]
 8004c06:	2210      	movs	r2, #16
 8004c08:	621a      	str	r2, [r3, #32]

    /* Check if DMA mode is enabled in UART */
    if (HAL_IS_BIT_SET(huart->Instance->CR3, USART_CR3_DMAR))
 8004c0a:	687b      	ldr	r3, [r7, #4]
 8004c0c:	681b      	ldr	r3, [r3, #0]
 8004c0e:	689b      	ldr	r3, [r3, #8]
 8004c10:	2240      	movs	r2, #64	; 0x40
 8004c12:	4013      	ands	r3, r2
 8004c14:	2b40      	cmp	r3, #64	; 0x40
 8004c16:	d000      	beq.n	8004c1a <HAL_UART_IRQHandler+0x2e2>
 8004c18:	e09d      	b.n	8004d56 <HAL_UART_IRQHandler+0x41e>
    {
      /* DMA mode enabled */
      /* Check received length : If all expected data are received, do nothing,
         (DMA cplt callback will be called).
         Otherwise, if at least one data has already been received, IDLE event is to be notified to user */
      uint16_t nb_remaining_rx_data = (uint16_t) __HAL_DMA_GET_COUNTER(huart->hdmarx);
 8004c1a:	687b      	ldr	r3, [r7, #4]
 8004c1c:	6f1b      	ldr	r3, [r3, #112]	; 0x70
 8004c1e:	681b      	ldr	r3, [r3, #0]
 8004c20:	685a      	ldr	r2, [r3, #4]
 8004c22:	217e      	movs	r1, #126	; 0x7e
 8004c24:	187b      	adds	r3, r7, r1
 8004c26:	801a      	strh	r2, [r3, #0]
      if ((nb_remaining_rx_data > 0U)
 8004c28:	187b      	adds	r3, r7, r1
 8004c2a:	881b      	ldrh	r3, [r3, #0]
 8004c2c:	2b00      	cmp	r3, #0
 8004c2e:	d100      	bne.n	8004c32 <HAL_UART_IRQHandler+0x2fa>
 8004c30:	e150      	b.n	8004ed4 <HAL_UART_IRQHandler+0x59c>
          && (nb_remaining_rx_data < huart->RxXferSize))
 8004c32:	687b      	ldr	r3, [r7, #4]
 8004c34:	2258      	movs	r2, #88	; 0x58
 8004c36:	5a9b      	ldrh	r3, [r3, r2]
 8004c38:	187a      	adds	r2, r7, r1
 8004c3a:	8812      	ldrh	r2, [r2, #0]
 8004c3c:	429a      	cmp	r2, r3
 8004c3e:	d300      	bcc.n	8004c42 <HAL_UART_IRQHandler+0x30a>
 8004c40:	e148      	b.n	8004ed4 <HAL_UART_IRQHandler+0x59c>
      {
        /* Reception is not complete */
        huart->RxXferCount = nb_remaining_rx_data;
 8004c42:	687b      	ldr	r3, [r7, #4]
 8004c44:	187a      	adds	r2, r7, r1
 8004c46:	215a      	movs	r1, #90	; 0x5a
 8004c48:	8812      	ldrh	r2, [r2, #0]
 8004c4a:	525a      	strh	r2, [r3, r1]

        /* In Normal mode, end DMA xfer and HAL UART Rx process*/
        if (HAL_IS_BIT_CLR(huart->hdmarx->Instance->CCR, DMA_CCR_CIRC))
 8004c4c:	687b      	ldr	r3, [r7, #4]
 8004c4e:	6f1b      	ldr	r3, [r3, #112]	; 0x70
 8004c50:	681b      	ldr	r3, [r3, #0]
 8004c52:	681b      	ldr	r3, [r3, #0]
 8004c54:	2220      	movs	r2, #32
 8004c56:	4013      	ands	r3, r2
 8004c58:	d16e      	bne.n	8004d38 <HAL_UART_IRQHandler+0x400>
  __ASM volatile ("MRS %0, primask" : "=r" (result) :: "memory");
 8004c5a:	f3ef 8310 	mrs	r3, PRIMASK
 8004c5e:	633b      	str	r3, [r7, #48]	; 0x30
  return(result);
 8004c60:	6b3b      	ldr	r3, [r7, #48]	; 0x30
        {
          /* Disable PE and ERR (Frame error, noise error, overrun error) interrupts */
          ATOMIC_CLEAR_BIT(huart->Instance->CR1, USART_CR1_PEIE);
 8004c62:	67bb      	str	r3, [r7, #120]	; 0x78
 8004c64:	2301      	movs	r3, #1
 8004c66:	637b      	str	r3, [r7, #52]	; 0x34
  __ASM volatile ("MSR primask, %0" : : "r" (priMask) : "memory");
 8004c68:	6b7b      	ldr	r3, [r7, #52]	; 0x34
 8004c6a:	f383 8810 	msr	PRIMASK, r3
}
 8004c6e:	46c0      	nop			; (mov r8, r8)
 8004c70:	687b      	ldr	r3, [r7, #4]
 8004c72:	681b      	ldr	r3, [r3, #0]
 8004c74:	681a      	ldr	r2, [r3, #0]
 8004c76:	687b      	ldr	r3, [r7, #4]
 8004c78:	681b      	ldr	r3, [r3, #0]
 8004c7a:	499a      	ldr	r1, [pc, #616]	; (8004ee4 <HAL_UART_IRQHandler+0x5ac>)
 8004c7c:	400a      	ands	r2, r1
 8004c7e:	601a      	str	r2, [r3, #0]
 8004c80:	6fbb      	ldr	r3, [r7, #120]	; 0x78
 8004c82:	63bb      	str	r3, [r7, #56]	; 0x38
  __ASM volatile ("MSR primask, %0" : : "r" (priMask) : "memory");
 8004c84:	6bbb      	ldr	r3, [r7, #56]	; 0x38
 8004c86:	f383 8810 	msr	PRIMASK, r3
}
 8004c8a:	46c0      	nop			; (mov r8, r8)
  __ASM volatile ("MRS %0, primask" : "=r" (result) :: "memory");
 8004c8c:	f3ef 8310 	mrs	r3, PRIMASK
 8004c90:	63fb      	str	r3, [r7, #60]	; 0x3c
  return(result);
 8004c92:	6bfb      	ldr	r3, [r7, #60]	; 0x3c
          ATOMIC_CLEAR_BIT(huart->Instance->CR3, USART_CR3_EIE);
 8004c94:	677b      	str	r3, [r7, #116]	; 0x74
 8004c96:	2301      	movs	r3, #1
 8004c98:	643b      	str	r3, [r7, #64]	; 0x40
  __ASM volatile ("MSR primask, %0" : : "r" (priMask) : "memory");
 8004c9a:	6c3b      	ldr	r3, [r7, #64]	; 0x40
 8004c9c:	f383 8810 	msr	PRIMASK, r3
}
 8004ca0:	46c0      	nop			; (mov r8, r8)
 8004ca2:	687b      	ldr	r3, [r7, #4]
 8004ca4:	681b      	ldr	r3, [r3, #0]
 8004ca6:	689a      	ldr	r2, [r3, #8]
 8004ca8:	687b      	ldr	r3, [r7, #4]
 8004caa:	681b      	ldr	r3, [r3, #0]
 8004cac:	2101      	movs	r1, #1
 8004cae:	438a      	bics	r2, r1
 8004cb0:	609a      	str	r2, [r3, #8]
 8004cb2:	6f7b      	ldr	r3, [r7, #116]	; 0x74
 8004cb4:	647b      	str	r3, [r7, #68]	; 0x44
  __ASM volatile ("MSR primask, %0" : : "r" (priMask) : "memory");
 8004cb6:	6c7b      	ldr	r3, [r7, #68]	; 0x44
 8004cb8:	f383 8810 	msr	PRIMASK, r3
}
 8004cbc:	46c0      	nop			; (mov r8, r8)
  __ASM volatile ("MRS %0, primask" : "=r" (result) :: "memory");
 8004cbe:	f3ef 8310 	mrs	r3, PRIMASK
 8004cc2:	64bb      	str	r3, [r7, #72]	; 0x48
  return(result);
 8004cc4:	6cbb      	ldr	r3, [r7, #72]	; 0x48

          /* Disable the DMA transfer for the receiver request by resetting the DMAR bit
             in the UART CR3 register */
          ATOMIC_CLEAR_BIT(huart->Instance->CR3, USART_CR3_DMAR);
 8004cc6:	673b      	str	r3, [r7, #112]	; 0x70
 8004cc8:	2301      	movs	r3, #1
 8004cca:	64fb      	str	r3, [r7, #76]	; 0x4c
  __ASM volatile ("MSR primask, %0" : : "r" (priMask) : "memory");
 8004ccc:	6cfb      	ldr	r3, [r7, #76]	; 0x4c
 8004cce:	f383 8810 	msr	PRIMASK, r3
}
 8004cd2:	46c0      	nop			; (mov r8, r8)
 8004cd4:	687b      	ldr	r3, [r7, #4]
 8004cd6:	681b      	ldr	r3, [r3, #0]
 8004cd8:	689a      	ldr	r2, [r3, #8]
 8004cda:	687b      	ldr	r3, [r7, #4]
 8004cdc:	681b      	ldr	r3, [r3, #0]
 8004cde:	2140      	movs	r1, #64	; 0x40
 8004ce0:	438a      	bics	r2, r1
 8004ce2:	609a      	str	r2, [r3, #8]
 8004ce4:	6f3b      	ldr	r3, [r7, #112]	; 0x70
 8004ce6:	653b      	str	r3, [r7, #80]	; 0x50
  __ASM volatile ("MSR primask, %0" : : "r" (priMask) : "memory");
 8004ce8:	6d3b      	ldr	r3, [r7, #80]	; 0x50
 8004cea:	f383 8810 	msr	PRIMASK, r3
}
 8004cee:	46c0      	nop			; (mov r8, r8)

          /* At end of Rx process, restore huart->RxState to Ready */
          huart->RxState = HAL_UART_STATE_READY;
 8004cf0:	687b      	ldr	r3, [r7, #4]
 8004cf2:	2220      	movs	r2, #32
 8004cf4:	67da      	str	r2, [r3, #124]	; 0x7c
          huart->ReceptionType = HAL_UART_RECEPTION_STANDARD;
 8004cf6:	687b      	ldr	r3, [r7, #4]
 8004cf8:	2200      	movs	r2, #0
 8004cfa:	661a      	str	r2, [r3, #96]	; 0x60
  __ASM volatile ("MRS %0, primask" : "=r" (result) :: "memory");
 8004cfc:	f3ef 8310 	mrs	r3, PRIMASK
 8004d00:	657b      	str	r3, [r7, #84]	; 0x54
  return(result);
 8004d02:	6d7b      	ldr	r3, [r7, #84]	; 0x54

          ATOMIC_CLEAR_BIT(huart->Instance->CR1, USART_CR1_IDLEIE);
 8004d04:	66fb      	str	r3, [r7, #108]	; 0x6c
 8004d06:	2301      	movs	r3, #1
 8004d08:	65bb      	str	r3, [r7, #88]	; 0x58
  __ASM volatile ("MSR primask, %0" : : "r" (priMask) : "memory");
 8004d0a:	6dbb      	ldr	r3, [r7, #88]	; 0x58
 8004d0c:	f383 8810 	msr	PRIMASK, r3
}
 8004d10:	46c0      	nop			; (mov r8, r8)
 8004d12:	687b      	ldr	r3, [r7, #4]
 8004d14:	681b      	ldr	r3, [r3, #0]
 8004d16:	681a      	ldr	r2, [r3, #0]
 8004d18:	687b      	ldr	r3, [r7, #4]
 8004d1a:	681b      	ldr	r3, [r3, #0]
 8004d1c:	2110      	movs	r1, #16
 8004d1e:	438a      	bics	r2, r1
 8004d20:	601a      	str	r2, [r3, #0]
 8004d22:	6efb      	ldr	r3, [r7, #108]	; 0x6c
 8004d24:	65fb      	str	r3, [r7, #92]	; 0x5c
  __ASM volatile ("MSR primask, %0" : : "r" (priMask) : "memory");
 8004d26:	6dfb      	ldr	r3, [r7, #92]	; 0x5c
 8004d28:	f383 8810 	msr	PRIMASK, r3
}
 8004d2c:	46c0      	nop			; (mov r8, r8)

          /* Last bytes received, so no need as the abort is immediate */
          (void)HAL_DMA_Abort(huart->hdmarx);
 8004d2e:	687b      	ldr	r3, [r7, #4]
 8004d30:	6f1b      	ldr	r3, [r3, #112]	; 0x70
 8004d32:	0018      	movs	r0, r3
 8004d34:	f7fd fbdc 	bl	80024f0 <HAL_DMA_Abort>
#if (USE_HAL_UART_REGISTER_CALLBACKS == 1)
        /*Call registered Rx Event callback*/
        huart->RxEventCallback(huart, (huart->RxXferSize - huart->RxXferCount));
#else
        /*Call legacy weak Rx Event callback*/
        HAL_UARTEx_RxEventCallback(huart, (huart->RxXferSize - huart->RxXferCount));
 8004d38:	687b      	ldr	r3, [r7, #4]
 8004d3a:	2258      	movs	r2, #88	; 0x58
 8004d3c:	5a9a      	ldrh	r2, [r3, r2]
 8004d3e:	687b      	ldr	r3, [r7, #4]
 8004d40:	215a      	movs	r1, #90	; 0x5a
 8004d42:	5a5b      	ldrh	r3, [r3, r1]
 8004d44:	b29b      	uxth	r3, r3
 8004d46:	1ad3      	subs	r3, r2, r3
 8004d48:	b29a      	uxth	r2, r3
 8004d4a:	687b      	ldr	r3, [r7, #4]
 8004d4c:	0011      	movs	r1, r2
 8004d4e:	0018      	movs	r0, r3
 8004d50:	f000 f8dc 	bl	8004f0c <HAL_UARTEx_RxEventCallback>
#endif /* (USE_HAL_UART_REGISTER_CALLBACKS) */
      }
      return;
 8004d54:	e0be      	b.n	8004ed4 <HAL_UART_IRQHandler+0x59c>
    else
    {
      /* DMA mode not enabled */
      /* Check received length : If all expected data are received, do nothing.
         Otherwise, if at least one data has already been received, IDLE event is to be notified to user */
      uint16_t nb_rx_data = huart->RxXferSize - huart->RxXferCount;
 8004d56:	687b      	ldr	r3, [r7, #4]
 8004d58:	2258      	movs	r2, #88	; 0x58
 8004d5a:	5a99      	ldrh	r1, [r3, r2]
 8004d5c:	687b      	ldr	r3, [r7, #4]
 8004d5e:	225a      	movs	r2, #90	; 0x5a
 8004d60:	5a9b      	ldrh	r3, [r3, r2]
 8004d62:	b29a      	uxth	r2, r3
 8004d64:	208e      	movs	r0, #142	; 0x8e
 8004d66:	183b      	adds	r3, r7, r0
 8004d68:	1a8a      	subs	r2, r1, r2
 8004d6a:	801a      	strh	r2, [r3, #0]
      if ((huart->RxXferCount > 0U)
 8004d6c:	687b      	ldr	r3, [r7, #4]
 8004d6e:	225a      	movs	r2, #90	; 0x5a
 8004d70:	5a9b      	ldrh	r3, [r3, r2]
 8004d72:	b29b      	uxth	r3, r3
 8004d74:	2b00      	cmp	r3, #0
 8004d76:	d100      	bne.n	8004d7a <HAL_UART_IRQHandler+0x442>
 8004d78:	e0ae      	b.n	8004ed8 <HAL_UART_IRQHandler+0x5a0>
          && (nb_rx_data > 0U))
 8004d7a:	183b      	adds	r3, r7, r0
 8004d7c:	881b      	ldrh	r3, [r3, #0]
 8004d7e:	2b00      	cmp	r3, #0
 8004d80:	d100      	bne.n	8004d84 <HAL_UART_IRQHandler+0x44c>
 8004d82:	e0a9      	b.n	8004ed8 <HAL_UART_IRQHandler+0x5a0>
  __ASM volatile ("MRS %0, primask" : "=r" (result) :: "memory");
 8004d84:	f3ef 8310 	mrs	r3, PRIMASK
 8004d88:	60fb      	str	r3, [r7, #12]
  return(result);
 8004d8a:	68fb      	ldr	r3, [r7, #12]
      {
        /* Disable the UART Parity Error Interrupt and RXNE interrupts */
        ATOMIC_CLEAR_BIT(huart->Instance->CR1, (USART_CR1_RXNEIE | USART_CR1_PEIE));
 8004d8c:	2488      	movs	r4, #136	; 0x88
 8004d8e:	193a      	adds	r2, r7, r4
 8004d90:	6013      	str	r3, [r2, #0]
 8004d92:	2301      	movs	r3, #1
 8004d94:	613b      	str	r3, [r7, #16]
  __ASM volatile ("MSR primask, %0" : : "r" (priMask) : "memory");
 8004d96:	693b      	ldr	r3, [r7, #16]
 8004d98:	f383 8810 	msr	PRIMASK, r3
}
 8004d9c:	46c0      	nop			; (mov r8, r8)
 8004d9e:	687b      	ldr	r3, [r7, #4]
 8004da0:	681b      	ldr	r3, [r3, #0]
 8004da2:	681a      	ldr	r2, [r3, #0]
 8004da4:	687b      	ldr	r3, [r7, #4]
 8004da6:	681b      	ldr	r3, [r3, #0]
 8004da8:	494f      	ldr	r1, [pc, #316]	; (8004ee8 <HAL_UART_IRQHandler+0x5b0>)
 8004daa:	400a      	ands	r2, r1
 8004dac:	601a      	str	r2, [r3, #0]
 8004dae:	193b      	adds	r3, r7, r4
 8004db0:	681b      	ldr	r3, [r3, #0]
 8004db2:	617b      	str	r3, [r7, #20]
  __ASM volatile ("MSR primask, %0" : : "r" (priMask) : "memory");
 8004db4:	697b      	ldr	r3, [r7, #20]
 8004db6:	f383 8810 	msr	PRIMASK, r3
}
 8004dba:	46c0      	nop			; (mov r8, r8)
  __ASM volatile ("MRS %0, primask" : "=r" (result) :: "memory");
 8004dbc:	f3ef 8310 	mrs	r3, PRIMASK
 8004dc0:	61bb      	str	r3, [r7, #24]
  return(result);
 8004dc2:	69bb      	ldr	r3, [r7, #24]

        /* Disable the UART Error Interrupt: (Frame error, noise error, overrun error) */
        ATOMIC_CLEAR_BIT(huart->Instance->CR3, USART_CR3_EIE);
 8004dc4:	2484      	movs	r4, #132	; 0x84
 8004dc6:	193a      	adds	r2, r7, r4
 8004dc8:	6013      	str	r3, [r2, #0]
 8004dca:	2301      	movs	r3, #1
 8004dcc:	61fb      	str	r3, [r7, #28]
  __ASM volatile ("MSR primask, %0" : : "r" (priMask) : "memory");
 8004dce:	69fb      	ldr	r3, [r7, #28]
 8004dd0:	f383 8810 	msr	PRIMASK, r3
}
 8004dd4:	46c0      	nop			; (mov r8, r8)
 8004dd6:	687b      	ldr	r3, [r7, #4]
 8004dd8:	681b      	ldr	r3, [r3, #0]
 8004dda:	689a      	ldr	r2, [r3, #8]
 8004ddc:	687b      	ldr	r3, [r7, #4]
 8004dde:	681b      	ldr	r3, [r3, #0]
 8004de0:	2101      	movs	r1, #1
 8004de2:	438a      	bics	r2, r1
 8004de4:	609a      	str	r2, [r3, #8]
 8004de6:	193b      	adds	r3, r7, r4
 8004de8:	681b      	ldr	r3, [r3, #0]
 8004dea:	623b      	str	r3, [r7, #32]
  __ASM volatile ("MSR primask, %0" : : "r" (priMask) : "memory");
 8004dec:	6a3b      	ldr	r3, [r7, #32]
 8004dee:	f383 8810 	msr	PRIMASK, r3
}
 8004df2:	46c0      	nop			; (mov r8, r8)

        /* Rx process is completed, restore huart->RxState to Ready */
        huart->RxState = HAL_UART_STATE_READY;
 8004df4:	687b      	ldr	r3, [r7, #4]
 8004df6:	2220      	movs	r2, #32
 8004df8:	67da      	str	r2, [r3, #124]	; 0x7c
        huart->ReceptionType = HAL_UART_RECEPTION_STANDARD;
 8004dfa:	687b      	ldr	r3, [r7, #4]
 8004dfc:	2200      	movs	r2, #0
 8004dfe:	661a      	str	r2, [r3, #96]	; 0x60

        /* Clear RxISR function pointer */
        huart->RxISR = NULL;
 8004e00:	687b      	ldr	r3, [r7, #4]
 8004e02:	2200      	movs	r2, #0
 8004e04:	665a      	str	r2, [r3, #100]	; 0x64
  __ASM volatile ("MRS %0, primask" : "=r" (result) :: "memory");
 8004e06:	f3ef 8310 	mrs	r3, PRIMASK
 8004e0a:	627b      	str	r3, [r7, #36]	; 0x24
  return(result);
 8004e0c:	6a7b      	ldr	r3, [r7, #36]	; 0x24

        ATOMIC_CLEAR_BIT(huart->Instance->CR1, USART_CR1_IDLEIE);
 8004e0e:	2480      	movs	r4, #128	; 0x80
 8004e10:	193a      	adds	r2, r7, r4
 8004e12:	6013      	str	r3, [r2, #0]
 8004e14:	2301      	movs	r3, #1
 8004e16:	62bb      	str	r3, [r7, #40]	; 0x28
  __ASM volatile ("MSR primask, %0" : : "r" (priMask) : "memory");
 8004e18:	6abb      	ldr	r3, [r7, #40]	; 0x28
 8004e1a:	f383 8810 	msr	PRIMASK, r3
}
 8004e1e:	46c0      	nop			; (mov r8, r8)
 8004e20:	687b      	ldr	r3, [r7, #4]
 8004e22:	681b      	ldr	r3, [r3, #0]
 8004e24:	681a      	ldr	r2, [r3, #0]
 8004e26:	687b      	ldr	r3, [r7, #4]
 8004e28:	681b      	ldr	r3, [r3, #0]
 8004e2a:	2110      	movs	r1, #16
 8004e2c:	438a      	bics	r2, r1
 8004e2e:	601a      	str	r2, [r3, #0]
 8004e30:	193b      	adds	r3, r7, r4
 8004e32:	681b      	ldr	r3, [r3, #0]
 8004e34:	62fb      	str	r3, [r7, #44]	; 0x2c
  __ASM volatile ("MSR primask, %0" : : "r" (priMask) : "memory");
 8004e36:	6afb      	ldr	r3, [r7, #44]	; 0x2c
 8004e38:	f383 8810 	msr	PRIMASK, r3
}
 8004e3c:	46c0      	nop			; (mov r8, r8)
#if (USE_HAL_UART_REGISTER_CALLBACKS == 1)
        /*Call registered Rx complete callback*/
        huart->RxEventCallback(huart, nb_rx_data);
#else
        /*Call legacy weak Rx Event callback*/
        HAL_UARTEx_RxEventCallback(huart, nb_rx_data);
 8004e3e:	183b      	adds	r3, r7, r0
 8004e40:	881a      	ldrh	r2, [r3, #0]
 8004e42:	687b      	ldr	r3, [r7, #4]
 8004e44:	0011      	movs	r1, r2
 8004e46:	0018      	movs	r0, r3
 8004e48:	f000 f860 	bl	8004f0c <HAL_UARTEx_RxEventCallback>
#endif /* (USE_HAL_UART_REGISTER_CALLBACKS) */
      }
      return;
 8004e4c:	e044      	b.n	8004ed8 <HAL_UART_IRQHandler+0x5a0>
    }
  }

  /* UART wakeup from Stop mode interrupt occurred ---------------------------*/
  if (((isrflags & USART_ISR_WUF) != 0U) && ((cr3its & USART_CR3_WUFIE) != 0U))
 8004e4e:	23a4      	movs	r3, #164	; 0xa4
 8004e50:	18fb      	adds	r3, r7, r3
 8004e52:	681a      	ldr	r2, [r3, #0]
 8004e54:	2380      	movs	r3, #128	; 0x80
 8004e56:	035b      	lsls	r3, r3, #13
 8004e58:	4013      	ands	r3, r2
 8004e5a:	d010      	beq.n	8004e7e <HAL_UART_IRQHandler+0x546>
 8004e5c:	239c      	movs	r3, #156	; 0x9c
 8004e5e:	18fb      	adds	r3, r7, r3
 8004e60:	681a      	ldr	r2, [r3, #0]
 8004e62:	2380      	movs	r3, #128	; 0x80
 8004e64:	03db      	lsls	r3, r3, #15
 8004e66:	4013      	ands	r3, r2
 8004e68:	d009      	beq.n	8004e7e <HAL_UART_IRQHandler+0x546>
  {
    __HAL_UART_CLEAR_FLAG(huart, UART_CLEAR_WUF);
 8004e6a:	687b      	ldr	r3, [r7, #4]
 8004e6c:	681b      	ldr	r3, [r3, #0]
 8004e6e:	2280      	movs	r2, #128	; 0x80
 8004e70:	0352      	lsls	r2, r2, #13
 8004e72:	621a      	str	r2, [r3, #32]
#if (USE_HAL_UART_REGISTER_CALLBACKS == 1)
    /* Call registered Wakeup Callback */
    huart->WakeupCallback(huart);
#else
    /* Call legacy weak Wakeup Callback */
    HAL_UARTEx_WakeupCallback(huart);
 8004e74:	687b      	ldr	r3, [r7, #4]
 8004e76:	0018      	movs	r0, r3
 8004e78:	f000 fd76 	bl	8005968 <HAL_UARTEx_WakeupCallback>
#endif /* USE_HAL_UART_REGISTER_CALLBACKS */
    return;
 8004e7c:	e02f      	b.n	8004ede <HAL_UART_IRQHandler+0x5a6>
  }

  /* UART in mode Transmitter ------------------------------------------------*/
  if (((isrflags & USART_ISR_TXE) != 0U)
 8004e7e:	23a4      	movs	r3, #164	; 0xa4
 8004e80:	18fb      	adds	r3, r7, r3
 8004e82:	681b      	ldr	r3, [r3, #0]
 8004e84:	2280      	movs	r2, #128	; 0x80
 8004e86:	4013      	ands	r3, r2
 8004e88:	d00f      	beq.n	8004eaa <HAL_UART_IRQHandler+0x572>
      && ((cr1its & USART_CR1_TXEIE) != 0U))
 8004e8a:	23a0      	movs	r3, #160	; 0xa0
 8004e8c:	18fb      	adds	r3, r7, r3
 8004e8e:	681b      	ldr	r3, [r3, #0]
 8004e90:	2280      	movs	r2, #128	; 0x80
 8004e92:	4013      	ands	r3, r2
 8004e94:	d009      	beq.n	8004eaa <HAL_UART_IRQHandler+0x572>
  {
    if (huart->TxISR != NULL)
 8004e96:	687b      	ldr	r3, [r7, #4]
 8004e98:	6e9b      	ldr	r3, [r3, #104]	; 0x68
 8004e9a:	2b00      	cmp	r3, #0
 8004e9c:	d01e      	beq.n	8004edc <HAL_UART_IRQHandler+0x5a4>
    {
      huart->TxISR(huart);
 8004e9e:	687b      	ldr	r3, [r7, #4]
 8004ea0:	6e9b      	ldr	r3, [r3, #104]	; 0x68
 8004ea2:	687a      	ldr	r2, [r7, #4]
 8004ea4:	0010      	movs	r0, r2
 8004ea6:	4798      	blx	r3
    }
    return;
 8004ea8:	e018      	b.n	8004edc <HAL_UART_IRQHandler+0x5a4>
  }

  /* UART in mode Transmitter (transmission end) -----------------------------*/
  if (((isrflags & USART_ISR_TC) != 0U) && ((cr1its & USART_CR1_TCIE) != 0U))
 8004eaa:	23a4      	movs	r3, #164	; 0xa4
 8004eac:	18fb      	adds	r3, r7, r3
 8004eae:	681b      	ldr	r3, [r3, #0]
 8004eb0:	2240      	movs	r2, #64	; 0x40
 8004eb2:	4013      	ands	r3, r2
 8004eb4:	d013      	beq.n	8004ede <HAL_UART_IRQHandler+0x5a6>
 8004eb6:	23a0      	movs	r3, #160	; 0xa0
 8004eb8:	18fb      	adds	r3, r7, r3
 8004eba:	681b      	ldr	r3, [r3, #0]
 8004ebc:	2240      	movs	r2, #64	; 0x40
 8004ebe:	4013      	ands	r3, r2
 8004ec0:	d00d      	beq.n	8004ede <HAL_UART_IRQHandler+0x5a6>
  {
    UART_EndTransmit_IT(huart);
 8004ec2:	687b      	ldr	r3, [r7, #4]
 8004ec4:	0018      	movs	r0, r3
 8004ec6:	f000 fd24 	bl	8005912 <UART_EndTransmit_IT>
    return;
 8004eca:	e008      	b.n	8004ede <HAL_UART_IRQHandler+0x5a6>
      return;
 8004ecc:	46c0      	nop			; (mov r8, r8)
 8004ece:	e006      	b.n	8004ede <HAL_UART_IRQHandler+0x5a6>
    return;
 8004ed0:	46c0      	nop			; (mov r8, r8)
 8004ed2:	e004      	b.n	8004ede <HAL_UART_IRQHandler+0x5a6>
      return;
 8004ed4:	46c0      	nop			; (mov r8, r8)
 8004ed6:	e002      	b.n	8004ede <HAL_UART_IRQHandler+0x5a6>
      return;
 8004ed8:	46c0      	nop			; (mov r8, r8)
 8004eda:	e000      	b.n	8004ede <HAL_UART_IRQHandler+0x5a6>
    return;
 8004edc:	46c0      	nop			; (mov r8, r8)
  }

}
 8004ede:	46bd      	mov	sp, r7
 8004ee0:	b02b      	add	sp, #172	; 0xac
 8004ee2:	bd90      	pop	{r4, r7, pc}
 8004ee4:	fffffeff 	.word	0xfffffeff
 8004ee8:	fffffedf 	.word	0xfffffedf

08004eec <HAL_UART_TxCpltCallback>:
  * @brief Tx Transfer completed callback.
  * @param huart UART handle.
  * @retval None
  */
__weak void HAL_UART_TxCpltCallback(UART_HandleTypeDef *huart)
{
 8004eec:	b580      	push	{r7, lr}
 8004eee:	b082      	sub	sp, #8
 8004ef0:	af00      	add	r7, sp, #0
 8004ef2:	6078      	str	r0, [r7, #4]
  UNUSED(huart);

  /* NOTE : This function should not be modified, when the callback is needed,
            the HAL_UART_TxCpltCallback can be implemented in the user file.
   */
}
 8004ef4:	46c0      	nop			; (mov r8, r8)
 8004ef6:	46bd      	mov	sp, r7
 8004ef8:	b002      	add	sp, #8
 8004efa:	bd80      	pop	{r7, pc}

08004efc <HAL_UART_ErrorCallback>:
  * @brief  UART error callback.
  * @param  huart UART handle.
  * @retval None
  */
__weak void HAL_UART_ErrorCallback(UART_HandleTypeDef *huart)
{
 8004efc:	b580      	push	{r7, lr}
 8004efe:	b082      	sub	sp, #8
 8004f00:	af00      	add	r7, sp, #0
 8004f02:	6078      	str	r0, [r7, #4]
  UNUSED(huart);

  /* NOTE : This function should not be modified, when the callback is needed,
            the HAL_UART_ErrorCallback can be implemented in the user file.
   */
}
 8004f04:	46c0      	nop			; (mov r8, r8)
 8004f06:	46bd      	mov	sp, r7
 8004f08:	b002      	add	sp, #8
 8004f0a:	bd80      	pop	{r7, pc}

08004f0c <HAL_UARTEx_RxEventCallback>:
  * @param  Size  Number of data available in application reception buffer (indicates a position in
  *               reception buffer until which, data are available)
  * @retval None
  */
__weak void HAL_UARTEx_RxEventCallback(UART_HandleTypeDef *huart, uint16_t Size)
{
 8004f0c:	b580      	push	{r7, lr}
 8004f0e:	b082      	sub	sp, #8
 8004f10:	af00      	add	r7, sp, #0
 8004f12:	6078      	str	r0, [r7, #4]
 8004f14:	000a      	movs	r2, r1
 8004f16:	1cbb      	adds	r3, r7, #2
 8004f18:	801a      	strh	r2, [r3, #0]
  UNUSED(Size);

  /* NOTE : This function should not be modified, when the callback is needed,
            the HAL_UARTEx_RxEventCallback can be implemented in the user file.
   */
}
 8004f1a:	46c0      	nop			; (mov r8, r8)
 8004f1c:	46bd      	mov	sp, r7
 8004f1e:	b002      	add	sp, #8
 8004f20:	bd80      	pop	{r7, pc}
	...

08004f24 <UART_SetConfig>:
  * @brief Configure the UART peripheral.
  * @param huart UART handle.
  * @retval HAL status
  */
HAL_StatusTypeDef UART_SetConfig(UART_HandleTypeDef *huart)
{
 8004f24:	b5b0      	push	{r4, r5, r7, lr}
 8004f26:	b08e      	sub	sp, #56	; 0x38
 8004f28:	af00      	add	r7, sp, #0
 8004f2a:	61f8      	str	r0, [r7, #28]
  uint32_t tmpreg;
  uint16_t brrtemp;
  UART_ClockSourceTypeDef clocksource;
  uint32_t usartdiv;
  HAL_StatusTypeDef ret               = HAL_OK;
 8004f2c:	231a      	movs	r3, #26
 8004f2e:	2218      	movs	r2, #24
 8004f30:	4694      	mov	ip, r2
 8004f32:	44bc      	add	ip, r7
 8004f34:	4463      	add	r3, ip
 8004f36:	2200      	movs	r2, #0
 8004f38:	701a      	strb	r2, [r3, #0]
  *  the UART Word Length, Parity, Mode and oversampling:
  *  set the M bits according to huart->Init.WordLength value
  *  set PCE and PS bits according to huart->Init.Parity value
  *  set TE and RE bits according to huart->Init.Mode value
  *  set OVER8 bit according to huart->Init.OverSampling value */
  tmpreg = (uint32_t)huart->Init.WordLength | huart->Init.Parity | huart->Init.Mode | huart->Init.OverSampling ;
 8004f3a:	69fb      	ldr	r3, [r7, #28]
 8004f3c:	689a      	ldr	r2, [r3, #8]
 8004f3e:	69fb      	ldr	r3, [r7, #28]
 8004f40:	691b      	ldr	r3, [r3, #16]
 8004f42:	431a      	orrs	r2, r3
 8004f44:	69fb      	ldr	r3, [r7, #28]
 8004f46:	695b      	ldr	r3, [r3, #20]
 8004f48:	431a      	orrs	r2, r3
 8004f4a:	69fb      	ldr	r3, [r7, #28]
 8004f4c:	69db      	ldr	r3, [r3, #28]
 8004f4e:	4313      	orrs	r3, r2
 8004f50:	637b      	str	r3, [r7, #52]	; 0x34
  MODIFY_REG(huart->Instance->CR1, USART_CR1_FIELDS, tmpreg);
 8004f52:	69fb      	ldr	r3, [r7, #28]
 8004f54:	681b      	ldr	r3, [r3, #0]
 8004f56:	681b      	ldr	r3, [r3, #0]
 8004f58:	4ab0      	ldr	r2, [pc, #704]	; (800521c <UART_SetConfig+0x2f8>)
 8004f5a:	4013      	ands	r3, r2
 8004f5c:	0019      	movs	r1, r3
 8004f5e:	69fb      	ldr	r3, [r7, #28]
 8004f60:	681b      	ldr	r3, [r3, #0]
 8004f62:	6b7a      	ldr	r2, [r7, #52]	; 0x34
 8004f64:	430a      	orrs	r2, r1
 8004f66:	601a      	str	r2, [r3, #0]

  /*-------------------------- USART CR2 Configuration -----------------------*/
  /* Configure the UART Stop Bits: Set STOP[13:12] bits according
  * to huart->Init.StopBits value */
  MODIFY_REG(huart->Instance->CR2, USART_CR2_STOP, huart->Init.StopBits);
 8004f68:	69fb      	ldr	r3, [r7, #28]
 8004f6a:	681b      	ldr	r3, [r3, #0]
 8004f6c:	685b      	ldr	r3, [r3, #4]
 8004f6e:	4aac      	ldr	r2, [pc, #688]	; (8005220 <UART_SetConfig+0x2fc>)
 8004f70:	4013      	ands	r3, r2
 8004f72:	0019      	movs	r1, r3
 8004f74:	69fb      	ldr	r3, [r7, #28]
 8004f76:	68da      	ldr	r2, [r3, #12]
 8004f78:	69fb      	ldr	r3, [r7, #28]
 8004f7a:	681b      	ldr	r3, [r3, #0]
 8004f7c:	430a      	orrs	r2, r1
 8004f7e:	605a      	str	r2, [r3, #4]
  /* Configure
  * - UART HardWare Flow Control: set CTSE and RTSE bits according
  *   to huart->Init.HwFlowCtl value
  * - one-bit sampling method versus three samples' majority rule according
  *   to huart->Init.OneBitSampling (not applicable to LPUART) */
  tmpreg = (uint32_t)huart->Init.HwFlowCtl;
 8004f80:	69fb      	ldr	r3, [r7, #28]
 8004f82:	699b      	ldr	r3, [r3, #24]
 8004f84:	637b      	str	r3, [r7, #52]	; 0x34

  if (!(UART_INSTANCE_LOWPOWER(huart)))
 8004f86:	69fb      	ldr	r3, [r7, #28]
 8004f88:	681b      	ldr	r3, [r3, #0]
 8004f8a:	4aa6      	ldr	r2, [pc, #664]	; (8005224 <UART_SetConfig+0x300>)
 8004f8c:	4293      	cmp	r3, r2
 8004f8e:	d004      	beq.n	8004f9a <UART_SetConfig+0x76>
  {
    tmpreg |= huart->Init.OneBitSampling;
 8004f90:	69fb      	ldr	r3, [r7, #28]
 8004f92:	6a1b      	ldr	r3, [r3, #32]
 8004f94:	6b7a      	ldr	r2, [r7, #52]	; 0x34
 8004f96:	4313      	orrs	r3, r2
 8004f98:	637b      	str	r3, [r7, #52]	; 0x34
  }
  MODIFY_REG(huart->Instance->CR3, USART_CR3_FIELDS, tmpreg);
 8004f9a:	69fb      	ldr	r3, [r7, #28]
 8004f9c:	681b      	ldr	r3, [r3, #0]
 8004f9e:	689b      	ldr	r3, [r3, #8]
 8004fa0:	4aa1      	ldr	r2, [pc, #644]	; (8005228 <UART_SetConfig+0x304>)
 8004fa2:	4013      	ands	r3, r2
 8004fa4:	0019      	movs	r1, r3
 8004fa6:	69fb      	ldr	r3, [r7, #28]
 8004fa8:	681b      	ldr	r3, [r3, #0]
 8004faa:	6b7a      	ldr	r2, [r7, #52]	; 0x34
 8004fac:	430a      	orrs	r2, r1
 8004fae:	609a      	str	r2, [r3, #8]


  /*-------------------------- USART BRR Configuration -----------------------*/
  UART_GETCLOCKSOURCE(huart, clocksource);
 8004fb0:	69fb      	ldr	r3, [r7, #28]
 8004fb2:	681b      	ldr	r3, [r3, #0]
 8004fb4:	4a9d      	ldr	r2, [pc, #628]	; (800522c <UART_SetConfig+0x308>)
 8004fb6:	4293      	cmp	r3, r2
 8004fb8:	d136      	bne.n	8005028 <UART_SetConfig+0x104>
 8004fba:	4b9d      	ldr	r3, [pc, #628]	; (8005230 <UART_SetConfig+0x30c>)
 8004fbc:	6cdb      	ldr	r3, [r3, #76]	; 0x4c
 8004fbe:	2203      	movs	r2, #3
 8004fc0:	4013      	ands	r3, r2
 8004fc2:	2b03      	cmp	r3, #3
 8004fc4:	d020      	beq.n	8005008 <UART_SetConfig+0xe4>
 8004fc6:	d827      	bhi.n	8005018 <UART_SetConfig+0xf4>
 8004fc8:	2b02      	cmp	r3, #2
 8004fca:	d00d      	beq.n	8004fe8 <UART_SetConfig+0xc4>
 8004fcc:	d824      	bhi.n	8005018 <UART_SetConfig+0xf4>
 8004fce:	2b00      	cmp	r3, #0
 8004fd0:	d002      	beq.n	8004fd8 <UART_SetConfig+0xb4>
 8004fd2:	2b01      	cmp	r3, #1
 8004fd4:	d010      	beq.n	8004ff8 <UART_SetConfig+0xd4>
 8004fd6:	e01f      	b.n	8005018 <UART_SetConfig+0xf4>
 8004fd8:	231b      	movs	r3, #27
 8004fda:	2218      	movs	r2, #24
 8004fdc:	4694      	mov	ip, r2
 8004fde:	44bc      	add	ip, r7
 8004fe0:	4463      	add	r3, ip
 8004fe2:	2201      	movs	r2, #1
 8004fe4:	701a      	strb	r2, [r3, #0]
 8004fe6:	e0c5      	b.n	8005174 <UART_SetConfig+0x250>
 8004fe8:	231b      	movs	r3, #27
 8004fea:	2218      	movs	r2, #24
 8004fec:	4694      	mov	ip, r2
 8004fee:	44bc      	add	ip, r7
 8004ff0:	4463      	add	r3, ip
 8004ff2:	2202      	movs	r2, #2
 8004ff4:	701a      	strb	r2, [r3, #0]
 8004ff6:	e0bd      	b.n	8005174 <UART_SetConfig+0x250>
 8004ff8:	231b      	movs	r3, #27
 8004ffa:	2218      	movs	r2, #24
 8004ffc:	4694      	mov	ip, r2
 8004ffe:	44bc      	add	ip, r7
 8005000:	4463      	add	r3, ip
 8005002:	2204      	movs	r2, #4
 8005004:	701a      	strb	r2, [r3, #0]
 8005006:	e0b5      	b.n	8005174 <UART_SetConfig+0x250>
 8005008:	231b      	movs	r3, #27
 800500a:	2218      	movs	r2, #24
 800500c:	4694      	mov	ip, r2
 800500e:	44bc      	add	ip, r7
 8005010:	4463      	add	r3, ip
 8005012:	2208      	movs	r2, #8
 8005014:	701a      	strb	r2, [r3, #0]
 8005016:	e0ad      	b.n	8005174 <UART_SetConfig+0x250>
 8005018:	231b      	movs	r3, #27
 800501a:	2218      	movs	r2, #24
 800501c:	4694      	mov	ip, r2
 800501e:	44bc      	add	ip, r7
 8005020:	4463      	add	r3, ip
 8005022:	2210      	movs	r2, #16
 8005024:	701a      	strb	r2, [r3, #0]
 8005026:	e0a5      	b.n	8005174 <UART_SetConfig+0x250>
 8005028:	69fb      	ldr	r3, [r7, #28]
 800502a:	681b      	ldr	r3, [r3, #0]
 800502c:	4a81      	ldr	r2, [pc, #516]	; (8005234 <UART_SetConfig+0x310>)
 800502e:	4293      	cmp	r3, r2
 8005030:	d136      	bne.n	80050a0 <UART_SetConfig+0x17c>
 8005032:	4b7f      	ldr	r3, [pc, #508]	; (8005230 <UART_SetConfig+0x30c>)
 8005034:	6cdb      	ldr	r3, [r3, #76]	; 0x4c
 8005036:	220c      	movs	r2, #12
 8005038:	4013      	ands	r3, r2
 800503a:	2b0c      	cmp	r3, #12
 800503c:	d020      	beq.n	8005080 <UART_SetConfig+0x15c>
 800503e:	d827      	bhi.n	8005090 <UART_SetConfig+0x16c>
 8005040:	2b08      	cmp	r3, #8
 8005042:	d00d      	beq.n	8005060 <UART_SetConfig+0x13c>
 8005044:	d824      	bhi.n	8005090 <UART_SetConfig+0x16c>
 8005046:	2b00      	cmp	r3, #0
 8005048:	d002      	beq.n	8005050 <UART_SetConfig+0x12c>
 800504a:	2b04      	cmp	r3, #4
 800504c:	d010      	beq.n	8005070 <UART_SetConfig+0x14c>
 800504e:	e01f      	b.n	8005090 <UART_SetConfig+0x16c>
 8005050:	231b      	movs	r3, #27
 8005052:	2218      	movs	r2, #24
 8005054:	4694      	mov	ip, r2
 8005056:	44bc      	add	ip, r7
 8005058:	4463      	add	r3, ip
 800505a:	2200      	movs	r2, #0
 800505c:	701a      	strb	r2, [r3, #0]
 800505e:	e089      	b.n	8005174 <UART_SetConfig+0x250>
 8005060:	231b      	movs	r3, #27
 8005062:	2218      	movs	r2, #24
 8005064:	4694      	mov	ip, r2
 8005066:	44bc      	add	ip, r7
 8005068:	4463      	add	r3, ip
 800506a:	2202      	movs	r2, #2
 800506c:	701a      	strb	r2, [r3, #0]
 800506e:	e081      	b.n	8005174 <UART_SetConfig+0x250>
 8005070:	231b      	movs	r3, #27
 8005072:	2218      	movs	r2, #24
 8005074:	4694      	mov	ip, r2
 8005076:	44bc      	add	ip, r7
 8005078:	4463      	add	r3, ip
 800507a:	2204      	movs	r2, #4
 800507c:	701a      	strb	r2, [r3, #0]
 800507e:	e079      	b.n	8005174 <UART_SetConfig+0x250>
 8005080:	231b      	movs	r3, #27
 8005082:	2218      	movs	r2, #24
 8005084:	4694      	mov	ip, r2
 8005086:	44bc      	add	ip, r7
 8005088:	4463      	add	r3, ip
 800508a:	2208      	movs	r2, #8
 800508c:	701a      	strb	r2, [r3, #0]
 800508e:	e071      	b.n	8005174 <UART_SetConfig+0x250>
 8005090:	231b      	movs	r3, #27
 8005092:	2218      	movs	r2, #24
 8005094:	4694      	mov	ip, r2
 8005096:	44bc      	add	ip, r7
 8005098:	4463      	add	r3, ip
 800509a:	2210      	movs	r2, #16
 800509c:	701a      	strb	r2, [r3, #0]
 800509e:	e069      	b.n	8005174 <UART_SetConfig+0x250>
 80050a0:	69fb      	ldr	r3, [r7, #28]
 80050a2:	681b      	ldr	r3, [r3, #0]
 80050a4:	4a64      	ldr	r2, [pc, #400]	; (8005238 <UART_SetConfig+0x314>)
 80050a6:	4293      	cmp	r3, r2
 80050a8:	d107      	bne.n	80050ba <UART_SetConfig+0x196>
 80050aa:	231b      	movs	r3, #27
 80050ac:	2218      	movs	r2, #24
 80050ae:	4694      	mov	ip, r2
 80050b0:	44bc      	add	ip, r7
 80050b2:	4463      	add	r3, ip
 80050b4:	2200      	movs	r2, #0
 80050b6:	701a      	strb	r2, [r3, #0]
 80050b8:	e05c      	b.n	8005174 <UART_SetConfig+0x250>
 80050ba:	69fb      	ldr	r3, [r7, #28]
 80050bc:	681b      	ldr	r3, [r3, #0]
 80050be:	4a5f      	ldr	r2, [pc, #380]	; (800523c <UART_SetConfig+0x318>)
 80050c0:	4293      	cmp	r3, r2
 80050c2:	d107      	bne.n	80050d4 <UART_SetConfig+0x1b0>
 80050c4:	231b      	movs	r3, #27
 80050c6:	2218      	movs	r2, #24
 80050c8:	4694      	mov	ip, r2
 80050ca:	44bc      	add	ip, r7
 80050cc:	4463      	add	r3, ip
 80050ce:	2200      	movs	r2, #0
 80050d0:	701a      	strb	r2, [r3, #0]
 80050d2:	e04f      	b.n	8005174 <UART_SetConfig+0x250>
 80050d4:	69fb      	ldr	r3, [r7, #28]
 80050d6:	681b      	ldr	r3, [r3, #0]
 80050d8:	4a52      	ldr	r2, [pc, #328]	; (8005224 <UART_SetConfig+0x300>)
 80050da:	4293      	cmp	r3, r2
 80050dc:	d143      	bne.n	8005166 <UART_SetConfig+0x242>
 80050de:	4b54      	ldr	r3, [pc, #336]	; (8005230 <UART_SetConfig+0x30c>)
 80050e0:	6cda      	ldr	r2, [r3, #76]	; 0x4c
 80050e2:	23c0      	movs	r3, #192	; 0xc0
 80050e4:	011b      	lsls	r3, r3, #4
 80050e6:	4013      	ands	r3, r2
 80050e8:	22c0      	movs	r2, #192	; 0xc0
 80050ea:	0112      	lsls	r2, r2, #4
 80050ec:	4293      	cmp	r3, r2
 80050ee:	d02a      	beq.n	8005146 <UART_SetConfig+0x222>
 80050f0:	22c0      	movs	r2, #192	; 0xc0
 80050f2:	0112      	lsls	r2, r2, #4
 80050f4:	4293      	cmp	r3, r2
 80050f6:	d82e      	bhi.n	8005156 <UART_SetConfig+0x232>
 80050f8:	2280      	movs	r2, #128	; 0x80
 80050fa:	0112      	lsls	r2, r2, #4
 80050fc:	4293      	cmp	r3, r2
 80050fe:	d012      	beq.n	8005126 <UART_SetConfig+0x202>
 8005100:	2280      	movs	r2, #128	; 0x80
 8005102:	0112      	lsls	r2, r2, #4
 8005104:	4293      	cmp	r3, r2
 8005106:	d826      	bhi.n	8005156 <UART_SetConfig+0x232>
 8005108:	2b00      	cmp	r3, #0
 800510a:	d004      	beq.n	8005116 <UART_SetConfig+0x1f2>
 800510c:	2280      	movs	r2, #128	; 0x80
 800510e:	00d2      	lsls	r2, r2, #3
 8005110:	4293      	cmp	r3, r2
 8005112:	d010      	beq.n	8005136 <UART_SetConfig+0x212>
 8005114:	e01f      	b.n	8005156 <UART_SetConfig+0x232>
 8005116:	231b      	movs	r3, #27
 8005118:	2218      	movs	r2, #24
 800511a:	4694      	mov	ip, r2
 800511c:	44bc      	add	ip, r7
 800511e:	4463      	add	r3, ip
 8005120:	2200      	movs	r2, #0
 8005122:	701a      	strb	r2, [r3, #0]
 8005124:	e026      	b.n	8005174 <UART_SetConfig+0x250>
 8005126:	231b      	movs	r3, #27
 8005128:	2218      	movs	r2, #24
 800512a:	4694      	mov	ip, r2
 800512c:	44bc      	add	ip, r7
 800512e:	4463      	add	r3, ip
 8005130:	2202      	movs	r2, #2
 8005132:	701a      	strb	r2, [r3, #0]
 8005134:	e01e      	b.n	8005174 <UART_SetConfig+0x250>
 8005136:	231b      	movs	r3, #27
 8005138:	2218      	movs	r2, #24
 800513a:	4694      	mov	ip, r2
 800513c:	44bc      	add	ip, r7
 800513e:	4463      	add	r3, ip
 8005140:	2204      	movs	r2, #4
 8005142:	701a      	strb	r2, [r3, #0]
 8005144:	e016      	b.n	8005174 <UART_SetConfig+0x250>
 8005146:	231b      	movs	r3, #27
 8005148:	2218      	movs	r2, #24
 800514a:	4694      	mov	ip, r2
 800514c:	44bc      	add	ip, r7
 800514e:	4463      	add	r3, ip
 8005150:	2208      	movs	r2, #8
 8005152:	701a      	strb	r2, [r3, #0]
 8005154:	e00e      	b.n	8005174 <UART_SetConfig+0x250>
 8005156:	231b      	movs	r3, #27
 8005158:	2218      	movs	r2, #24
 800515a:	4694      	mov	ip, r2
 800515c:	44bc      	add	ip, r7
 800515e:	4463      	add	r3, ip
 8005160:	2210      	movs	r2, #16
 8005162:	701a      	strb	r2, [r3, #0]
 8005164:	e006      	b.n	8005174 <UART_SetConfig+0x250>
 8005166:	231b      	movs	r3, #27
 8005168:	2218      	movs	r2, #24
 800516a:	4694      	mov	ip, r2
 800516c:	44bc      	add	ip, r7
 800516e:	4463      	add	r3, ip
 8005170:	2210      	movs	r2, #16
 8005172:	701a      	strb	r2, [r3, #0]

  /* Check LPUART instance */
  if (UART_INSTANCE_LOWPOWER(huart))
 8005174:	69fb      	ldr	r3, [r7, #28]
 8005176:	681b      	ldr	r3, [r3, #0]
 8005178:	4a2a      	ldr	r2, [pc, #168]	; (8005224 <UART_SetConfig+0x300>)
 800517a:	4293      	cmp	r3, r2
 800517c:	d000      	beq.n	8005180 <UART_SetConfig+0x25c>
 800517e:	e09e      	b.n	80052be <UART_SetConfig+0x39a>
  {
    /* Retrieve frequency clock */
    switch (clocksource)
 8005180:	231b      	movs	r3, #27
 8005182:	2218      	movs	r2, #24
 8005184:	4694      	mov	ip, r2
 8005186:	44bc      	add	ip, r7
 8005188:	4463      	add	r3, ip
 800518a:	781b      	ldrb	r3, [r3, #0]
 800518c:	2b08      	cmp	r3, #8
 800518e:	d01d      	beq.n	80051cc <UART_SetConfig+0x2a8>
 8005190:	dc20      	bgt.n	80051d4 <UART_SetConfig+0x2b0>
 8005192:	2b04      	cmp	r3, #4
 8005194:	d015      	beq.n	80051c2 <UART_SetConfig+0x29e>
 8005196:	dc1d      	bgt.n	80051d4 <UART_SetConfig+0x2b0>
 8005198:	2b00      	cmp	r3, #0
 800519a:	d002      	beq.n	80051a2 <UART_SetConfig+0x27e>
 800519c:	2b02      	cmp	r3, #2
 800519e:	d005      	beq.n	80051ac <UART_SetConfig+0x288>
 80051a0:	e018      	b.n	80051d4 <UART_SetConfig+0x2b0>
    {
      case UART_CLOCKSOURCE_PCLK1:
        pclk = HAL_RCC_GetPCLK1Freq();
 80051a2:	f7fe f995 	bl	80034d0 <HAL_RCC_GetPCLK1Freq>
 80051a6:	0003      	movs	r3, r0
 80051a8:	62fb      	str	r3, [r7, #44]	; 0x2c
        break;
 80051aa:	e01d      	b.n	80051e8 <UART_SetConfig+0x2c4>
      case UART_CLOCKSOURCE_HSI:
        if (__HAL_RCC_GET_FLAG(RCC_FLAG_HSIDIV) != 0U)
 80051ac:	4b20      	ldr	r3, [pc, #128]	; (8005230 <UART_SetConfig+0x30c>)
 80051ae:	681b      	ldr	r3, [r3, #0]
 80051b0:	2210      	movs	r2, #16
 80051b2:	4013      	ands	r3, r2
 80051b4:	d002      	beq.n	80051bc <UART_SetConfig+0x298>
        {
          pclk = (uint32_t)(HSI_VALUE >> 2U);
 80051b6:	4b22      	ldr	r3, [pc, #136]	; (8005240 <UART_SetConfig+0x31c>)
 80051b8:	62fb      	str	r3, [r7, #44]	; 0x2c
        }
        else
        {
          pclk = (uint32_t) HSI_VALUE;
        }
        break;
 80051ba:	e015      	b.n	80051e8 <UART_SetConfig+0x2c4>
          pclk = (uint32_t) HSI_VALUE;
 80051bc:	4b21      	ldr	r3, [pc, #132]	; (8005244 <UART_SetConfig+0x320>)
 80051be:	62fb      	str	r3, [r7, #44]	; 0x2c
        break;
 80051c0:	e012      	b.n	80051e8 <UART_SetConfig+0x2c4>
      case UART_CLOCKSOURCE_SYSCLK:
        pclk = HAL_RCC_GetSysClockFreq();
 80051c2:	f7fe f8d5 	bl	8003370 <HAL_RCC_GetSysClockFreq>
 80051c6:	0003      	movs	r3, r0
 80051c8:	62fb      	str	r3, [r7, #44]	; 0x2c
        break;
 80051ca:	e00d      	b.n	80051e8 <UART_SetConfig+0x2c4>
      case UART_CLOCKSOURCE_LSE:
        pclk = (uint32_t) LSE_VALUE;
 80051cc:	2380      	movs	r3, #128	; 0x80
 80051ce:	021b      	lsls	r3, r3, #8
 80051d0:	62fb      	str	r3, [r7, #44]	; 0x2c
        break;
 80051d2:	e009      	b.n	80051e8 <UART_SetConfig+0x2c4>
      default:
        pclk = 0U;
 80051d4:	2300      	movs	r3, #0
 80051d6:	62fb      	str	r3, [r7, #44]	; 0x2c
        ret = HAL_ERROR;
 80051d8:	231a      	movs	r3, #26
 80051da:	2218      	movs	r2, #24
 80051dc:	4694      	mov	ip, r2
 80051de:	44bc      	add	ip, r7
 80051e0:	4463      	add	r3, ip
 80051e2:	2201      	movs	r2, #1
 80051e4:	701a      	strb	r2, [r3, #0]
        break;
 80051e6:	46c0      	nop			; (mov r8, r8)
    }

    /* If proper clock source reported */
    if (pclk != 0U)
 80051e8:	6afb      	ldr	r3, [r7, #44]	; 0x2c
 80051ea:	2b00      	cmp	r3, #0
 80051ec:	d100      	bne.n	80051f0 <UART_SetConfig+0x2cc>
 80051ee:	e13c      	b.n	800546a <UART_SetConfig+0x546>
    {
      /* No Prescaler applicable */
      /* Ensure that Frequency clock is in the range [3 * baudrate, 4096 * baudrate] */
      if ((pclk < (3U * huart->Init.BaudRate)) ||
 80051f0:	69fb      	ldr	r3, [r7, #28]
 80051f2:	685a      	ldr	r2, [r3, #4]
 80051f4:	0013      	movs	r3, r2
 80051f6:	005b      	lsls	r3, r3, #1
 80051f8:	189b      	adds	r3, r3, r2
 80051fa:	6afa      	ldr	r2, [r7, #44]	; 0x2c
 80051fc:	429a      	cmp	r2, r3
 80051fe:	d305      	bcc.n	800520c <UART_SetConfig+0x2e8>
          (pclk > (4096U * huart->Init.BaudRate)))
 8005200:	69fb      	ldr	r3, [r7, #28]
 8005202:	685b      	ldr	r3, [r3, #4]
 8005204:	031b      	lsls	r3, r3, #12
      if ((pclk < (3U * huart->Init.BaudRate)) ||
 8005206:	6afa      	ldr	r2, [r7, #44]	; 0x2c
 8005208:	429a      	cmp	r2, r3
 800520a:	d91d      	bls.n	8005248 <UART_SetConfig+0x324>
      {
        ret = HAL_ERROR;
 800520c:	231a      	movs	r3, #26
 800520e:	2218      	movs	r2, #24
 8005210:	4694      	mov	ip, r2
 8005212:	44bc      	add	ip, r7
 8005214:	4463      	add	r3, ip
 8005216:	2201      	movs	r2, #1
 8005218:	701a      	strb	r2, [r3, #0]
 800521a:	e126      	b.n	800546a <UART_SetConfig+0x546>
 800521c:	efff69f3 	.word	0xefff69f3
 8005220:	ffffcfff 	.word	0xffffcfff
 8005224:	40004800 	.word	0x40004800
 8005228:	fffff4ff 	.word	0xfffff4ff
 800522c:	40013800 	.word	0x40013800
 8005230:	40021000 	.word	0x40021000
 8005234:	40004400 	.word	0x40004400
 8005238:	40004c00 	.word	0x40004c00
 800523c:	40005000 	.word	0x40005000
 8005240:	003d0900 	.word	0x003d0900
 8005244:	00f42400 	.word	0x00f42400
      }
      else
      {
        usartdiv = (uint32_t)(UART_DIV_LPUART(pclk, huart->Init.BaudRate));
 8005248:	6afb      	ldr	r3, [r7, #44]	; 0x2c
 800524a:	613b      	str	r3, [r7, #16]
 800524c:	2300      	movs	r3, #0
 800524e:	617b      	str	r3, [r7, #20]
 8005250:	6939      	ldr	r1, [r7, #16]
 8005252:	697a      	ldr	r2, [r7, #20]
 8005254:	000b      	movs	r3, r1
 8005256:	0e1b      	lsrs	r3, r3, #24
 8005258:	0010      	movs	r0, r2
 800525a:	0205      	lsls	r5, r0, #8
 800525c:	431d      	orrs	r5, r3
 800525e:	000b      	movs	r3, r1
 8005260:	021c      	lsls	r4, r3, #8
 8005262:	69fb      	ldr	r3, [r7, #28]
 8005264:	685b      	ldr	r3, [r3, #4]
 8005266:	085b      	lsrs	r3, r3, #1
 8005268:	60bb      	str	r3, [r7, #8]
 800526a:	2300      	movs	r3, #0
 800526c:	60fb      	str	r3, [r7, #12]
 800526e:	68b8      	ldr	r0, [r7, #8]
 8005270:	68f9      	ldr	r1, [r7, #12]
 8005272:	1900      	adds	r0, r0, r4
 8005274:	4169      	adcs	r1, r5
 8005276:	69fb      	ldr	r3, [r7, #28]
 8005278:	685b      	ldr	r3, [r3, #4]
 800527a:	603b      	str	r3, [r7, #0]
 800527c:	2300      	movs	r3, #0
 800527e:	607b      	str	r3, [r7, #4]
 8005280:	683a      	ldr	r2, [r7, #0]
 8005282:	687b      	ldr	r3, [r7, #4]
 8005284:	f7fa ffde 	bl	8000244 <__aeabi_uldivmod>
 8005288:	0002      	movs	r2, r0
 800528a:	000b      	movs	r3, r1
 800528c:	0013      	movs	r3, r2
 800528e:	62bb      	str	r3, [r7, #40]	; 0x28
        if ((usartdiv >= LPUART_BRR_MIN) && (usartdiv <= LPUART_BRR_MAX))
 8005290:	6aba      	ldr	r2, [r7, #40]	; 0x28
 8005292:	23c0      	movs	r3, #192	; 0xc0
 8005294:	009b      	lsls	r3, r3, #2
 8005296:	429a      	cmp	r2, r3
 8005298:	d309      	bcc.n	80052ae <UART_SetConfig+0x38a>
 800529a:	6aba      	ldr	r2, [r7, #40]	; 0x28
 800529c:	2380      	movs	r3, #128	; 0x80
 800529e:	035b      	lsls	r3, r3, #13
 80052a0:	429a      	cmp	r2, r3
 80052a2:	d204      	bcs.n	80052ae <UART_SetConfig+0x38a>
        {
          huart->Instance->BRR = usartdiv;
 80052a4:	69fb      	ldr	r3, [r7, #28]
 80052a6:	681b      	ldr	r3, [r3, #0]
 80052a8:	6aba      	ldr	r2, [r7, #40]	; 0x28
 80052aa:	60da      	str	r2, [r3, #12]
 80052ac:	e0dd      	b.n	800546a <UART_SetConfig+0x546>
        }
        else
        {
          ret = HAL_ERROR;
 80052ae:	231a      	movs	r3, #26
 80052b0:	2218      	movs	r2, #24
 80052b2:	4694      	mov	ip, r2
 80052b4:	44bc      	add	ip, r7
 80052b6:	4463      	add	r3, ip
 80052b8:	2201      	movs	r2, #1
 80052ba:	701a      	strb	r2, [r3, #0]
 80052bc:	e0d5      	b.n	800546a <UART_SetConfig+0x546>
        }
      } /* if ( (pclk < (3 * huart->Init.BaudRate) ) || (pclk > (4096 * huart->Init.BaudRate) )) */
    } /* if (pclk != 0) */
  }
  /* Check UART Over Sampling to set Baud Rate Register */
  else if (huart->Init.OverSampling == UART_OVERSAMPLING_8)
 80052be:	69fb      	ldr	r3, [r7, #28]
 80052c0:	69da      	ldr	r2, [r3, #28]
 80052c2:	2380      	movs	r3, #128	; 0x80
 80052c4:	021b      	lsls	r3, r3, #8
 80052c6:	429a      	cmp	r2, r3
 80052c8:	d000      	beq.n	80052cc <UART_SetConfig+0x3a8>
 80052ca:	e074      	b.n	80053b6 <UART_SetConfig+0x492>
  {
    switch (clocksource)
 80052cc:	231b      	movs	r3, #27
 80052ce:	2218      	movs	r2, #24
 80052d0:	4694      	mov	ip, r2
 80052d2:	44bc      	add	ip, r7
 80052d4:	4463      	add	r3, ip
 80052d6:	781b      	ldrb	r3, [r3, #0]
 80052d8:	2b08      	cmp	r3, #8
 80052da:	d822      	bhi.n	8005322 <UART_SetConfig+0x3fe>
 80052dc:	009a      	lsls	r2, r3, #2
 80052de:	4b6b      	ldr	r3, [pc, #428]	; (800548c <UART_SetConfig+0x568>)
 80052e0:	18d3      	adds	r3, r2, r3
 80052e2:	681b      	ldr	r3, [r3, #0]
 80052e4:	469f      	mov	pc, r3
    {
      case UART_CLOCKSOURCE_PCLK1:
        pclk = HAL_RCC_GetPCLK1Freq();
 80052e6:	f7fe f8f3 	bl	80034d0 <HAL_RCC_GetPCLK1Freq>
 80052ea:	0003      	movs	r3, r0
 80052ec:	62fb      	str	r3, [r7, #44]	; 0x2c
        break;
 80052ee:	e022      	b.n	8005336 <UART_SetConfig+0x412>
      case UART_CLOCKSOURCE_PCLK2:
        pclk = HAL_RCC_GetPCLK2Freq();
 80052f0:	f7fe f904 	bl	80034fc <HAL_RCC_GetPCLK2Freq>
 80052f4:	0003      	movs	r3, r0
 80052f6:	62fb      	str	r3, [r7, #44]	; 0x2c
        break;
 80052f8:	e01d      	b.n	8005336 <UART_SetConfig+0x412>
      case UART_CLOCKSOURCE_HSI:
        if (__HAL_RCC_GET_FLAG(RCC_FLAG_HSIDIV) != 0U)
 80052fa:	4b65      	ldr	r3, [pc, #404]	; (8005490 <UART_SetConfig+0x56c>)
 80052fc:	681b      	ldr	r3, [r3, #0]
 80052fe:	2210      	movs	r2, #16
 8005300:	4013      	ands	r3, r2
 8005302:	d002      	beq.n	800530a <UART_SetConfig+0x3e6>
        {
          pclk = (uint32_t)(HSI_VALUE >> 2U);
 8005304:	4b63      	ldr	r3, [pc, #396]	; (8005494 <UART_SetConfig+0x570>)
 8005306:	62fb      	str	r3, [r7, #44]	; 0x2c
        }
        else
        {
          pclk = (uint32_t) HSI_VALUE;
        }
        break;
 8005308:	e015      	b.n	8005336 <UART_SetConfig+0x412>
          pclk = (uint32_t) HSI_VALUE;
 800530a:	4b63      	ldr	r3, [pc, #396]	; (8005498 <UART_SetConfig+0x574>)
 800530c:	62fb      	str	r3, [r7, #44]	; 0x2c
        break;
 800530e:	e012      	b.n	8005336 <UART_SetConfig+0x412>
      case UART_CLOCKSOURCE_SYSCLK:
        pclk = HAL_RCC_GetSysClockFreq();
 8005310:	f7fe f82e 	bl	8003370 <HAL_RCC_GetSysClockFreq>
 8005314:	0003      	movs	r3, r0
 8005316:	62fb      	str	r3, [r7, #44]	; 0x2c
        break;
 8005318:	e00d      	b.n	8005336 <UART_SetConfig+0x412>
      case UART_CLOCKSOURCE_LSE:
        pclk = (uint32_t) LSE_VALUE;
 800531a:	2380      	movs	r3, #128	; 0x80
 800531c:	021b      	lsls	r3, r3, #8
 800531e:	62fb      	str	r3, [r7, #44]	; 0x2c
        break;
 8005320:	e009      	b.n	8005336 <UART_SetConfig+0x412>
      default:
        pclk = 0U;
 8005322:	2300      	movs	r3, #0
 8005324:	62fb      	str	r3, [r7, #44]	; 0x2c
        ret = HAL_ERROR;
 8005326:	231a      	movs	r3, #26
 8005328:	2218      	movs	r2, #24
 800532a:	4694      	mov	ip, r2
 800532c:	44bc      	add	ip, r7
 800532e:	4463      	add	r3, ip
 8005330:	2201      	movs	r2, #1
 8005332:	701a      	strb	r2, [r3, #0]
        break;
 8005334:	46c0      	nop			; (mov r8, r8)
    }

    /* USARTDIV must be greater than or equal to 0d16 */
    if (pclk != 0U)
 8005336:	6afb      	ldr	r3, [r7, #44]	; 0x2c
 8005338:	2b00      	cmp	r3, #0
 800533a:	d100      	bne.n	800533e <UART_SetConfig+0x41a>
 800533c:	e095      	b.n	800546a <UART_SetConfig+0x546>
    {
      usartdiv = (uint16_t)(UART_DIV_SAMPLING8(pclk, huart->Init.BaudRate));
 800533e:	6afb      	ldr	r3, [r7, #44]	; 0x2c
 8005340:	005a      	lsls	r2, r3, #1
 8005342:	69fb      	ldr	r3, [r7, #28]
 8005344:	685b      	ldr	r3, [r3, #4]
 8005346:	085b      	lsrs	r3, r3, #1
 8005348:	18d2      	adds	r2, r2, r3
 800534a:	69fb      	ldr	r3, [r7, #28]
 800534c:	685b      	ldr	r3, [r3, #4]
 800534e:	0019      	movs	r1, r3
 8005350:	0010      	movs	r0, r2
 8005352:	f7fa feeb 	bl	800012c <__udivsi3>
 8005356:	0003      	movs	r3, r0
 8005358:	b29b      	uxth	r3, r3
 800535a:	62bb      	str	r3, [r7, #40]	; 0x28
      if ((usartdiv >= UART_BRR_MIN) && (usartdiv <= UART_BRR_MAX))
 800535c:	6abb      	ldr	r3, [r7, #40]	; 0x28
 800535e:	2b0f      	cmp	r3, #15
 8005360:	d921      	bls.n	80053a6 <UART_SetConfig+0x482>
 8005362:	6aba      	ldr	r2, [r7, #40]	; 0x28
 8005364:	2380      	movs	r3, #128	; 0x80
 8005366:	025b      	lsls	r3, r3, #9
 8005368:	429a      	cmp	r2, r3
 800536a:	d21c      	bcs.n	80053a6 <UART_SetConfig+0x482>
      {
        brrtemp = (uint16_t)(usartdiv & 0xFFF0U);
 800536c:	6abb      	ldr	r3, [r7, #40]	; 0x28
 800536e:	b29a      	uxth	r2, r3
 8005370:	200e      	movs	r0, #14
 8005372:	2418      	movs	r4, #24
 8005374:	193b      	adds	r3, r7, r4
 8005376:	181b      	adds	r3, r3, r0
 8005378:	210f      	movs	r1, #15
 800537a:	438a      	bics	r2, r1
 800537c:	801a      	strh	r2, [r3, #0]
        brrtemp |= (uint16_t)((usartdiv & (uint16_t)0x000FU) >> 1U);
 800537e:	6abb      	ldr	r3, [r7, #40]	; 0x28
 8005380:	085b      	lsrs	r3, r3, #1
 8005382:	b29b      	uxth	r3, r3
 8005384:	2207      	movs	r2, #7
 8005386:	4013      	ands	r3, r2
 8005388:	b299      	uxth	r1, r3
 800538a:	193b      	adds	r3, r7, r4
 800538c:	181b      	adds	r3, r3, r0
 800538e:	193a      	adds	r2, r7, r4
 8005390:	1812      	adds	r2, r2, r0
 8005392:	8812      	ldrh	r2, [r2, #0]
 8005394:	430a      	orrs	r2, r1
 8005396:	801a      	strh	r2, [r3, #0]
        huart->Instance->BRR = brrtemp;
 8005398:	69fb      	ldr	r3, [r7, #28]
 800539a:	681b      	ldr	r3, [r3, #0]
 800539c:	193a      	adds	r2, r7, r4
 800539e:	1812      	adds	r2, r2, r0
 80053a0:	8812      	ldrh	r2, [r2, #0]
 80053a2:	60da      	str	r2, [r3, #12]
 80053a4:	e061      	b.n	800546a <UART_SetConfig+0x546>
      }
      else
      {
        ret = HAL_ERROR;
 80053a6:	231a      	movs	r3, #26
 80053a8:	2218      	movs	r2, #24
 80053aa:	4694      	mov	ip, r2
 80053ac:	44bc      	add	ip, r7
 80053ae:	4463      	add	r3, ip
 80053b0:	2201      	movs	r2, #1
 80053b2:	701a      	strb	r2, [r3, #0]
 80053b4:	e059      	b.n	800546a <UART_SetConfig+0x546>
      }
    }
  }
  else
  {
    switch (clocksource)
 80053b6:	231b      	movs	r3, #27
 80053b8:	2218      	movs	r2, #24
 80053ba:	4694      	mov	ip, r2
 80053bc:	44bc      	add	ip, r7
 80053be:	4463      	add	r3, ip
 80053c0:	781b      	ldrb	r3, [r3, #0]
 80053c2:	2b08      	cmp	r3, #8
 80053c4:	d822      	bhi.n	800540c <UART_SetConfig+0x4e8>
 80053c6:	009a      	lsls	r2, r3, #2
 80053c8:	4b34      	ldr	r3, [pc, #208]	; (800549c <UART_SetConfig+0x578>)
 80053ca:	18d3      	adds	r3, r2, r3
 80053cc:	681b      	ldr	r3, [r3, #0]
 80053ce:	469f      	mov	pc, r3
    {
      case UART_CLOCKSOURCE_PCLK1:
        pclk = HAL_RCC_GetPCLK1Freq();
 80053d0:	f7fe f87e 	bl	80034d0 <HAL_RCC_GetPCLK1Freq>
 80053d4:	0003      	movs	r3, r0
 80053d6:	62fb      	str	r3, [r7, #44]	; 0x2c
        break;
 80053d8:	e022      	b.n	8005420 <UART_SetConfig+0x4fc>
      case UART_CLOCKSOURCE_PCLK2:
        pclk = HAL_RCC_GetPCLK2Freq();
 80053da:	f7fe f88f 	bl	80034fc <HAL_RCC_GetPCLK2Freq>
 80053de:	0003      	movs	r3, r0
 80053e0:	62fb      	str	r3, [r7, #44]	; 0x2c
        break;
 80053e2:	e01d      	b.n	8005420 <UART_SetConfig+0x4fc>
      case UART_CLOCKSOURCE_HSI:
        if (__HAL_RCC_GET_FLAG(RCC_FLAG_HSIDIV) != 0U)
 80053e4:	4b2a      	ldr	r3, [pc, #168]	; (8005490 <UART_SetConfig+0x56c>)
 80053e6:	681b      	ldr	r3, [r3, #0]
 80053e8:	2210      	movs	r2, #16
 80053ea:	4013      	ands	r3, r2
 80053ec:	d002      	beq.n	80053f4 <UART_SetConfig+0x4d0>
        {
          pclk = (uint32_t)(HSI_VALUE >> 2U);
 80053ee:	4b29      	ldr	r3, [pc, #164]	; (8005494 <UART_SetConfig+0x570>)
 80053f0:	62fb      	str	r3, [r7, #44]	; 0x2c
        }
        else
        {
          pclk = (uint32_t) HSI_VALUE;
        }
        break;
 80053f2:	e015      	b.n	8005420 <UART_SetConfig+0x4fc>
          pclk = (uint32_t) HSI_VALUE;
 80053f4:	4b28      	ldr	r3, [pc, #160]	; (8005498 <UART_SetConfig+0x574>)
 80053f6:	62fb      	str	r3, [r7, #44]	; 0x2c
        break;
 80053f8:	e012      	b.n	8005420 <UART_SetConfig+0x4fc>
      case UART_CLOCKSOURCE_SYSCLK:
        pclk = HAL_RCC_GetSysClockFreq();
 80053fa:	f7fd ffb9 	bl	8003370 <HAL_RCC_GetSysClockFreq>
 80053fe:	0003      	movs	r3, r0
 8005400:	62fb      	str	r3, [r7, #44]	; 0x2c
        break;
 8005402:	e00d      	b.n	8005420 <UART_SetConfig+0x4fc>
      case UART_CLOCKSOURCE_LSE:
        pclk = (uint32_t) LSE_VALUE;
 8005404:	2380      	movs	r3, #128	; 0x80
 8005406:	021b      	lsls	r3, r3, #8
 8005408:	62fb      	str	r3, [r7, #44]	; 0x2c
        break;
 800540a:	e009      	b.n	8005420 <UART_SetConfig+0x4fc>
      default:
        pclk = 0U;
 800540c:	2300      	movs	r3, #0
 800540e:	62fb      	str	r3, [r7, #44]	; 0x2c
        ret = HAL_ERROR;
 8005410:	231a      	movs	r3, #26
 8005412:	2218      	movs	r2, #24
 8005414:	4694      	mov	ip, r2
 8005416:	44bc      	add	ip, r7
 8005418:	4463      	add	r3, ip
 800541a:	2201      	movs	r2, #1
 800541c:	701a      	strb	r2, [r3, #0]
        break;
 800541e:	46c0      	nop			; (mov r8, r8)
    }

    if (pclk != 0U)
 8005420:	6afb      	ldr	r3, [r7, #44]	; 0x2c
 8005422:	2b00      	cmp	r3, #0
 8005424:	d021      	beq.n	800546a <UART_SetConfig+0x546>
    {
      /* USARTDIV must be greater than or equal to 0d16 */
      usartdiv = (uint16_t)(UART_DIV_SAMPLING16(pclk, huart->Init.BaudRate));
 8005426:	69fb      	ldr	r3, [r7, #28]
 8005428:	685b      	ldr	r3, [r3, #4]
 800542a:	085a      	lsrs	r2, r3, #1
 800542c:	6afb      	ldr	r3, [r7, #44]	; 0x2c
 800542e:	18d2      	adds	r2, r2, r3
 8005430:	69fb      	ldr	r3, [r7, #28]
 8005432:	685b      	ldr	r3, [r3, #4]
 8005434:	0019      	movs	r1, r3
 8005436:	0010      	movs	r0, r2
 8005438:	f7fa fe78 	bl	800012c <__udivsi3>
 800543c:	0003      	movs	r3, r0
 800543e:	b29b      	uxth	r3, r3
 8005440:	62bb      	str	r3, [r7, #40]	; 0x28
      if ((usartdiv >= UART_BRR_MIN) && (usartdiv <= UART_BRR_MAX))
 8005442:	6abb      	ldr	r3, [r7, #40]	; 0x28
 8005444:	2b0f      	cmp	r3, #15
 8005446:	d909      	bls.n	800545c <UART_SetConfig+0x538>
 8005448:	6aba      	ldr	r2, [r7, #40]	; 0x28
 800544a:	2380      	movs	r3, #128	; 0x80
 800544c:	025b      	lsls	r3, r3, #9
 800544e:	429a      	cmp	r2, r3
 8005450:	d204      	bcs.n	800545c <UART_SetConfig+0x538>
      {
        huart->Instance->BRR = usartdiv;
 8005452:	69fb      	ldr	r3, [r7, #28]
 8005454:	681b      	ldr	r3, [r3, #0]
 8005456:	6aba      	ldr	r2, [r7, #40]	; 0x28
 8005458:	60da      	str	r2, [r3, #12]
 800545a:	e006      	b.n	800546a <UART_SetConfig+0x546>
      }
      else
      {
        ret = HAL_ERROR;
 800545c:	231a      	movs	r3, #26
 800545e:	2218      	movs	r2, #24
 8005460:	4694      	mov	ip, r2
 8005462:	44bc      	add	ip, r7
 8005464:	4463      	add	r3, ip
 8005466:	2201      	movs	r2, #1
 8005468:	701a      	strb	r2, [r3, #0]
    }
  }


  /* Clear ISR function pointers */
  huart->RxISR = NULL;
 800546a:	69fb      	ldr	r3, [r7, #28]
 800546c:	2200      	movs	r2, #0
 800546e:	665a      	str	r2, [r3, #100]	; 0x64
  huart->TxISR = NULL;
 8005470:	69fb      	ldr	r3, [r7, #28]
 8005472:	2200      	movs	r2, #0
 8005474:	669a      	str	r2, [r3, #104]	; 0x68

  return ret;
 8005476:	231a      	movs	r3, #26
 8005478:	2218      	movs	r2, #24
 800547a:	4694      	mov	ip, r2
 800547c:	44bc      	add	ip, r7
 800547e:	4463      	add	r3, ip
 8005480:	781b      	ldrb	r3, [r3, #0]
}
 8005482:	0018      	movs	r0, r3
 8005484:	46bd      	mov	sp, r7
 8005486:	b00e      	add	sp, #56	; 0x38
 8005488:	bdb0      	pop	{r4, r5, r7, pc}
 800548a:	46c0      	nop			; (mov r8, r8)
 800548c:	080065e0 	.word	0x080065e0
 8005490:	40021000 	.word	0x40021000
 8005494:	003d0900 	.word	0x003d0900
 8005498:	00f42400 	.word	0x00f42400
 800549c:	08006604 	.word	0x08006604

080054a0 <UART_AdvFeatureConfig>:
  * @brief Configure the UART peripheral advanced features.
  * @param huart UART handle.
  * @retval None
  */
void UART_AdvFeatureConfig(UART_HandleTypeDef *huart)
{
 80054a0:	b580      	push	{r7, lr}
 80054a2:	b082      	sub	sp, #8
 80054a4:	af00      	add	r7, sp, #0
 80054a6:	6078      	str	r0, [r7, #4]
  /* Check whether the set of advanced features to configure is properly set */
  assert_param(IS_UART_ADVFEATURE_INIT(huart->AdvancedInit.AdvFeatureInit));

  /* if required, configure TX pin active level inversion */
  if (HAL_IS_BIT_SET(huart->AdvancedInit.AdvFeatureInit, UART_ADVFEATURE_TXINVERT_INIT))
 80054a8:	687b      	ldr	r3, [r7, #4]
 80054aa:	6a5b      	ldr	r3, [r3, #36]	; 0x24
 80054ac:	2201      	movs	r2, #1
 80054ae:	4013      	ands	r3, r2
 80054b0:	d00b      	beq.n	80054ca <UART_AdvFeatureConfig+0x2a>
  {
    assert_param(IS_UART_ADVFEATURE_TXINV(huart->AdvancedInit.TxPinLevelInvert));
    MODIFY_REG(huart->Instance->CR2, USART_CR2_TXINV, huart->AdvancedInit.TxPinLevelInvert);
 80054b2:	687b      	ldr	r3, [r7, #4]
 80054b4:	681b      	ldr	r3, [r3, #0]
 80054b6:	685b      	ldr	r3, [r3, #4]
 80054b8:	4a4a      	ldr	r2, [pc, #296]	; (80055e4 <UART_AdvFeatureConfig+0x144>)
 80054ba:	4013      	ands	r3, r2
 80054bc:	0019      	movs	r1, r3
 80054be:	687b      	ldr	r3, [r7, #4]
 80054c0:	6a9a      	ldr	r2, [r3, #40]	; 0x28
 80054c2:	687b      	ldr	r3, [r7, #4]
 80054c4:	681b      	ldr	r3, [r3, #0]
 80054c6:	430a      	orrs	r2, r1
 80054c8:	605a      	str	r2, [r3, #4]
  }

  /* if required, configure RX pin active level inversion */
  if (HAL_IS_BIT_SET(huart->AdvancedInit.AdvFeatureInit, UART_ADVFEATURE_RXINVERT_INIT))
 80054ca:	687b      	ldr	r3, [r7, #4]
 80054cc:	6a5b      	ldr	r3, [r3, #36]	; 0x24
 80054ce:	2202      	movs	r2, #2
 80054d0:	4013      	ands	r3, r2
 80054d2:	d00b      	beq.n	80054ec <UART_AdvFeatureConfig+0x4c>
  {
    assert_param(IS_UART_ADVFEATURE_RXINV(huart->AdvancedInit.RxPinLevelInvert));
    MODIFY_REG(huart->Instance->CR2, USART_CR2_RXINV, huart->AdvancedInit.RxPinLevelInvert);
 80054d4:	687b      	ldr	r3, [r7, #4]
 80054d6:	681b      	ldr	r3, [r3, #0]
 80054d8:	685b      	ldr	r3, [r3, #4]
 80054da:	4a43      	ldr	r2, [pc, #268]	; (80055e8 <UART_AdvFeatureConfig+0x148>)
 80054dc:	4013      	ands	r3, r2
 80054de:	0019      	movs	r1, r3
 80054e0:	687b      	ldr	r3, [r7, #4]
 80054e2:	6ada      	ldr	r2, [r3, #44]	; 0x2c
 80054e4:	687b      	ldr	r3, [r7, #4]
 80054e6:	681b      	ldr	r3, [r3, #0]
 80054e8:	430a      	orrs	r2, r1
 80054ea:	605a      	str	r2, [r3, #4]
  }

  /* if required, configure data inversion */
  if (HAL_IS_BIT_SET(huart->AdvancedInit.AdvFeatureInit, UART_ADVFEATURE_DATAINVERT_INIT))
 80054ec:	687b      	ldr	r3, [r7, #4]
 80054ee:	6a5b      	ldr	r3, [r3, #36]	; 0x24
 80054f0:	2204      	movs	r2, #4
 80054f2:	4013      	ands	r3, r2
 80054f4:	d00b      	beq.n	800550e <UART_AdvFeatureConfig+0x6e>
  {
    assert_param(IS_UART_ADVFEATURE_DATAINV(huart->AdvancedInit.DataInvert));
    MODIFY_REG(huart->Instance->CR2, USART_CR2_DATAINV, huart->AdvancedInit.DataInvert);
 80054f6:	687b      	ldr	r3, [r7, #4]
 80054f8:	681b      	ldr	r3, [r3, #0]
 80054fa:	685b      	ldr	r3, [r3, #4]
 80054fc:	4a3b      	ldr	r2, [pc, #236]	; (80055ec <UART_AdvFeatureConfig+0x14c>)
 80054fe:	4013      	ands	r3, r2
 8005500:	0019      	movs	r1, r3
 8005502:	687b      	ldr	r3, [r7, #4]
 8005504:	6b1a      	ldr	r2, [r3, #48]	; 0x30
 8005506:	687b      	ldr	r3, [r7, #4]
 8005508:	681b      	ldr	r3, [r3, #0]
 800550a:	430a      	orrs	r2, r1
 800550c:	605a      	str	r2, [r3, #4]
  }

  /* if required, configure RX/TX pins swap */
  if (HAL_IS_BIT_SET(huart->AdvancedInit.AdvFeatureInit, UART_ADVFEATURE_SWAP_INIT))
 800550e:	687b      	ldr	r3, [r7, #4]
 8005510:	6a5b      	ldr	r3, [r3, #36]	; 0x24
 8005512:	2208      	movs	r2, #8
 8005514:	4013      	ands	r3, r2
 8005516:	d00b      	beq.n	8005530 <UART_AdvFeatureConfig+0x90>
  {
    assert_param(IS_UART_ADVFEATURE_SWAP(huart->AdvancedInit.Swap));
    MODIFY_REG(huart->Instance->CR2, USART_CR2_SWAP, huart->AdvancedInit.Swap);
 8005518:	687b      	ldr	r3, [r7, #4]
 800551a:	681b      	ldr	r3, [r3, #0]
 800551c:	685b      	ldr	r3, [r3, #4]
 800551e:	4a34      	ldr	r2, [pc, #208]	; (80055f0 <UART_AdvFeatureConfig+0x150>)
 8005520:	4013      	ands	r3, r2
 8005522:	0019      	movs	r1, r3
 8005524:	687b      	ldr	r3, [r7, #4]
 8005526:	6b5a      	ldr	r2, [r3, #52]	; 0x34
 8005528:	687b      	ldr	r3, [r7, #4]
 800552a:	681b      	ldr	r3, [r3, #0]
 800552c:	430a      	orrs	r2, r1
 800552e:	605a      	str	r2, [r3, #4]
  }

  /* if required, configure RX overrun detection disabling */
  if (HAL_IS_BIT_SET(huart->AdvancedInit.AdvFeatureInit, UART_ADVFEATURE_RXOVERRUNDISABLE_INIT))
 8005530:	687b      	ldr	r3, [r7, #4]
 8005532:	6a5b      	ldr	r3, [r3, #36]	; 0x24
 8005534:	2210      	movs	r2, #16
 8005536:	4013      	ands	r3, r2
 8005538:	d00b      	beq.n	8005552 <UART_AdvFeatureConfig+0xb2>
  {
    assert_param(IS_UART_OVERRUN(huart->AdvancedInit.OverrunDisable));
    MODIFY_REG(huart->Instance->CR3, USART_CR3_OVRDIS, huart->AdvancedInit.OverrunDisable);
 800553a:	687b      	ldr	r3, [r7, #4]
 800553c:	681b      	ldr	r3, [r3, #0]
 800553e:	689b      	ldr	r3, [r3, #8]
 8005540:	4a2c      	ldr	r2, [pc, #176]	; (80055f4 <UART_AdvFeatureConfig+0x154>)
 8005542:	4013      	ands	r3, r2
 8005544:	0019      	movs	r1, r3
 8005546:	687b      	ldr	r3, [r7, #4]
 8005548:	6b9a      	ldr	r2, [r3, #56]	; 0x38
 800554a:	687b      	ldr	r3, [r7, #4]
 800554c:	681b      	ldr	r3, [r3, #0]
 800554e:	430a      	orrs	r2, r1
 8005550:	609a      	str	r2, [r3, #8]
  }

  /* if required, configure DMA disabling on reception error */
  if (HAL_IS_BIT_SET(huart->AdvancedInit.AdvFeatureInit, UART_ADVFEATURE_DMADISABLEONERROR_INIT))
 8005552:	687b      	ldr	r3, [r7, #4]
 8005554:	6a5b      	ldr	r3, [r3, #36]	; 0x24
 8005556:	2220      	movs	r2, #32
 8005558:	4013      	ands	r3, r2
 800555a:	d00b      	beq.n	8005574 <UART_AdvFeatureConfig+0xd4>
  {
    assert_param(IS_UART_ADVFEATURE_DMAONRXERROR(huart->AdvancedInit.DMADisableonRxError));
    MODIFY_REG(huart->Instance->CR3, USART_CR3_DDRE, huart->AdvancedInit.DMADisableonRxError);
 800555c:	687b      	ldr	r3, [r7, #4]
 800555e:	681b      	ldr	r3, [r3, #0]
 8005560:	689b      	ldr	r3, [r3, #8]
 8005562:	4a25      	ldr	r2, [pc, #148]	; (80055f8 <UART_AdvFeatureConfig+0x158>)
 8005564:	4013      	ands	r3, r2
 8005566:	0019      	movs	r1, r3
 8005568:	687b      	ldr	r3, [r7, #4]
 800556a:	6bda      	ldr	r2, [r3, #60]	; 0x3c
 800556c:	687b      	ldr	r3, [r7, #4]
 800556e:	681b      	ldr	r3, [r3, #0]
 8005570:	430a      	orrs	r2, r1
 8005572:	609a      	str	r2, [r3, #8]
  }

  /* if required, configure auto Baud rate detection scheme */
  if (HAL_IS_BIT_SET(huart->AdvancedInit.AdvFeatureInit, UART_ADVFEATURE_AUTOBAUDRATE_INIT))
 8005574:	687b      	ldr	r3, [r7, #4]
 8005576:	6a5b      	ldr	r3, [r3, #36]	; 0x24
 8005578:	2240      	movs	r2, #64	; 0x40
 800557a:	4013      	ands	r3, r2
 800557c:	d01d      	beq.n	80055ba <UART_AdvFeatureConfig+0x11a>
  {
    assert_param(IS_USART_AUTOBAUDRATE_DETECTION_INSTANCE(huart->Instance));
    assert_param(IS_UART_ADVFEATURE_AUTOBAUDRATE(huart->AdvancedInit.AutoBaudRateEnable));
    MODIFY_REG(huart->Instance->CR2, USART_CR2_ABREN, huart->AdvancedInit.AutoBaudRateEnable);
 800557e:	687b      	ldr	r3, [r7, #4]
 8005580:	681b      	ldr	r3, [r3, #0]
 8005582:	685b      	ldr	r3, [r3, #4]
 8005584:	4a1d      	ldr	r2, [pc, #116]	; (80055fc <UART_AdvFeatureConfig+0x15c>)
 8005586:	4013      	ands	r3, r2
 8005588:	0019      	movs	r1, r3
 800558a:	687b      	ldr	r3, [r7, #4]
 800558c:	6c1a      	ldr	r2, [r3, #64]	; 0x40
 800558e:	687b      	ldr	r3, [r7, #4]
 8005590:	681b      	ldr	r3, [r3, #0]
 8005592:	430a      	orrs	r2, r1
 8005594:	605a      	str	r2, [r3, #4]
    /* set auto Baudrate detection parameters if detection is enabled */
    if (huart->AdvancedInit.AutoBaudRateEnable == UART_ADVFEATURE_AUTOBAUDRATE_ENABLE)
 8005596:	687b      	ldr	r3, [r7, #4]
 8005598:	6c1a      	ldr	r2, [r3, #64]	; 0x40
 800559a:	2380      	movs	r3, #128	; 0x80
 800559c:	035b      	lsls	r3, r3, #13
 800559e:	429a      	cmp	r2, r3
 80055a0:	d10b      	bne.n	80055ba <UART_AdvFeatureConfig+0x11a>
    {
      assert_param(IS_UART_ADVFEATURE_AUTOBAUDRATEMODE(huart->AdvancedInit.AutoBaudRateMode));
      MODIFY_REG(huart->Instance->CR2, USART_CR2_ABRMODE, huart->AdvancedInit.AutoBaudRateMode);
 80055a2:	687b      	ldr	r3, [r7, #4]
 80055a4:	681b      	ldr	r3, [r3, #0]
 80055a6:	685b      	ldr	r3, [r3, #4]
 80055a8:	4a15      	ldr	r2, [pc, #84]	; (8005600 <UART_AdvFeatureConfig+0x160>)
 80055aa:	4013      	ands	r3, r2
 80055ac:	0019      	movs	r1, r3
 80055ae:	687b      	ldr	r3, [r7, #4]
 80055b0:	6c5a      	ldr	r2, [r3, #68]	; 0x44
 80055b2:	687b      	ldr	r3, [r7, #4]
 80055b4:	681b      	ldr	r3, [r3, #0]
 80055b6:	430a      	orrs	r2, r1
 80055b8:	605a      	str	r2, [r3, #4]
    }
  }

  /* if required, configure MSB first on communication line */
  if (HAL_IS_BIT_SET(huart->AdvancedInit.AdvFeatureInit, UART_ADVFEATURE_MSBFIRST_INIT))
 80055ba:	687b      	ldr	r3, [r7, #4]
 80055bc:	6a5b      	ldr	r3, [r3, #36]	; 0x24
 80055be:	2280      	movs	r2, #128	; 0x80
 80055c0:	4013      	ands	r3, r2
 80055c2:	d00b      	beq.n	80055dc <UART_AdvFeatureConfig+0x13c>
  {
    assert_param(IS_UART_ADVFEATURE_MSBFIRST(huart->AdvancedInit.MSBFirst));
    MODIFY_REG(huart->Instance->CR2, USART_CR2_MSBFIRST, huart->AdvancedInit.MSBFirst);
 80055c4:	687b      	ldr	r3, [r7, #4]
 80055c6:	681b      	ldr	r3, [r3, #0]
 80055c8:	685b      	ldr	r3, [r3, #4]
 80055ca:	4a0e      	ldr	r2, [pc, #56]	; (8005604 <UART_AdvFeatureConfig+0x164>)
 80055cc:	4013      	ands	r3, r2
 80055ce:	0019      	movs	r1, r3
 80055d0:	687b      	ldr	r3, [r7, #4]
 80055d2:	6c9a      	ldr	r2, [r3, #72]	; 0x48
 80055d4:	687b      	ldr	r3, [r7, #4]
 80055d6:	681b      	ldr	r3, [r3, #0]
 80055d8:	430a      	orrs	r2, r1
 80055da:	605a      	str	r2, [r3, #4]
  }
}
 80055dc:	46c0      	nop			; (mov r8, r8)
 80055de:	46bd      	mov	sp, r7
 80055e0:	b002      	add	sp, #8
 80055e2:	bd80      	pop	{r7, pc}
 80055e4:	fffdffff 	.word	0xfffdffff
 80055e8:	fffeffff 	.word	0xfffeffff
 80055ec:	fffbffff 	.word	0xfffbffff
 80055f0:	ffff7fff 	.word	0xffff7fff
 80055f4:	ffffefff 	.word	0xffffefff
 80055f8:	ffffdfff 	.word	0xffffdfff
 80055fc:	ffefffff 	.word	0xffefffff
 8005600:	ff9fffff 	.word	0xff9fffff
 8005604:	fff7ffff 	.word	0xfff7ffff

08005608 <UART_CheckIdleState>:
  * @brief Check the UART Idle State.
  * @param huart UART handle.
  * @retval HAL status
  */
HAL_StatusTypeDef UART_CheckIdleState(UART_HandleTypeDef *huart)
{
 8005608:	b580      	push	{r7, lr}
 800560a:	b086      	sub	sp, #24
 800560c:	af02      	add	r7, sp, #8
 800560e:	6078      	str	r0, [r7, #4]
  uint32_t tickstart;

  /* Initialize the UART ErrorCode */
  huart->ErrorCode = HAL_UART_ERROR_NONE;
 8005610:	687b      	ldr	r3, [r7, #4]
 8005612:	2280      	movs	r2, #128	; 0x80
 8005614:	2100      	movs	r1, #0
 8005616:	5099      	str	r1, [r3, r2]

  /* Init tickstart for timeout management */
  tickstart = HAL_GetTick();
 8005618:	f7fc fa1e 	bl	8001a58 <HAL_GetTick>
 800561c:	0003      	movs	r3, r0
 800561e:	60fb      	str	r3, [r7, #12]

  /* Check if the Transmitter is enabled */
  if ((huart->Instance->CR1 & USART_CR1_TE) == USART_CR1_TE)
 8005620:	687b      	ldr	r3, [r7, #4]
 8005622:	681b      	ldr	r3, [r3, #0]
 8005624:	681b      	ldr	r3, [r3, #0]
 8005626:	2208      	movs	r2, #8
 8005628:	4013      	ands	r3, r2
 800562a:	2b08      	cmp	r3, #8
 800562c:	d10c      	bne.n	8005648 <UART_CheckIdleState+0x40>
  {
    /* Wait until TEACK flag is set */
    if (UART_WaitOnFlagUntilTimeout(huart, USART_ISR_TEACK, RESET, tickstart, HAL_UART_TIMEOUT_VALUE) != HAL_OK)
 800562e:	68fb      	ldr	r3, [r7, #12]
 8005630:	2280      	movs	r2, #128	; 0x80
 8005632:	0391      	lsls	r1, r2, #14
 8005634:	6878      	ldr	r0, [r7, #4]
 8005636:	4a17      	ldr	r2, [pc, #92]	; (8005694 <UART_CheckIdleState+0x8c>)
 8005638:	9200      	str	r2, [sp, #0]
 800563a:	2200      	movs	r2, #0
 800563c:	f000 f82c 	bl	8005698 <UART_WaitOnFlagUntilTimeout>
 8005640:	1e03      	subs	r3, r0, #0
 8005642:	d001      	beq.n	8005648 <UART_CheckIdleState+0x40>
    {
      /* Timeout occurred */
      return HAL_TIMEOUT;
 8005644:	2303      	movs	r3, #3
 8005646:	e021      	b.n	800568c <UART_CheckIdleState+0x84>
    }
  }

  /* Check if the Receiver is enabled */
  if ((huart->Instance->CR1 & USART_CR1_RE) == USART_CR1_RE)
 8005648:	687b      	ldr	r3, [r7, #4]
 800564a:	681b      	ldr	r3, [r3, #0]
 800564c:	681b      	ldr	r3, [r3, #0]
 800564e:	2204      	movs	r2, #4
 8005650:	4013      	ands	r3, r2
 8005652:	2b04      	cmp	r3, #4
 8005654:	d10c      	bne.n	8005670 <UART_CheckIdleState+0x68>
  {
    /* Wait until REACK flag is set */
    if (UART_WaitOnFlagUntilTimeout(huart, USART_ISR_REACK, RESET, tickstart, HAL_UART_TIMEOUT_VALUE) != HAL_OK)
 8005656:	68fb      	ldr	r3, [r7, #12]
 8005658:	2280      	movs	r2, #128	; 0x80
 800565a:	03d1      	lsls	r1, r2, #15
 800565c:	6878      	ldr	r0, [r7, #4]
 800565e:	4a0d      	ldr	r2, [pc, #52]	; (8005694 <UART_CheckIdleState+0x8c>)
 8005660:	9200      	str	r2, [sp, #0]
 8005662:	2200      	movs	r2, #0
 8005664:	f000 f818 	bl	8005698 <UART_WaitOnFlagUntilTimeout>
 8005668:	1e03      	subs	r3, r0, #0
 800566a:	d001      	beq.n	8005670 <UART_CheckIdleState+0x68>
    {
      /* Timeout occurred */
      return HAL_TIMEOUT;
 800566c:	2303      	movs	r3, #3
 800566e:	e00d      	b.n	800568c <UART_CheckIdleState+0x84>
    }
  }

  /* Initialize the UART State */
  huart->gState = HAL_UART_STATE_READY;
 8005670:	687b      	ldr	r3, [r7, #4]
 8005672:	2220      	movs	r2, #32
 8005674:	679a      	str	r2, [r3, #120]	; 0x78
  huart->RxState = HAL_UART_STATE_READY;
 8005676:	687b      	ldr	r3, [r7, #4]
 8005678:	2220      	movs	r2, #32
 800567a:	67da      	str	r2, [r3, #124]	; 0x7c
  huart->ReceptionType = HAL_UART_RECEPTION_STANDARD;
 800567c:	687b      	ldr	r3, [r7, #4]
 800567e:	2200      	movs	r2, #0
 8005680:	661a      	str	r2, [r3, #96]	; 0x60

  __HAL_UNLOCK(huart);
 8005682:	687b      	ldr	r3, [r7, #4]
 8005684:	2274      	movs	r2, #116	; 0x74
 8005686:	2100      	movs	r1, #0
 8005688:	5499      	strb	r1, [r3, r2]

  return HAL_OK;
 800568a:	2300      	movs	r3, #0
}
 800568c:	0018      	movs	r0, r3
 800568e:	46bd      	mov	sp, r7
 8005690:	b004      	add	sp, #16
 8005692:	bd80      	pop	{r7, pc}
 8005694:	01ffffff 	.word	0x01ffffff

08005698 <UART_WaitOnFlagUntilTimeout>:
  * @param Timeout   Timeout duration
  * @retval HAL status
  */
HAL_StatusTypeDef UART_WaitOnFlagUntilTimeout(UART_HandleTypeDef *huart, uint32_t Flag, FlagStatus Status,
                                              uint32_t Tickstart, uint32_t Timeout)
{
 8005698:	b580      	push	{r7, lr}
 800569a:	b094      	sub	sp, #80	; 0x50
 800569c:	af00      	add	r7, sp, #0
 800569e:	60f8      	str	r0, [r7, #12]
 80056a0:	60b9      	str	r1, [r7, #8]
 80056a2:	603b      	str	r3, [r7, #0]
 80056a4:	1dfb      	adds	r3, r7, #7
 80056a6:	701a      	strb	r2, [r3, #0]
  /* Wait until flag is set */
  while ((__HAL_UART_GET_FLAG(huart, Flag) ? SET : RESET) == Status)
 80056a8:	e0a3      	b.n	80057f2 <UART_WaitOnFlagUntilTimeout+0x15a>
  {
    /* Check for the Timeout */
    if (Timeout != HAL_MAX_DELAY)
 80056aa:	6dbb      	ldr	r3, [r7, #88]	; 0x58
 80056ac:	3301      	adds	r3, #1
 80056ae:	d100      	bne.n	80056b2 <UART_WaitOnFlagUntilTimeout+0x1a>
 80056b0:	e09f      	b.n	80057f2 <UART_WaitOnFlagUntilTimeout+0x15a>
    {
      if (((HAL_GetTick() - Tickstart) > Timeout) || (Timeout == 0U))
 80056b2:	f7fc f9d1 	bl	8001a58 <HAL_GetTick>
 80056b6:	0002      	movs	r2, r0
 80056b8:	683b      	ldr	r3, [r7, #0]
 80056ba:	1ad3      	subs	r3, r2, r3
 80056bc:	6dba      	ldr	r2, [r7, #88]	; 0x58
 80056be:	429a      	cmp	r2, r3
 80056c0:	d302      	bcc.n	80056c8 <UART_WaitOnFlagUntilTimeout+0x30>
 80056c2:	6dbb      	ldr	r3, [r7, #88]	; 0x58
 80056c4:	2b00      	cmp	r3, #0
 80056c6:	d13d      	bne.n	8005744 <UART_WaitOnFlagUntilTimeout+0xac>
  __ASM volatile ("MRS %0, primask" : "=r" (result) :: "memory");
 80056c8:	f3ef 8310 	mrs	r3, PRIMASK
 80056cc:	62bb      	str	r3, [r7, #40]	; 0x28
  return(result);
 80056ce:	6abb      	ldr	r3, [r7, #40]	; 0x28
      {
        /* Disable TXE, RXNE, PE and ERR (Frame error, noise error, overrun error)
           interrupts for the interrupt process */
        ATOMIC_CLEAR_BIT(huart->Instance->CR1, (USART_CR1_RXNEIE | USART_CR1_PEIE | USART_CR1_TXEIE));
 80056d0:	647b      	str	r3, [r7, #68]	; 0x44
 80056d2:	2301      	movs	r3, #1
 80056d4:	62fb      	str	r3, [r7, #44]	; 0x2c
  __ASM volatile ("MSR primask, %0" : : "r" (priMask) : "memory");
 80056d6:	6afb      	ldr	r3, [r7, #44]	; 0x2c
 80056d8:	f383 8810 	msr	PRIMASK, r3
}
 80056dc:	46c0      	nop			; (mov r8, r8)
 80056de:	68fb      	ldr	r3, [r7, #12]
 80056e0:	681b      	ldr	r3, [r3, #0]
 80056e2:	681a      	ldr	r2, [r3, #0]
 80056e4:	68fb      	ldr	r3, [r7, #12]
 80056e6:	681b      	ldr	r3, [r3, #0]
 80056e8:	494c      	ldr	r1, [pc, #304]	; (800581c <UART_WaitOnFlagUntilTimeout+0x184>)
 80056ea:	400a      	ands	r2, r1
 80056ec:	601a      	str	r2, [r3, #0]
 80056ee:	6c7b      	ldr	r3, [r7, #68]	; 0x44
 80056f0:	633b      	str	r3, [r7, #48]	; 0x30
  __ASM volatile ("MSR primask, %0" : : "r" (priMask) : "memory");
 80056f2:	6b3b      	ldr	r3, [r7, #48]	; 0x30
 80056f4:	f383 8810 	msr	PRIMASK, r3
}
 80056f8:	46c0      	nop			; (mov r8, r8)
  __ASM volatile ("MRS %0, primask" : "=r" (result) :: "memory");
 80056fa:	f3ef 8310 	mrs	r3, PRIMASK
 80056fe:	637b      	str	r3, [r7, #52]	; 0x34
  return(result);
 8005700:	6b7b      	ldr	r3, [r7, #52]	; 0x34
        ATOMIC_CLEAR_BIT(huart->Instance->CR3, USART_CR3_EIE);
 8005702:	643b      	str	r3, [r7, #64]	; 0x40
 8005704:	2301      	movs	r3, #1
 8005706:	63bb      	str	r3, [r7, #56]	; 0x38
  __ASM volatile ("MSR primask, %0" : : "r" (priMask) : "memory");
 8005708:	6bbb      	ldr	r3, [r7, #56]	; 0x38
 800570a:	f383 8810 	msr	PRIMASK, r3
}
 800570e:	46c0      	nop			; (mov r8, r8)
 8005710:	68fb      	ldr	r3, [r7, #12]
 8005712:	681b      	ldr	r3, [r3, #0]
 8005714:	689a      	ldr	r2, [r3, #8]
 8005716:	68fb      	ldr	r3, [r7, #12]
 8005718:	681b      	ldr	r3, [r3, #0]
 800571a:	2101      	movs	r1, #1
 800571c:	438a      	bics	r2, r1
 800571e:	609a      	str	r2, [r3, #8]
 8005720:	6c3b      	ldr	r3, [r7, #64]	; 0x40
 8005722:	63fb      	str	r3, [r7, #60]	; 0x3c
  __ASM volatile ("MSR primask, %0" : : "r" (priMask) : "memory");
 8005724:	6bfb      	ldr	r3, [r7, #60]	; 0x3c
 8005726:	f383 8810 	msr	PRIMASK, r3
}
 800572a:	46c0      	nop			; (mov r8, r8)

        huart->gState = HAL_UART_STATE_READY;
 800572c:	68fb      	ldr	r3, [r7, #12]
 800572e:	2220      	movs	r2, #32
 8005730:	679a      	str	r2, [r3, #120]	; 0x78
        huart->RxState = HAL_UART_STATE_READY;
 8005732:	68fb      	ldr	r3, [r7, #12]
 8005734:	2220      	movs	r2, #32
 8005736:	67da      	str	r2, [r3, #124]	; 0x7c

        __HAL_UNLOCK(huart);
 8005738:	68fb      	ldr	r3, [r7, #12]
 800573a:	2274      	movs	r2, #116	; 0x74
 800573c:	2100      	movs	r1, #0
 800573e:	5499      	strb	r1, [r3, r2]

        return HAL_TIMEOUT;
 8005740:	2303      	movs	r3, #3
 8005742:	e067      	b.n	8005814 <UART_WaitOnFlagUntilTimeout+0x17c>
      }

      if (READ_BIT(huart->Instance->CR1, USART_CR1_RE) != 0U)
 8005744:	68fb      	ldr	r3, [r7, #12]
 8005746:	681b      	ldr	r3, [r3, #0]
 8005748:	681b      	ldr	r3, [r3, #0]
 800574a:	2204      	movs	r2, #4
 800574c:	4013      	ands	r3, r2
 800574e:	d050      	beq.n	80057f2 <UART_WaitOnFlagUntilTimeout+0x15a>
      {
        if (__HAL_UART_GET_FLAG(huart, UART_FLAG_RTOF) == SET)
 8005750:	68fb      	ldr	r3, [r7, #12]
 8005752:	681b      	ldr	r3, [r3, #0]
 8005754:	69da      	ldr	r2, [r3, #28]
 8005756:	2380      	movs	r3, #128	; 0x80
 8005758:	011b      	lsls	r3, r3, #4
 800575a:	401a      	ands	r2, r3
 800575c:	2380      	movs	r3, #128	; 0x80
 800575e:	011b      	lsls	r3, r3, #4
 8005760:	429a      	cmp	r2, r3
 8005762:	d146      	bne.n	80057f2 <UART_WaitOnFlagUntilTimeout+0x15a>
        {
          /* Clear Receiver Timeout flag*/
          __HAL_UART_CLEAR_FLAG(huart, UART_CLEAR_RTOF);
 8005764:	68fb      	ldr	r3, [r7, #12]
 8005766:	681b      	ldr	r3, [r3, #0]
 8005768:	2280      	movs	r2, #128	; 0x80
 800576a:	0112      	lsls	r2, r2, #4
 800576c:	621a      	str	r2, [r3, #32]
  __ASM volatile ("MRS %0, primask" : "=r" (result) :: "memory");
 800576e:	f3ef 8310 	mrs	r3, PRIMASK
 8005772:	613b      	str	r3, [r7, #16]
  return(result);
 8005774:	693b      	ldr	r3, [r7, #16]

          /* Disable TXE, RXNE, PE and ERR (Frame error, noise error, overrun error)
             interrupts for the interrupt process */
          ATOMIC_CLEAR_BIT(huart->Instance->CR1, (USART_CR1_RXNEIE | USART_CR1_PEIE | USART_CR1_TXEIE));
 8005776:	64fb      	str	r3, [r7, #76]	; 0x4c
 8005778:	2301      	movs	r3, #1
 800577a:	617b      	str	r3, [r7, #20]
  __ASM volatile ("MSR primask, %0" : : "r" (priMask) : "memory");
 800577c:	697b      	ldr	r3, [r7, #20]
 800577e:	f383 8810 	msr	PRIMASK, r3
}
 8005782:	46c0      	nop			; (mov r8, r8)
 8005784:	68fb      	ldr	r3, [r7, #12]
 8005786:	681b      	ldr	r3, [r3, #0]
 8005788:	681a      	ldr	r2, [r3, #0]
 800578a:	68fb      	ldr	r3, [r7, #12]
 800578c:	681b      	ldr	r3, [r3, #0]
 800578e:	4923      	ldr	r1, [pc, #140]	; (800581c <UART_WaitOnFlagUntilTimeout+0x184>)
 8005790:	400a      	ands	r2, r1
 8005792:	601a      	str	r2, [r3, #0]
 8005794:	6cfb      	ldr	r3, [r7, #76]	; 0x4c
 8005796:	61bb      	str	r3, [r7, #24]
  __ASM volatile ("MSR primask, %0" : : "r" (priMask) : "memory");
 8005798:	69bb      	ldr	r3, [r7, #24]
 800579a:	f383 8810 	msr	PRIMASK, r3
}
 800579e:	46c0      	nop			; (mov r8, r8)
  __ASM volatile ("MRS %0, primask" : "=r" (result) :: "memory");
 80057a0:	f3ef 8310 	mrs	r3, PRIMASK
 80057a4:	61fb      	str	r3, [r7, #28]
  return(result);
 80057a6:	69fb      	ldr	r3, [r7, #28]
          ATOMIC_CLEAR_BIT(huart->Instance->CR3, USART_CR3_EIE);
 80057a8:	64bb      	str	r3, [r7, #72]	; 0x48
 80057aa:	2301      	movs	r3, #1
 80057ac:	623b      	str	r3, [r7, #32]
  __ASM volatile ("MSR primask, %0" : : "r" (priMask) : "memory");
 80057ae:	6a3b      	ldr	r3, [r7, #32]
 80057b0:	f383 8810 	msr	PRIMASK, r3
}
 80057b4:	46c0      	nop			; (mov r8, r8)
 80057b6:	68fb      	ldr	r3, [r7, #12]
 80057b8:	681b      	ldr	r3, [r3, #0]
 80057ba:	689a      	ldr	r2, [r3, #8]
 80057bc:	68fb      	ldr	r3, [r7, #12]
 80057be:	681b      	ldr	r3, [r3, #0]
 80057c0:	2101      	movs	r1, #1
 80057c2:	438a      	bics	r2, r1
 80057c4:	609a      	str	r2, [r3, #8]
 80057c6:	6cbb      	ldr	r3, [r7, #72]	; 0x48
 80057c8:	627b      	str	r3, [r7, #36]	; 0x24
  __ASM volatile ("MSR primask, %0" : : "r" (priMask) : "memory");
 80057ca:	6a7b      	ldr	r3, [r7, #36]	; 0x24
 80057cc:	f383 8810 	msr	PRIMASK, r3
}
 80057d0:	46c0      	nop			; (mov r8, r8)

          huart->gState = HAL_UART_STATE_READY;
 80057d2:	68fb      	ldr	r3, [r7, #12]
 80057d4:	2220      	movs	r2, #32
 80057d6:	679a      	str	r2, [r3, #120]	; 0x78
          huart->RxState = HAL_UART_STATE_READY;
 80057d8:	68fb      	ldr	r3, [r7, #12]
 80057da:	2220      	movs	r2, #32
 80057dc:	67da      	str	r2, [r3, #124]	; 0x7c
          huart->ErrorCode = HAL_UART_ERROR_RTO;
 80057de:	68fb      	ldr	r3, [r7, #12]
 80057e0:	2280      	movs	r2, #128	; 0x80
 80057e2:	2120      	movs	r1, #32
 80057e4:	5099      	str	r1, [r3, r2]

          /* Process Unlocked */
          __HAL_UNLOCK(huart);
 80057e6:	68fb      	ldr	r3, [r7, #12]
 80057e8:	2274      	movs	r2, #116	; 0x74
 80057ea:	2100      	movs	r1, #0
 80057ec:	5499      	strb	r1, [r3, r2]

          return HAL_TIMEOUT;
 80057ee:	2303      	movs	r3, #3
 80057f0:	e010      	b.n	8005814 <UART_WaitOnFlagUntilTimeout+0x17c>
  while ((__HAL_UART_GET_FLAG(huart, Flag) ? SET : RESET) == Status)
 80057f2:	68fb      	ldr	r3, [r7, #12]
 80057f4:	681b      	ldr	r3, [r3, #0]
 80057f6:	69db      	ldr	r3, [r3, #28]
 80057f8:	68ba      	ldr	r2, [r7, #8]
 80057fa:	4013      	ands	r3, r2
 80057fc:	68ba      	ldr	r2, [r7, #8]
 80057fe:	1ad3      	subs	r3, r2, r3
 8005800:	425a      	negs	r2, r3
 8005802:	4153      	adcs	r3, r2
 8005804:	b2db      	uxtb	r3, r3
 8005806:	001a      	movs	r2, r3
 8005808:	1dfb      	adds	r3, r7, #7
 800580a:	781b      	ldrb	r3, [r3, #0]
 800580c:	429a      	cmp	r2, r3
 800580e:	d100      	bne.n	8005812 <UART_WaitOnFlagUntilTimeout+0x17a>
 8005810:	e74b      	b.n	80056aa <UART_WaitOnFlagUntilTimeout+0x12>
        }
      }
    }
  }
  return HAL_OK;
 8005812:	2300      	movs	r3, #0
}
 8005814:	0018      	movs	r0, r3
 8005816:	46bd      	mov	sp, r7
 8005818:	b014      	add	sp, #80	; 0x50
 800581a:	bd80      	pop	{r7, pc}
 800581c:	fffffe5f 	.word	0xfffffe5f

08005820 <UART_EndRxTransfer>:
  * @brief  End ongoing Rx transfer on UART peripheral (following error detection or Reception completion).
  * @param  huart UART handle.
  * @retval None
  */
static void UART_EndRxTransfer(UART_HandleTypeDef *huart)
{
 8005820:	b580      	push	{r7, lr}
 8005822:	b08e      	sub	sp, #56	; 0x38
 8005824:	af00      	add	r7, sp, #0
 8005826:	6078      	str	r0, [r7, #4]
  __ASM volatile ("MRS %0, primask" : "=r" (result) :: "memory");
 8005828:	f3ef 8310 	mrs	r3, PRIMASK
 800582c:	617b      	str	r3, [r7, #20]
  return(result);
 800582e:	697b      	ldr	r3, [r7, #20]
  /* Disable RXNE, PE and ERR (Frame error, noise error, overrun error) interrupts */
  ATOMIC_CLEAR_BIT(huart->Instance->CR1, (USART_CR1_RXNEIE | USART_CR1_PEIE));
 8005830:	637b      	str	r3, [r7, #52]	; 0x34
 8005832:	2301      	movs	r3, #1
 8005834:	61bb      	str	r3, [r7, #24]
  __ASM volatile ("MSR primask, %0" : : "r" (priMask) : "memory");
 8005836:	69bb      	ldr	r3, [r7, #24]
 8005838:	f383 8810 	msr	PRIMASK, r3
}
 800583c:	46c0      	nop			; (mov r8, r8)
 800583e:	687b      	ldr	r3, [r7, #4]
 8005840:	681b      	ldr	r3, [r3, #0]
 8005842:	681a      	ldr	r2, [r3, #0]
 8005844:	687b      	ldr	r3, [r7, #4]
 8005846:	681b      	ldr	r3, [r3, #0]
 8005848:	4925      	ldr	r1, [pc, #148]	; (80058e0 <UART_EndRxTransfer+0xc0>)
 800584a:	400a      	ands	r2, r1
 800584c:	601a      	str	r2, [r3, #0]
 800584e:	6b7b      	ldr	r3, [r7, #52]	; 0x34
 8005850:	61fb      	str	r3, [r7, #28]
  __ASM volatile ("MSR primask, %0" : : "r" (priMask) : "memory");
 8005852:	69fb      	ldr	r3, [r7, #28]
 8005854:	f383 8810 	msr	PRIMASK, r3
}
 8005858:	46c0      	nop			; (mov r8, r8)
  __ASM volatile ("MRS %0, primask" : "=r" (result) :: "memory");
 800585a:	f3ef 8310 	mrs	r3, PRIMASK
 800585e:	623b      	str	r3, [r7, #32]
  return(result);
 8005860:	6a3b      	ldr	r3, [r7, #32]
  ATOMIC_CLEAR_BIT(huart->Instance->CR3, USART_CR3_EIE);
 8005862:	633b      	str	r3, [r7, #48]	; 0x30
 8005864:	2301      	movs	r3, #1
 8005866:	627b      	str	r3, [r7, #36]	; 0x24
  __ASM volatile ("MSR primask, %0" : : "r" (priMask) : "memory");
 8005868:	6a7b      	ldr	r3, [r7, #36]	; 0x24
 800586a:	f383 8810 	msr	PRIMASK, r3
}
 800586e:	46c0      	nop			; (mov r8, r8)
 8005870:	687b      	ldr	r3, [r7, #4]
 8005872:	681b      	ldr	r3, [r3, #0]
 8005874:	689a      	ldr	r2, [r3, #8]
 8005876:	687b      	ldr	r3, [r7, #4]
 8005878:	681b      	ldr	r3, [r3, #0]
 800587a:	2101      	movs	r1, #1
 800587c:	438a      	bics	r2, r1
 800587e:	609a      	str	r2, [r3, #8]
 8005880:	6b3b      	ldr	r3, [r7, #48]	; 0x30
 8005882:	62bb      	str	r3, [r7, #40]	; 0x28
  __ASM volatile ("MSR primask, %0" : : "r" (priMask) : "memory");
 8005884:	6abb      	ldr	r3, [r7, #40]	; 0x28
 8005886:	f383 8810 	msr	PRIMASK, r3
}
 800588a:	46c0      	nop			; (mov r8, r8)

  /* In case of reception waiting for IDLE event, disable also the IDLE IE interrupt source */
  if (huart->ReceptionType == HAL_UART_RECEPTION_TOIDLE)
 800588c:	687b      	ldr	r3, [r7, #4]
 800588e:	6e1b      	ldr	r3, [r3, #96]	; 0x60
 8005890:	2b01      	cmp	r3, #1
 8005892:	d118      	bne.n	80058c6 <UART_EndRxTransfer+0xa6>
  __ASM volatile ("MRS %0, primask" : "=r" (result) :: "memory");
 8005894:	f3ef 8310 	mrs	r3, PRIMASK
 8005898:	60bb      	str	r3, [r7, #8]
  return(result);
 800589a:	68bb      	ldr	r3, [r7, #8]
  {
    ATOMIC_CLEAR_BIT(huart->Instance->CR1, USART_CR1_IDLEIE);
 800589c:	62fb      	str	r3, [r7, #44]	; 0x2c
 800589e:	2301      	movs	r3, #1
 80058a0:	60fb      	str	r3, [r7, #12]
  __ASM volatile ("MSR primask, %0" : : "r" (priMask) : "memory");
 80058a2:	68fb      	ldr	r3, [r7, #12]
 80058a4:	f383 8810 	msr	PRIMASK, r3
}
 80058a8:	46c0      	nop			; (mov r8, r8)
 80058aa:	687b      	ldr	r3, [r7, #4]
 80058ac:	681b      	ldr	r3, [r3, #0]
 80058ae:	681a      	ldr	r2, [r3, #0]
 80058b0:	687b      	ldr	r3, [r7, #4]
 80058b2:	681b      	ldr	r3, [r3, #0]
 80058b4:	2110      	movs	r1, #16
 80058b6:	438a      	bics	r2, r1
 80058b8:	601a      	str	r2, [r3, #0]
 80058ba:	6afb      	ldr	r3, [r7, #44]	; 0x2c
 80058bc:	613b      	str	r3, [r7, #16]
  __ASM volatile ("MSR primask, %0" : : "r" (priMask) : "memory");
 80058be:	693b      	ldr	r3, [r7, #16]
 80058c0:	f383 8810 	msr	PRIMASK, r3
}
 80058c4:	46c0      	nop			; (mov r8, r8)
  }

  /* At end of Rx process, restore huart->RxState to Ready */
  huart->RxState = HAL_UART_STATE_READY;
 80058c6:	687b      	ldr	r3, [r7, #4]
 80058c8:	2220      	movs	r2, #32
 80058ca:	67da      	str	r2, [r3, #124]	; 0x7c
  huart->ReceptionType = HAL_UART_RECEPTION_STANDARD;
 80058cc:	687b      	ldr	r3, [r7, #4]
 80058ce:	2200      	movs	r2, #0
 80058d0:	661a      	str	r2, [r3, #96]	; 0x60

  /* Reset RxIsr function pointer */
  huart->RxISR = NULL;
 80058d2:	687b      	ldr	r3, [r7, #4]
 80058d4:	2200      	movs	r2, #0
 80058d6:	665a      	str	r2, [r3, #100]	; 0x64
}
 80058d8:	46c0      	nop			; (mov r8, r8)
 80058da:	46bd      	mov	sp, r7
 80058dc:	b00e      	add	sp, #56	; 0x38
 80058de:	bd80      	pop	{r7, pc}
 80058e0:	fffffedf 	.word	0xfffffedf

080058e4 <UART_DMAAbortOnError>:
  *         (To be called at end of DMA Abort procedure following error occurrence).
  * @param  hdma DMA handle.
  * @retval None
  */
static void UART_DMAAbortOnError(DMA_HandleTypeDef *hdma)
{
 80058e4:	b580      	push	{r7, lr}
 80058e6:	b084      	sub	sp, #16
 80058e8:	af00      	add	r7, sp, #0
 80058ea:	6078      	str	r0, [r7, #4]
  UART_HandleTypeDef *huart = (UART_HandleTypeDef *)(hdma->Parent);
 80058ec:	687b      	ldr	r3, [r7, #4]
 80058ee:	6a9b      	ldr	r3, [r3, #40]	; 0x28
 80058f0:	60fb      	str	r3, [r7, #12]
  huart->RxXferCount = 0U;
 80058f2:	68fb      	ldr	r3, [r7, #12]
 80058f4:	225a      	movs	r2, #90	; 0x5a
 80058f6:	2100      	movs	r1, #0
 80058f8:	5299      	strh	r1, [r3, r2]
  huart->TxXferCount = 0U;
 80058fa:	68fb      	ldr	r3, [r7, #12]
 80058fc:	2252      	movs	r2, #82	; 0x52
 80058fe:	2100      	movs	r1, #0
 8005900:	5299      	strh	r1, [r3, r2]
#if (USE_HAL_UART_REGISTER_CALLBACKS == 1)
  /*Call registered error callback*/
  huart->ErrorCallback(huart);
#else
  /*Call legacy weak error callback*/
  HAL_UART_ErrorCallback(huart);
 8005902:	68fb      	ldr	r3, [r7, #12]
 8005904:	0018      	movs	r0, r3
 8005906:	f7ff faf9 	bl	8004efc <HAL_UART_ErrorCallback>
#endif /* USE_HAL_UART_REGISTER_CALLBACKS */
}
 800590a:	46c0      	nop			; (mov r8, r8)
 800590c:	46bd      	mov	sp, r7
 800590e:	b004      	add	sp, #16
 8005910:	bd80      	pop	{r7, pc}

08005912 <UART_EndTransmit_IT>:
  * @param  huart pointer to a UART_HandleTypeDef structure that contains
  *                the configuration information for the specified UART module.
  * @retval None
  */
static void UART_EndTransmit_IT(UART_HandleTypeDef *huart)
{
 8005912:	b580      	push	{r7, lr}
 8005914:	b086      	sub	sp, #24
 8005916:	af00      	add	r7, sp, #0
 8005918:	6078      	str	r0, [r7, #4]
  __ASM volatile ("MRS %0, primask" : "=r" (result) :: "memory");
 800591a:	f3ef 8310 	mrs	r3, PRIMASK
 800591e:	60bb      	str	r3, [r7, #8]
  return(result);
 8005920:	68bb      	ldr	r3, [r7, #8]
  /* Disable the UART Transmit Complete Interrupt */
  ATOMIC_CLEAR_BIT(huart->Instance->CR1, USART_CR1_TCIE);
 8005922:	617b      	str	r3, [r7, #20]
 8005924:	2301      	movs	r3, #1
 8005926:	60fb      	str	r3, [r7, #12]
  __ASM volatile ("MSR primask, %0" : : "r" (priMask) : "memory");
 8005928:	68fb      	ldr	r3, [r7, #12]
 800592a:	f383 8810 	msr	PRIMASK, r3
}
 800592e:	46c0      	nop			; (mov r8, r8)
 8005930:	687b      	ldr	r3, [r7, #4]
 8005932:	681b      	ldr	r3, [r3, #0]
 8005934:	681a      	ldr	r2, [r3, #0]
 8005936:	687b      	ldr	r3, [r7, #4]
 8005938:	681b      	ldr	r3, [r3, #0]
 800593a:	2140      	movs	r1, #64	; 0x40
 800593c:	438a      	bics	r2, r1
 800593e:	601a      	str	r2, [r3, #0]
 8005940:	697b      	ldr	r3, [r7, #20]
 8005942:	613b      	str	r3, [r7, #16]
  __ASM volatile ("MSR primask, %0" : : "r" (priMask) : "memory");
 8005944:	693b      	ldr	r3, [r7, #16]
 8005946:	f383 8810 	msr	PRIMASK, r3
}
 800594a:	46c0      	nop			; (mov r8, r8)

  /* Tx process is ended, restore huart->gState to Ready */
  huart->gState = HAL_UART_STATE_READY;
 800594c:	687b      	ldr	r3, [r7, #4]
 800594e:	2220      	movs	r2, #32
 8005950:	679a      	str	r2, [r3, #120]	; 0x78

  /* Cleat TxISR function pointer */
  huart->TxISR = NULL;
 8005952:	687b      	ldr	r3, [r7, #4]
 8005954:	2200      	movs	r2, #0
 8005956:	669a      	str	r2, [r3, #104]	; 0x68
#if (USE_HAL_UART_REGISTER_CALLBACKS == 1)
  /*Call registered Tx complete callback*/
  huart->TxCpltCallback(huart);
#else
  /*Call legacy weak Tx complete callback*/
  HAL_UART_TxCpltCallback(huart);
 8005958:	687b      	ldr	r3, [r7, #4]
 800595a:	0018      	movs	r0, r3
 800595c:	f7ff fac6 	bl	8004eec <HAL_UART_TxCpltCallback>
#endif /* USE_HAL_UART_REGISTER_CALLBACKS */
}
 8005960:	46c0      	nop			; (mov r8, r8)
 8005962:	46bd      	mov	sp, r7
 8005964:	b006      	add	sp, #24
 8005966:	bd80      	pop	{r7, pc}

08005968 <HAL_UARTEx_WakeupCallback>:
  * @brief UART wakeup from Stop mode callback.
  * @param huart UART handle.
  * @retval None
  */
__weak void HAL_UARTEx_WakeupCallback(UART_HandleTypeDef *huart)
{
 8005968:	b580      	push	{r7, lr}
 800596a:	b082      	sub	sp, #8
 800596c:	af00      	add	r7, sp, #0
 800596e:	6078      	str	r0, [r7, #4]
  UNUSED(huart);

  /* NOTE : This function should not be modified, when the callback is needed,
            the HAL_UARTEx_WakeupCallback can be implemented in the user file.
   */
}
 8005970:	46c0      	nop			; (mov r8, r8)
 8005972:	46bd      	mov	sp, r7
 8005974:	b002      	add	sp, #8
 8005976:	bd80      	pop	{r7, pc}

08005978 <atoi>:
 8005978:	b510      	push	{r4, lr}
 800597a:	220a      	movs	r2, #10
 800597c:	2100      	movs	r1, #0
 800597e:	f000 f90f 	bl	8005ba0 <strtol>
 8005982:	bd10      	pop	{r4, pc}

08005984 <__errno>:
 8005984:	4b01      	ldr	r3, [pc, #4]	; (800598c <__errno+0x8>)
 8005986:	6818      	ldr	r0, [r3, #0]
 8005988:	4770      	bx	lr
 800598a:	46c0      	nop			; (mov r8, r8)
 800598c:	2000002c 	.word	0x2000002c

08005990 <__libc_init_array>:
 8005990:	b570      	push	{r4, r5, r6, lr}
 8005992:	2600      	movs	r6, #0
 8005994:	4d0c      	ldr	r5, [pc, #48]	; (80059c8 <__libc_init_array+0x38>)
 8005996:	4c0d      	ldr	r4, [pc, #52]	; (80059cc <__libc_init_array+0x3c>)
 8005998:	1b64      	subs	r4, r4, r5
 800599a:	10a4      	asrs	r4, r4, #2
 800599c:	42a6      	cmp	r6, r4
 800599e:	d109      	bne.n	80059b4 <__libc_init_array+0x24>
 80059a0:	2600      	movs	r6, #0
 80059a2:	f000 fd13 	bl	80063cc <_init>
 80059a6:	4d0a      	ldr	r5, [pc, #40]	; (80059d0 <__libc_init_array+0x40>)
 80059a8:	4c0a      	ldr	r4, [pc, #40]	; (80059d4 <__libc_init_array+0x44>)
 80059aa:	1b64      	subs	r4, r4, r5
 80059ac:	10a4      	asrs	r4, r4, #2
 80059ae:	42a6      	cmp	r6, r4
 80059b0:	d105      	bne.n	80059be <__libc_init_array+0x2e>
 80059b2:	bd70      	pop	{r4, r5, r6, pc}
 80059b4:	00b3      	lsls	r3, r6, #2
 80059b6:	58eb      	ldr	r3, [r5, r3]
 80059b8:	4798      	blx	r3
 80059ba:	3601      	adds	r6, #1
 80059bc:	e7ee      	b.n	800599c <__libc_init_array+0xc>
 80059be:	00b3      	lsls	r3, r6, #2
 80059c0:	58eb      	ldr	r3, [r5, r3]
 80059c2:	4798      	blx	r3
 80059c4:	3601      	adds	r6, #1
 80059c6:	e7f2      	b.n	80059ae <__libc_init_array+0x1e>
 80059c8:	08006764 	.word	0x08006764
 80059cc:	08006764 	.word	0x08006764
 80059d0:	08006764 	.word	0x08006764
 80059d4:	08006768 	.word	0x08006768

080059d8 <memcpy>:
 80059d8:	2300      	movs	r3, #0
 80059da:	b510      	push	{r4, lr}
 80059dc:	429a      	cmp	r2, r3
 80059de:	d100      	bne.n	80059e2 <memcpy+0xa>
 80059e0:	bd10      	pop	{r4, pc}
 80059e2:	5ccc      	ldrb	r4, [r1, r3]
 80059e4:	54c4      	strb	r4, [r0, r3]
 80059e6:	3301      	adds	r3, #1
 80059e8:	e7f8      	b.n	80059dc <memcpy+0x4>

080059ea <memset>:
 80059ea:	0003      	movs	r3, r0
 80059ec:	1882      	adds	r2, r0, r2
 80059ee:	4293      	cmp	r3, r2
 80059f0:	d100      	bne.n	80059f4 <memset+0xa>
 80059f2:	4770      	bx	lr
 80059f4:	7019      	strb	r1, [r3, #0]
 80059f6:	3301      	adds	r3, #1
 80059f8:	e7f9      	b.n	80059ee <memset+0x4>
	...

080059fc <siprintf>:
 80059fc:	b40e      	push	{r1, r2, r3}
 80059fe:	b500      	push	{lr}
 8005a00:	490b      	ldr	r1, [pc, #44]	; (8005a30 <siprintf+0x34>)
 8005a02:	b09c      	sub	sp, #112	; 0x70
 8005a04:	ab1d      	add	r3, sp, #116	; 0x74
 8005a06:	9002      	str	r0, [sp, #8]
 8005a08:	9006      	str	r0, [sp, #24]
 8005a0a:	9107      	str	r1, [sp, #28]
 8005a0c:	9104      	str	r1, [sp, #16]
 8005a0e:	4809      	ldr	r0, [pc, #36]	; (8005a34 <siprintf+0x38>)
 8005a10:	4909      	ldr	r1, [pc, #36]	; (8005a38 <siprintf+0x3c>)
 8005a12:	cb04      	ldmia	r3!, {r2}
 8005a14:	9105      	str	r1, [sp, #20]
 8005a16:	6800      	ldr	r0, [r0, #0]
 8005a18:	a902      	add	r1, sp, #8
 8005a1a:	9301      	str	r3, [sp, #4]
 8005a1c:	f000 f92e 	bl	8005c7c <_svfiprintf_r>
 8005a20:	2300      	movs	r3, #0
 8005a22:	9a02      	ldr	r2, [sp, #8]
 8005a24:	7013      	strb	r3, [r2, #0]
 8005a26:	b01c      	add	sp, #112	; 0x70
 8005a28:	bc08      	pop	{r3}
 8005a2a:	b003      	add	sp, #12
 8005a2c:	4718      	bx	r3
 8005a2e:	46c0      	nop			; (mov r8, r8)
 8005a30:	7fffffff 	.word	0x7fffffff
 8005a34:	2000002c 	.word	0x2000002c
 8005a38:	ffff0208 	.word	0xffff0208

08005a3c <strncmp>:
 8005a3c:	b530      	push	{r4, r5, lr}
 8005a3e:	0005      	movs	r5, r0
 8005a40:	1e10      	subs	r0, r2, #0
 8005a42:	d00b      	beq.n	8005a5c <strncmp+0x20>
 8005a44:	2400      	movs	r4, #0
 8005a46:	3a01      	subs	r2, #1
 8005a48:	5d2b      	ldrb	r3, [r5, r4]
 8005a4a:	5d08      	ldrb	r0, [r1, r4]
 8005a4c:	4283      	cmp	r3, r0
 8005a4e:	d104      	bne.n	8005a5a <strncmp+0x1e>
 8005a50:	4294      	cmp	r4, r2
 8005a52:	d002      	beq.n	8005a5a <strncmp+0x1e>
 8005a54:	3401      	adds	r4, #1
 8005a56:	2b00      	cmp	r3, #0
 8005a58:	d1f6      	bne.n	8005a48 <strncmp+0xc>
 8005a5a:	1a18      	subs	r0, r3, r0
 8005a5c:	bd30      	pop	{r4, r5, pc}

08005a5e <strrchr>:
 8005a5e:	b570      	push	{r4, r5, r6, lr}
 8005a60:	2400      	movs	r4, #0
 8005a62:	000d      	movs	r5, r1
 8005a64:	42a1      	cmp	r1, r4
 8005a66:	d106      	bne.n	8005a76 <strrchr+0x18>
 8005a68:	0021      	movs	r1, r4
 8005a6a:	f000 fb89 	bl	8006180 <strchr>
 8005a6e:	0004      	movs	r4, r0
 8005a70:	e006      	b.n	8005a80 <strrchr+0x22>
 8005a72:	001c      	movs	r4, r3
 8005a74:	1c58      	adds	r0, r3, #1
 8005a76:	0029      	movs	r1, r5
 8005a78:	f000 fb82 	bl	8006180 <strchr>
 8005a7c:	1e03      	subs	r3, r0, #0
 8005a7e:	d1f8      	bne.n	8005a72 <strrchr+0x14>
 8005a80:	0020      	movs	r0, r4
 8005a82:	bd70      	pop	{r4, r5, r6, pc}

08005a84 <_strtol_l.isra.0>:
 8005a84:	b5f0      	push	{r4, r5, r6, r7, lr}
 8005a86:	b087      	sub	sp, #28
 8005a88:	001e      	movs	r6, r3
 8005a8a:	9005      	str	r0, [sp, #20]
 8005a8c:	9101      	str	r1, [sp, #4]
 8005a8e:	9202      	str	r2, [sp, #8]
 8005a90:	2b01      	cmp	r3, #1
 8005a92:	d045      	beq.n	8005b20 <_strtol_l.isra.0+0x9c>
 8005a94:	0008      	movs	r0, r1
 8005a96:	2b24      	cmp	r3, #36	; 0x24
 8005a98:	d842      	bhi.n	8005b20 <_strtol_l.isra.0+0x9c>
 8005a9a:	4b3f      	ldr	r3, [pc, #252]	; (8005b98 <_strtol_l.isra.0+0x114>)
 8005a9c:	2208      	movs	r2, #8
 8005a9e:	469c      	mov	ip, r3
 8005aa0:	0003      	movs	r3, r0
 8005aa2:	4661      	mov	r1, ip
 8005aa4:	781c      	ldrb	r4, [r3, #0]
 8005aa6:	1c45      	adds	r5, r0, #1
 8005aa8:	5d09      	ldrb	r1, [r1, r4]
 8005aaa:	0028      	movs	r0, r5
 8005aac:	000f      	movs	r7, r1
 8005aae:	4017      	ands	r7, r2
 8005ab0:	4211      	tst	r1, r2
 8005ab2:	d1f5      	bne.n	8005aa0 <_strtol_l.isra.0+0x1c>
 8005ab4:	2c2d      	cmp	r4, #45	; 0x2d
 8005ab6:	d13a      	bne.n	8005b2e <_strtol_l.isra.0+0xaa>
 8005ab8:	2701      	movs	r7, #1
 8005aba:	782c      	ldrb	r4, [r5, #0]
 8005abc:	1c9d      	adds	r5, r3, #2
 8005abe:	2e00      	cmp	r6, #0
 8005ac0:	d065      	beq.n	8005b8e <_strtol_l.isra.0+0x10a>
 8005ac2:	2e10      	cmp	r6, #16
 8005ac4:	d109      	bne.n	8005ada <_strtol_l.isra.0+0x56>
 8005ac6:	2c30      	cmp	r4, #48	; 0x30
 8005ac8:	d107      	bne.n	8005ada <_strtol_l.isra.0+0x56>
 8005aca:	2220      	movs	r2, #32
 8005acc:	782b      	ldrb	r3, [r5, #0]
 8005ace:	4393      	bics	r3, r2
 8005ad0:	2b58      	cmp	r3, #88	; 0x58
 8005ad2:	d157      	bne.n	8005b84 <_strtol_l.isra.0+0x100>
 8005ad4:	2610      	movs	r6, #16
 8005ad6:	786c      	ldrb	r4, [r5, #1]
 8005ad8:	3502      	adds	r5, #2
 8005ada:	4b30      	ldr	r3, [pc, #192]	; (8005b9c <_strtol_l.isra.0+0x118>)
 8005adc:	0031      	movs	r1, r6
 8005ade:	18fb      	adds	r3, r7, r3
 8005ae0:	0018      	movs	r0, r3
 8005ae2:	9303      	str	r3, [sp, #12]
 8005ae4:	f7fa fba8 	bl	8000238 <__aeabi_uidivmod>
 8005ae8:	2300      	movs	r3, #0
 8005aea:	2201      	movs	r2, #1
 8005aec:	4684      	mov	ip, r0
 8005aee:	0018      	movs	r0, r3
 8005af0:	9104      	str	r1, [sp, #16]
 8005af2:	4252      	negs	r2, r2
 8005af4:	0021      	movs	r1, r4
 8005af6:	3930      	subs	r1, #48	; 0x30
 8005af8:	2909      	cmp	r1, #9
 8005afa:	d81d      	bhi.n	8005b38 <_strtol_l.isra.0+0xb4>
 8005afc:	000c      	movs	r4, r1
 8005afe:	42a6      	cmp	r6, r4
 8005b00:	dd28      	ble.n	8005b54 <_strtol_l.isra.0+0xd0>
 8005b02:	2b00      	cmp	r3, #0
 8005b04:	db24      	blt.n	8005b50 <_strtol_l.isra.0+0xcc>
 8005b06:	0013      	movs	r3, r2
 8005b08:	4584      	cmp	ip, r0
 8005b0a:	d306      	bcc.n	8005b1a <_strtol_l.isra.0+0x96>
 8005b0c:	d102      	bne.n	8005b14 <_strtol_l.isra.0+0x90>
 8005b0e:	9904      	ldr	r1, [sp, #16]
 8005b10:	42a1      	cmp	r1, r4
 8005b12:	db02      	blt.n	8005b1a <_strtol_l.isra.0+0x96>
 8005b14:	2301      	movs	r3, #1
 8005b16:	4370      	muls	r0, r6
 8005b18:	1820      	adds	r0, r4, r0
 8005b1a:	782c      	ldrb	r4, [r5, #0]
 8005b1c:	3501      	adds	r5, #1
 8005b1e:	e7e9      	b.n	8005af4 <_strtol_l.isra.0+0x70>
 8005b20:	f7ff ff30 	bl	8005984 <__errno>
 8005b24:	2316      	movs	r3, #22
 8005b26:	6003      	str	r3, [r0, #0]
 8005b28:	2000      	movs	r0, #0
 8005b2a:	b007      	add	sp, #28
 8005b2c:	bdf0      	pop	{r4, r5, r6, r7, pc}
 8005b2e:	2c2b      	cmp	r4, #43	; 0x2b
 8005b30:	d1c5      	bne.n	8005abe <_strtol_l.isra.0+0x3a>
 8005b32:	782c      	ldrb	r4, [r5, #0]
 8005b34:	1c9d      	adds	r5, r3, #2
 8005b36:	e7c2      	b.n	8005abe <_strtol_l.isra.0+0x3a>
 8005b38:	0021      	movs	r1, r4
 8005b3a:	3941      	subs	r1, #65	; 0x41
 8005b3c:	2919      	cmp	r1, #25
 8005b3e:	d801      	bhi.n	8005b44 <_strtol_l.isra.0+0xc0>
 8005b40:	3c37      	subs	r4, #55	; 0x37
 8005b42:	e7dc      	b.n	8005afe <_strtol_l.isra.0+0x7a>
 8005b44:	0021      	movs	r1, r4
 8005b46:	3961      	subs	r1, #97	; 0x61
 8005b48:	2919      	cmp	r1, #25
 8005b4a:	d803      	bhi.n	8005b54 <_strtol_l.isra.0+0xd0>
 8005b4c:	3c57      	subs	r4, #87	; 0x57
 8005b4e:	e7d6      	b.n	8005afe <_strtol_l.isra.0+0x7a>
 8005b50:	0013      	movs	r3, r2
 8005b52:	e7e2      	b.n	8005b1a <_strtol_l.isra.0+0x96>
 8005b54:	2b00      	cmp	r3, #0
 8005b56:	da09      	bge.n	8005b6c <_strtol_l.isra.0+0xe8>
 8005b58:	2322      	movs	r3, #34	; 0x22
 8005b5a:	9a05      	ldr	r2, [sp, #20]
 8005b5c:	9803      	ldr	r0, [sp, #12]
 8005b5e:	6013      	str	r3, [r2, #0]
 8005b60:	9b02      	ldr	r3, [sp, #8]
 8005b62:	2b00      	cmp	r3, #0
 8005b64:	d0e1      	beq.n	8005b2a <_strtol_l.isra.0+0xa6>
 8005b66:	1e6b      	subs	r3, r5, #1
 8005b68:	9301      	str	r3, [sp, #4]
 8005b6a:	e007      	b.n	8005b7c <_strtol_l.isra.0+0xf8>
 8005b6c:	2f00      	cmp	r7, #0
 8005b6e:	d000      	beq.n	8005b72 <_strtol_l.isra.0+0xee>
 8005b70:	4240      	negs	r0, r0
 8005b72:	9a02      	ldr	r2, [sp, #8]
 8005b74:	2a00      	cmp	r2, #0
 8005b76:	d0d8      	beq.n	8005b2a <_strtol_l.isra.0+0xa6>
 8005b78:	2b00      	cmp	r3, #0
 8005b7a:	d1f4      	bne.n	8005b66 <_strtol_l.isra.0+0xe2>
 8005b7c:	9b02      	ldr	r3, [sp, #8]
 8005b7e:	9a01      	ldr	r2, [sp, #4]
 8005b80:	601a      	str	r2, [r3, #0]
 8005b82:	e7d2      	b.n	8005b2a <_strtol_l.isra.0+0xa6>
 8005b84:	2430      	movs	r4, #48	; 0x30
 8005b86:	2e00      	cmp	r6, #0
 8005b88:	d1a7      	bne.n	8005ada <_strtol_l.isra.0+0x56>
 8005b8a:	3608      	adds	r6, #8
 8005b8c:	e7a5      	b.n	8005ada <_strtol_l.isra.0+0x56>
 8005b8e:	2c30      	cmp	r4, #48	; 0x30
 8005b90:	d09b      	beq.n	8005aca <_strtol_l.isra.0+0x46>
 8005b92:	260a      	movs	r6, #10
 8005b94:	e7a1      	b.n	8005ada <_strtol_l.isra.0+0x56>
 8005b96:	46c0      	nop			; (mov r8, r8)
 8005b98:	08006629 	.word	0x08006629
 8005b9c:	7fffffff 	.word	0x7fffffff

08005ba0 <strtol>:
 8005ba0:	b510      	push	{r4, lr}
 8005ba2:	0013      	movs	r3, r2
 8005ba4:	000a      	movs	r2, r1
 8005ba6:	0001      	movs	r1, r0
 8005ba8:	4802      	ldr	r0, [pc, #8]	; (8005bb4 <strtol+0x14>)
 8005baa:	6800      	ldr	r0, [r0, #0]
 8005bac:	f7ff ff6a 	bl	8005a84 <_strtol_l.isra.0>
 8005bb0:	bd10      	pop	{r4, pc}
 8005bb2:	46c0      	nop			; (mov r8, r8)
 8005bb4:	2000002c 	.word	0x2000002c

08005bb8 <__ssputs_r>:
 8005bb8:	b5f0      	push	{r4, r5, r6, r7, lr}
 8005bba:	688e      	ldr	r6, [r1, #8]
 8005bbc:	b085      	sub	sp, #20
 8005bbe:	0007      	movs	r7, r0
 8005bc0:	000c      	movs	r4, r1
 8005bc2:	9203      	str	r2, [sp, #12]
 8005bc4:	9301      	str	r3, [sp, #4]
 8005bc6:	429e      	cmp	r6, r3
 8005bc8:	d83c      	bhi.n	8005c44 <__ssputs_r+0x8c>
 8005bca:	2390      	movs	r3, #144	; 0x90
 8005bcc:	898a      	ldrh	r2, [r1, #12]
 8005bce:	00db      	lsls	r3, r3, #3
 8005bd0:	421a      	tst	r2, r3
 8005bd2:	d034      	beq.n	8005c3e <__ssputs_r+0x86>
 8005bd4:	2503      	movs	r5, #3
 8005bd6:	6909      	ldr	r1, [r1, #16]
 8005bd8:	6823      	ldr	r3, [r4, #0]
 8005bda:	1a5b      	subs	r3, r3, r1
 8005bdc:	9302      	str	r3, [sp, #8]
 8005bde:	6963      	ldr	r3, [r4, #20]
 8005be0:	9802      	ldr	r0, [sp, #8]
 8005be2:	435d      	muls	r5, r3
 8005be4:	0feb      	lsrs	r3, r5, #31
 8005be6:	195d      	adds	r5, r3, r5
 8005be8:	9b01      	ldr	r3, [sp, #4]
 8005bea:	106d      	asrs	r5, r5, #1
 8005bec:	3301      	adds	r3, #1
 8005bee:	181b      	adds	r3, r3, r0
 8005bf0:	42ab      	cmp	r3, r5
 8005bf2:	d900      	bls.n	8005bf6 <__ssputs_r+0x3e>
 8005bf4:	001d      	movs	r5, r3
 8005bf6:	0553      	lsls	r3, r2, #21
 8005bf8:	d532      	bpl.n	8005c60 <__ssputs_r+0xa8>
 8005bfa:	0029      	movs	r1, r5
 8005bfc:	0038      	movs	r0, r7
 8005bfe:	f000 fb35 	bl	800626c <_malloc_r>
 8005c02:	1e06      	subs	r6, r0, #0
 8005c04:	d109      	bne.n	8005c1a <__ssputs_r+0x62>
 8005c06:	230c      	movs	r3, #12
 8005c08:	603b      	str	r3, [r7, #0]
 8005c0a:	2340      	movs	r3, #64	; 0x40
 8005c0c:	2001      	movs	r0, #1
 8005c0e:	89a2      	ldrh	r2, [r4, #12]
 8005c10:	4240      	negs	r0, r0
 8005c12:	4313      	orrs	r3, r2
 8005c14:	81a3      	strh	r3, [r4, #12]
 8005c16:	b005      	add	sp, #20
 8005c18:	bdf0      	pop	{r4, r5, r6, r7, pc}
 8005c1a:	9a02      	ldr	r2, [sp, #8]
 8005c1c:	6921      	ldr	r1, [r4, #16]
 8005c1e:	f7ff fedb 	bl	80059d8 <memcpy>
 8005c22:	89a3      	ldrh	r3, [r4, #12]
 8005c24:	4a14      	ldr	r2, [pc, #80]	; (8005c78 <__ssputs_r+0xc0>)
 8005c26:	401a      	ands	r2, r3
 8005c28:	2380      	movs	r3, #128	; 0x80
 8005c2a:	4313      	orrs	r3, r2
 8005c2c:	81a3      	strh	r3, [r4, #12]
 8005c2e:	9b02      	ldr	r3, [sp, #8]
 8005c30:	6126      	str	r6, [r4, #16]
 8005c32:	18f6      	adds	r6, r6, r3
 8005c34:	6026      	str	r6, [r4, #0]
 8005c36:	6165      	str	r5, [r4, #20]
 8005c38:	9e01      	ldr	r6, [sp, #4]
 8005c3a:	1aed      	subs	r5, r5, r3
 8005c3c:	60a5      	str	r5, [r4, #8]
 8005c3e:	9b01      	ldr	r3, [sp, #4]
 8005c40:	429e      	cmp	r6, r3
 8005c42:	d900      	bls.n	8005c46 <__ssputs_r+0x8e>
 8005c44:	9e01      	ldr	r6, [sp, #4]
 8005c46:	0032      	movs	r2, r6
 8005c48:	9903      	ldr	r1, [sp, #12]
 8005c4a:	6820      	ldr	r0, [r4, #0]
 8005c4c:	f000 fab1 	bl	80061b2 <memmove>
 8005c50:	68a3      	ldr	r3, [r4, #8]
 8005c52:	2000      	movs	r0, #0
 8005c54:	1b9b      	subs	r3, r3, r6
 8005c56:	60a3      	str	r3, [r4, #8]
 8005c58:	6823      	ldr	r3, [r4, #0]
 8005c5a:	199e      	adds	r6, r3, r6
 8005c5c:	6026      	str	r6, [r4, #0]
 8005c5e:	e7da      	b.n	8005c16 <__ssputs_r+0x5e>
 8005c60:	002a      	movs	r2, r5
 8005c62:	0038      	movs	r0, r7
 8005c64:	f000 fb60 	bl	8006328 <_realloc_r>
 8005c68:	1e06      	subs	r6, r0, #0
 8005c6a:	d1e0      	bne.n	8005c2e <__ssputs_r+0x76>
 8005c6c:	0038      	movs	r0, r7
 8005c6e:	6921      	ldr	r1, [r4, #16]
 8005c70:	f000 fab2 	bl	80061d8 <_free_r>
 8005c74:	e7c7      	b.n	8005c06 <__ssputs_r+0x4e>
 8005c76:	46c0      	nop			; (mov r8, r8)
 8005c78:	fffffb7f 	.word	0xfffffb7f

08005c7c <_svfiprintf_r>:
 8005c7c:	b5f0      	push	{r4, r5, r6, r7, lr}
 8005c7e:	b0a1      	sub	sp, #132	; 0x84
 8005c80:	9003      	str	r0, [sp, #12]
 8005c82:	001d      	movs	r5, r3
 8005c84:	898b      	ldrh	r3, [r1, #12]
 8005c86:	000f      	movs	r7, r1
 8005c88:	0016      	movs	r6, r2
 8005c8a:	061b      	lsls	r3, r3, #24
 8005c8c:	d511      	bpl.n	8005cb2 <_svfiprintf_r+0x36>
 8005c8e:	690b      	ldr	r3, [r1, #16]
 8005c90:	2b00      	cmp	r3, #0
 8005c92:	d10e      	bne.n	8005cb2 <_svfiprintf_r+0x36>
 8005c94:	2140      	movs	r1, #64	; 0x40
 8005c96:	f000 fae9 	bl	800626c <_malloc_r>
 8005c9a:	6038      	str	r0, [r7, #0]
 8005c9c:	6138      	str	r0, [r7, #16]
 8005c9e:	2800      	cmp	r0, #0
 8005ca0:	d105      	bne.n	8005cae <_svfiprintf_r+0x32>
 8005ca2:	230c      	movs	r3, #12
 8005ca4:	9a03      	ldr	r2, [sp, #12]
 8005ca6:	3801      	subs	r0, #1
 8005ca8:	6013      	str	r3, [r2, #0]
 8005caa:	b021      	add	sp, #132	; 0x84
 8005cac:	bdf0      	pop	{r4, r5, r6, r7, pc}
 8005cae:	2340      	movs	r3, #64	; 0x40
 8005cb0:	617b      	str	r3, [r7, #20]
 8005cb2:	2300      	movs	r3, #0
 8005cb4:	ac08      	add	r4, sp, #32
 8005cb6:	6163      	str	r3, [r4, #20]
 8005cb8:	3320      	adds	r3, #32
 8005cba:	7663      	strb	r3, [r4, #25]
 8005cbc:	3310      	adds	r3, #16
 8005cbe:	76a3      	strb	r3, [r4, #26]
 8005cc0:	9507      	str	r5, [sp, #28]
 8005cc2:	0035      	movs	r5, r6
 8005cc4:	782b      	ldrb	r3, [r5, #0]
 8005cc6:	2b00      	cmp	r3, #0
 8005cc8:	d001      	beq.n	8005cce <_svfiprintf_r+0x52>
 8005cca:	2b25      	cmp	r3, #37	; 0x25
 8005ccc:	d147      	bne.n	8005d5e <_svfiprintf_r+0xe2>
 8005cce:	1bab      	subs	r3, r5, r6
 8005cd0:	9305      	str	r3, [sp, #20]
 8005cd2:	42b5      	cmp	r5, r6
 8005cd4:	d00c      	beq.n	8005cf0 <_svfiprintf_r+0x74>
 8005cd6:	0032      	movs	r2, r6
 8005cd8:	0039      	movs	r1, r7
 8005cda:	9803      	ldr	r0, [sp, #12]
 8005cdc:	f7ff ff6c 	bl	8005bb8 <__ssputs_r>
 8005ce0:	1c43      	adds	r3, r0, #1
 8005ce2:	d100      	bne.n	8005ce6 <_svfiprintf_r+0x6a>
 8005ce4:	e0ae      	b.n	8005e44 <_svfiprintf_r+0x1c8>
 8005ce6:	6962      	ldr	r2, [r4, #20]
 8005ce8:	9b05      	ldr	r3, [sp, #20]
 8005cea:	4694      	mov	ip, r2
 8005cec:	4463      	add	r3, ip
 8005cee:	6163      	str	r3, [r4, #20]
 8005cf0:	782b      	ldrb	r3, [r5, #0]
 8005cf2:	2b00      	cmp	r3, #0
 8005cf4:	d100      	bne.n	8005cf8 <_svfiprintf_r+0x7c>
 8005cf6:	e0a5      	b.n	8005e44 <_svfiprintf_r+0x1c8>
 8005cf8:	2201      	movs	r2, #1
 8005cfa:	2300      	movs	r3, #0
 8005cfc:	4252      	negs	r2, r2
 8005cfe:	6062      	str	r2, [r4, #4]
 8005d00:	a904      	add	r1, sp, #16
 8005d02:	3254      	adds	r2, #84	; 0x54
 8005d04:	1852      	adds	r2, r2, r1
 8005d06:	1c6e      	adds	r6, r5, #1
 8005d08:	6023      	str	r3, [r4, #0]
 8005d0a:	60e3      	str	r3, [r4, #12]
 8005d0c:	60a3      	str	r3, [r4, #8]
 8005d0e:	7013      	strb	r3, [r2, #0]
 8005d10:	65a3      	str	r3, [r4, #88]	; 0x58
 8005d12:	2205      	movs	r2, #5
 8005d14:	7831      	ldrb	r1, [r6, #0]
 8005d16:	4854      	ldr	r0, [pc, #336]	; (8005e68 <_svfiprintf_r+0x1ec>)
 8005d18:	f000 fa40 	bl	800619c <memchr>
 8005d1c:	1c75      	adds	r5, r6, #1
 8005d1e:	2800      	cmp	r0, #0
 8005d20:	d11f      	bne.n	8005d62 <_svfiprintf_r+0xe6>
 8005d22:	6822      	ldr	r2, [r4, #0]
 8005d24:	06d3      	lsls	r3, r2, #27
 8005d26:	d504      	bpl.n	8005d32 <_svfiprintf_r+0xb6>
 8005d28:	2353      	movs	r3, #83	; 0x53
 8005d2a:	a904      	add	r1, sp, #16
 8005d2c:	185b      	adds	r3, r3, r1
 8005d2e:	2120      	movs	r1, #32
 8005d30:	7019      	strb	r1, [r3, #0]
 8005d32:	0713      	lsls	r3, r2, #28
 8005d34:	d504      	bpl.n	8005d40 <_svfiprintf_r+0xc4>
 8005d36:	2353      	movs	r3, #83	; 0x53
 8005d38:	a904      	add	r1, sp, #16
 8005d3a:	185b      	adds	r3, r3, r1
 8005d3c:	212b      	movs	r1, #43	; 0x2b
 8005d3e:	7019      	strb	r1, [r3, #0]
 8005d40:	7833      	ldrb	r3, [r6, #0]
 8005d42:	2b2a      	cmp	r3, #42	; 0x2a
 8005d44:	d016      	beq.n	8005d74 <_svfiprintf_r+0xf8>
 8005d46:	0035      	movs	r5, r6
 8005d48:	2100      	movs	r1, #0
 8005d4a:	200a      	movs	r0, #10
 8005d4c:	68e3      	ldr	r3, [r4, #12]
 8005d4e:	782a      	ldrb	r2, [r5, #0]
 8005d50:	1c6e      	adds	r6, r5, #1
 8005d52:	3a30      	subs	r2, #48	; 0x30
 8005d54:	2a09      	cmp	r2, #9
 8005d56:	d94e      	bls.n	8005df6 <_svfiprintf_r+0x17a>
 8005d58:	2900      	cmp	r1, #0
 8005d5a:	d111      	bne.n	8005d80 <_svfiprintf_r+0x104>
 8005d5c:	e017      	b.n	8005d8e <_svfiprintf_r+0x112>
 8005d5e:	3501      	adds	r5, #1
 8005d60:	e7b0      	b.n	8005cc4 <_svfiprintf_r+0x48>
 8005d62:	4b41      	ldr	r3, [pc, #260]	; (8005e68 <_svfiprintf_r+0x1ec>)
 8005d64:	6822      	ldr	r2, [r4, #0]
 8005d66:	1ac0      	subs	r0, r0, r3
 8005d68:	2301      	movs	r3, #1
 8005d6a:	4083      	lsls	r3, r0
 8005d6c:	4313      	orrs	r3, r2
 8005d6e:	002e      	movs	r6, r5
 8005d70:	6023      	str	r3, [r4, #0]
 8005d72:	e7ce      	b.n	8005d12 <_svfiprintf_r+0x96>
 8005d74:	9b07      	ldr	r3, [sp, #28]
 8005d76:	1d19      	adds	r1, r3, #4
 8005d78:	681b      	ldr	r3, [r3, #0]
 8005d7a:	9107      	str	r1, [sp, #28]
 8005d7c:	2b00      	cmp	r3, #0
 8005d7e:	db01      	blt.n	8005d84 <_svfiprintf_r+0x108>
 8005d80:	930b      	str	r3, [sp, #44]	; 0x2c
 8005d82:	e004      	b.n	8005d8e <_svfiprintf_r+0x112>
 8005d84:	425b      	negs	r3, r3
 8005d86:	60e3      	str	r3, [r4, #12]
 8005d88:	2302      	movs	r3, #2
 8005d8a:	4313      	orrs	r3, r2
 8005d8c:	6023      	str	r3, [r4, #0]
 8005d8e:	782b      	ldrb	r3, [r5, #0]
 8005d90:	2b2e      	cmp	r3, #46	; 0x2e
 8005d92:	d10a      	bne.n	8005daa <_svfiprintf_r+0x12e>
 8005d94:	786b      	ldrb	r3, [r5, #1]
 8005d96:	2b2a      	cmp	r3, #42	; 0x2a
 8005d98:	d135      	bne.n	8005e06 <_svfiprintf_r+0x18a>
 8005d9a:	9b07      	ldr	r3, [sp, #28]
 8005d9c:	3502      	adds	r5, #2
 8005d9e:	1d1a      	adds	r2, r3, #4
 8005da0:	681b      	ldr	r3, [r3, #0]
 8005da2:	9207      	str	r2, [sp, #28]
 8005da4:	2b00      	cmp	r3, #0
 8005da6:	db2b      	blt.n	8005e00 <_svfiprintf_r+0x184>
 8005da8:	9309      	str	r3, [sp, #36]	; 0x24
 8005daa:	4e30      	ldr	r6, [pc, #192]	; (8005e6c <_svfiprintf_r+0x1f0>)
 8005dac:	2203      	movs	r2, #3
 8005dae:	0030      	movs	r0, r6
 8005db0:	7829      	ldrb	r1, [r5, #0]
 8005db2:	f000 f9f3 	bl	800619c <memchr>
 8005db6:	2800      	cmp	r0, #0
 8005db8:	d006      	beq.n	8005dc8 <_svfiprintf_r+0x14c>
 8005dba:	2340      	movs	r3, #64	; 0x40
 8005dbc:	1b80      	subs	r0, r0, r6
 8005dbe:	4083      	lsls	r3, r0
 8005dc0:	6822      	ldr	r2, [r4, #0]
 8005dc2:	3501      	adds	r5, #1
 8005dc4:	4313      	orrs	r3, r2
 8005dc6:	6023      	str	r3, [r4, #0]
 8005dc8:	7829      	ldrb	r1, [r5, #0]
 8005dca:	2206      	movs	r2, #6
 8005dcc:	4828      	ldr	r0, [pc, #160]	; (8005e70 <_svfiprintf_r+0x1f4>)
 8005dce:	1c6e      	adds	r6, r5, #1
 8005dd0:	7621      	strb	r1, [r4, #24]
 8005dd2:	f000 f9e3 	bl	800619c <memchr>
 8005dd6:	2800      	cmp	r0, #0
 8005dd8:	d03c      	beq.n	8005e54 <_svfiprintf_r+0x1d8>
 8005dda:	4b26      	ldr	r3, [pc, #152]	; (8005e74 <_svfiprintf_r+0x1f8>)
 8005ddc:	2b00      	cmp	r3, #0
 8005dde:	d125      	bne.n	8005e2c <_svfiprintf_r+0x1b0>
 8005de0:	2207      	movs	r2, #7
 8005de2:	9b07      	ldr	r3, [sp, #28]
 8005de4:	3307      	adds	r3, #7
 8005de6:	4393      	bics	r3, r2
 8005de8:	3308      	adds	r3, #8
 8005dea:	9307      	str	r3, [sp, #28]
 8005dec:	6963      	ldr	r3, [r4, #20]
 8005dee:	9a04      	ldr	r2, [sp, #16]
 8005df0:	189b      	adds	r3, r3, r2
 8005df2:	6163      	str	r3, [r4, #20]
 8005df4:	e765      	b.n	8005cc2 <_svfiprintf_r+0x46>
 8005df6:	4343      	muls	r3, r0
 8005df8:	0035      	movs	r5, r6
 8005dfa:	2101      	movs	r1, #1
 8005dfc:	189b      	adds	r3, r3, r2
 8005dfe:	e7a6      	b.n	8005d4e <_svfiprintf_r+0xd2>
 8005e00:	2301      	movs	r3, #1
 8005e02:	425b      	negs	r3, r3
 8005e04:	e7d0      	b.n	8005da8 <_svfiprintf_r+0x12c>
 8005e06:	2300      	movs	r3, #0
 8005e08:	200a      	movs	r0, #10
 8005e0a:	001a      	movs	r2, r3
 8005e0c:	3501      	adds	r5, #1
 8005e0e:	6063      	str	r3, [r4, #4]
 8005e10:	7829      	ldrb	r1, [r5, #0]
 8005e12:	1c6e      	adds	r6, r5, #1
 8005e14:	3930      	subs	r1, #48	; 0x30
 8005e16:	2909      	cmp	r1, #9
 8005e18:	d903      	bls.n	8005e22 <_svfiprintf_r+0x1a6>
 8005e1a:	2b00      	cmp	r3, #0
 8005e1c:	d0c5      	beq.n	8005daa <_svfiprintf_r+0x12e>
 8005e1e:	9209      	str	r2, [sp, #36]	; 0x24
 8005e20:	e7c3      	b.n	8005daa <_svfiprintf_r+0x12e>
 8005e22:	4342      	muls	r2, r0
 8005e24:	0035      	movs	r5, r6
 8005e26:	2301      	movs	r3, #1
 8005e28:	1852      	adds	r2, r2, r1
 8005e2a:	e7f1      	b.n	8005e10 <_svfiprintf_r+0x194>
 8005e2c:	ab07      	add	r3, sp, #28
 8005e2e:	9300      	str	r3, [sp, #0]
 8005e30:	003a      	movs	r2, r7
 8005e32:	0021      	movs	r1, r4
 8005e34:	4b10      	ldr	r3, [pc, #64]	; (8005e78 <_svfiprintf_r+0x1fc>)
 8005e36:	9803      	ldr	r0, [sp, #12]
 8005e38:	e000      	b.n	8005e3c <_svfiprintf_r+0x1c0>
 8005e3a:	bf00      	nop
 8005e3c:	9004      	str	r0, [sp, #16]
 8005e3e:	9b04      	ldr	r3, [sp, #16]
 8005e40:	3301      	adds	r3, #1
 8005e42:	d1d3      	bne.n	8005dec <_svfiprintf_r+0x170>
 8005e44:	89bb      	ldrh	r3, [r7, #12]
 8005e46:	980d      	ldr	r0, [sp, #52]	; 0x34
 8005e48:	065b      	lsls	r3, r3, #25
 8005e4a:	d400      	bmi.n	8005e4e <_svfiprintf_r+0x1d2>
 8005e4c:	e72d      	b.n	8005caa <_svfiprintf_r+0x2e>
 8005e4e:	2001      	movs	r0, #1
 8005e50:	4240      	negs	r0, r0
 8005e52:	e72a      	b.n	8005caa <_svfiprintf_r+0x2e>
 8005e54:	ab07      	add	r3, sp, #28
 8005e56:	9300      	str	r3, [sp, #0]
 8005e58:	003a      	movs	r2, r7
 8005e5a:	0021      	movs	r1, r4
 8005e5c:	4b06      	ldr	r3, [pc, #24]	; (8005e78 <_svfiprintf_r+0x1fc>)
 8005e5e:	9803      	ldr	r0, [sp, #12]
 8005e60:	f000 f87c 	bl	8005f5c <_printf_i>
 8005e64:	e7ea      	b.n	8005e3c <_svfiprintf_r+0x1c0>
 8005e66:	46c0      	nop			; (mov r8, r8)
 8005e68:	08006729 	.word	0x08006729
 8005e6c:	0800672f 	.word	0x0800672f
 8005e70:	08006733 	.word	0x08006733
 8005e74:	00000000 	.word	0x00000000
 8005e78:	08005bb9 	.word	0x08005bb9

08005e7c <_printf_common>:
 8005e7c:	b5f7      	push	{r0, r1, r2, r4, r5, r6, r7, lr}
 8005e7e:	0015      	movs	r5, r2
 8005e80:	9301      	str	r3, [sp, #4]
 8005e82:	688a      	ldr	r2, [r1, #8]
 8005e84:	690b      	ldr	r3, [r1, #16]
 8005e86:	000c      	movs	r4, r1
 8005e88:	9000      	str	r0, [sp, #0]
 8005e8a:	4293      	cmp	r3, r2
 8005e8c:	da00      	bge.n	8005e90 <_printf_common+0x14>
 8005e8e:	0013      	movs	r3, r2
 8005e90:	0022      	movs	r2, r4
 8005e92:	602b      	str	r3, [r5, #0]
 8005e94:	3243      	adds	r2, #67	; 0x43
 8005e96:	7812      	ldrb	r2, [r2, #0]
 8005e98:	2a00      	cmp	r2, #0
 8005e9a:	d001      	beq.n	8005ea0 <_printf_common+0x24>
 8005e9c:	3301      	adds	r3, #1
 8005e9e:	602b      	str	r3, [r5, #0]
 8005ea0:	6823      	ldr	r3, [r4, #0]
 8005ea2:	069b      	lsls	r3, r3, #26
 8005ea4:	d502      	bpl.n	8005eac <_printf_common+0x30>
 8005ea6:	682b      	ldr	r3, [r5, #0]
 8005ea8:	3302      	adds	r3, #2
 8005eaa:	602b      	str	r3, [r5, #0]
 8005eac:	6822      	ldr	r2, [r4, #0]
 8005eae:	2306      	movs	r3, #6
 8005eb0:	0017      	movs	r7, r2
 8005eb2:	401f      	ands	r7, r3
 8005eb4:	421a      	tst	r2, r3
 8005eb6:	d027      	beq.n	8005f08 <_printf_common+0x8c>
 8005eb8:	0023      	movs	r3, r4
 8005eba:	3343      	adds	r3, #67	; 0x43
 8005ebc:	781b      	ldrb	r3, [r3, #0]
 8005ebe:	1e5a      	subs	r2, r3, #1
 8005ec0:	4193      	sbcs	r3, r2
 8005ec2:	6822      	ldr	r2, [r4, #0]
 8005ec4:	0692      	lsls	r2, r2, #26
 8005ec6:	d430      	bmi.n	8005f2a <_printf_common+0xae>
 8005ec8:	0022      	movs	r2, r4
 8005eca:	9901      	ldr	r1, [sp, #4]
 8005ecc:	9800      	ldr	r0, [sp, #0]
 8005ece:	9e08      	ldr	r6, [sp, #32]
 8005ed0:	3243      	adds	r2, #67	; 0x43
 8005ed2:	47b0      	blx	r6
 8005ed4:	1c43      	adds	r3, r0, #1
 8005ed6:	d025      	beq.n	8005f24 <_printf_common+0xa8>
 8005ed8:	2306      	movs	r3, #6
 8005eda:	6820      	ldr	r0, [r4, #0]
 8005edc:	682a      	ldr	r2, [r5, #0]
 8005ede:	68e1      	ldr	r1, [r4, #12]
 8005ee0:	2500      	movs	r5, #0
 8005ee2:	4003      	ands	r3, r0
 8005ee4:	2b04      	cmp	r3, #4
 8005ee6:	d103      	bne.n	8005ef0 <_printf_common+0x74>
 8005ee8:	1a8d      	subs	r5, r1, r2
 8005eea:	43eb      	mvns	r3, r5
 8005eec:	17db      	asrs	r3, r3, #31
 8005eee:	401d      	ands	r5, r3
 8005ef0:	68a3      	ldr	r3, [r4, #8]
 8005ef2:	6922      	ldr	r2, [r4, #16]
 8005ef4:	4293      	cmp	r3, r2
 8005ef6:	dd01      	ble.n	8005efc <_printf_common+0x80>
 8005ef8:	1a9b      	subs	r3, r3, r2
 8005efa:	18ed      	adds	r5, r5, r3
 8005efc:	2700      	movs	r7, #0
 8005efe:	42bd      	cmp	r5, r7
 8005f00:	d120      	bne.n	8005f44 <_printf_common+0xc8>
 8005f02:	2000      	movs	r0, #0
 8005f04:	e010      	b.n	8005f28 <_printf_common+0xac>
 8005f06:	3701      	adds	r7, #1
 8005f08:	68e3      	ldr	r3, [r4, #12]
 8005f0a:	682a      	ldr	r2, [r5, #0]
 8005f0c:	1a9b      	subs	r3, r3, r2
 8005f0e:	42bb      	cmp	r3, r7
 8005f10:	ddd2      	ble.n	8005eb8 <_printf_common+0x3c>
 8005f12:	0022      	movs	r2, r4
 8005f14:	2301      	movs	r3, #1
 8005f16:	9901      	ldr	r1, [sp, #4]
 8005f18:	9800      	ldr	r0, [sp, #0]
 8005f1a:	9e08      	ldr	r6, [sp, #32]
 8005f1c:	3219      	adds	r2, #25
 8005f1e:	47b0      	blx	r6
 8005f20:	1c43      	adds	r3, r0, #1
 8005f22:	d1f0      	bne.n	8005f06 <_printf_common+0x8a>
 8005f24:	2001      	movs	r0, #1
 8005f26:	4240      	negs	r0, r0
 8005f28:	bdfe      	pop	{r1, r2, r3, r4, r5, r6, r7, pc}
 8005f2a:	2030      	movs	r0, #48	; 0x30
 8005f2c:	18e1      	adds	r1, r4, r3
 8005f2e:	3143      	adds	r1, #67	; 0x43
 8005f30:	7008      	strb	r0, [r1, #0]
 8005f32:	0021      	movs	r1, r4
 8005f34:	1c5a      	adds	r2, r3, #1
 8005f36:	3145      	adds	r1, #69	; 0x45
 8005f38:	7809      	ldrb	r1, [r1, #0]
 8005f3a:	18a2      	adds	r2, r4, r2
 8005f3c:	3243      	adds	r2, #67	; 0x43
 8005f3e:	3302      	adds	r3, #2
 8005f40:	7011      	strb	r1, [r2, #0]
 8005f42:	e7c1      	b.n	8005ec8 <_printf_common+0x4c>
 8005f44:	0022      	movs	r2, r4
 8005f46:	2301      	movs	r3, #1
 8005f48:	9901      	ldr	r1, [sp, #4]
 8005f4a:	9800      	ldr	r0, [sp, #0]
 8005f4c:	9e08      	ldr	r6, [sp, #32]
 8005f4e:	321a      	adds	r2, #26
 8005f50:	47b0      	blx	r6
 8005f52:	1c43      	adds	r3, r0, #1
 8005f54:	d0e6      	beq.n	8005f24 <_printf_common+0xa8>
 8005f56:	3701      	adds	r7, #1
 8005f58:	e7d1      	b.n	8005efe <_printf_common+0x82>
	...

08005f5c <_printf_i>:
 8005f5c:	b5f0      	push	{r4, r5, r6, r7, lr}
 8005f5e:	b08b      	sub	sp, #44	; 0x2c
 8005f60:	9206      	str	r2, [sp, #24]
 8005f62:	000a      	movs	r2, r1
 8005f64:	3243      	adds	r2, #67	; 0x43
 8005f66:	9307      	str	r3, [sp, #28]
 8005f68:	9005      	str	r0, [sp, #20]
 8005f6a:	9204      	str	r2, [sp, #16]
 8005f6c:	7e0a      	ldrb	r2, [r1, #24]
 8005f6e:	000c      	movs	r4, r1
 8005f70:	9b10      	ldr	r3, [sp, #64]	; 0x40
 8005f72:	2a78      	cmp	r2, #120	; 0x78
 8005f74:	d806      	bhi.n	8005f84 <_printf_i+0x28>
 8005f76:	2a62      	cmp	r2, #98	; 0x62
 8005f78:	d808      	bhi.n	8005f8c <_printf_i+0x30>
 8005f7a:	2a00      	cmp	r2, #0
 8005f7c:	d100      	bne.n	8005f80 <_printf_i+0x24>
 8005f7e:	e0c0      	b.n	8006102 <_printf_i+0x1a6>
 8005f80:	2a58      	cmp	r2, #88	; 0x58
 8005f82:	d052      	beq.n	800602a <_printf_i+0xce>
 8005f84:	0026      	movs	r6, r4
 8005f86:	3642      	adds	r6, #66	; 0x42
 8005f88:	7032      	strb	r2, [r6, #0]
 8005f8a:	e022      	b.n	8005fd2 <_printf_i+0x76>
 8005f8c:	0010      	movs	r0, r2
 8005f8e:	3863      	subs	r0, #99	; 0x63
 8005f90:	2815      	cmp	r0, #21
 8005f92:	d8f7      	bhi.n	8005f84 <_printf_i+0x28>
 8005f94:	f7fa f8c0 	bl	8000118 <__gnu_thumb1_case_shi>
 8005f98:	001f0016 	.word	0x001f0016
 8005f9c:	fff6fff6 	.word	0xfff6fff6
 8005fa0:	fff6fff6 	.word	0xfff6fff6
 8005fa4:	fff6001f 	.word	0xfff6001f
 8005fa8:	fff6fff6 	.word	0xfff6fff6
 8005fac:	00a8fff6 	.word	0x00a8fff6
 8005fb0:	009a0036 	.word	0x009a0036
 8005fb4:	fff6fff6 	.word	0xfff6fff6
 8005fb8:	fff600b9 	.word	0xfff600b9
 8005fbc:	fff60036 	.word	0xfff60036
 8005fc0:	009efff6 	.word	0x009efff6
 8005fc4:	0026      	movs	r6, r4
 8005fc6:	681a      	ldr	r2, [r3, #0]
 8005fc8:	3642      	adds	r6, #66	; 0x42
 8005fca:	1d11      	adds	r1, r2, #4
 8005fcc:	6019      	str	r1, [r3, #0]
 8005fce:	6813      	ldr	r3, [r2, #0]
 8005fd0:	7033      	strb	r3, [r6, #0]
 8005fd2:	2301      	movs	r3, #1
 8005fd4:	e0a7      	b.n	8006126 <_printf_i+0x1ca>
 8005fd6:	6808      	ldr	r0, [r1, #0]
 8005fd8:	6819      	ldr	r1, [r3, #0]
 8005fda:	1d0a      	adds	r2, r1, #4
 8005fdc:	0605      	lsls	r5, r0, #24
 8005fde:	d50b      	bpl.n	8005ff8 <_printf_i+0x9c>
 8005fe0:	680d      	ldr	r5, [r1, #0]
 8005fe2:	601a      	str	r2, [r3, #0]
 8005fe4:	2d00      	cmp	r5, #0
 8005fe6:	da03      	bge.n	8005ff0 <_printf_i+0x94>
 8005fe8:	232d      	movs	r3, #45	; 0x2d
 8005fea:	9a04      	ldr	r2, [sp, #16]
 8005fec:	426d      	negs	r5, r5
 8005fee:	7013      	strb	r3, [r2, #0]
 8005ff0:	4b61      	ldr	r3, [pc, #388]	; (8006178 <_printf_i+0x21c>)
 8005ff2:	270a      	movs	r7, #10
 8005ff4:	9303      	str	r3, [sp, #12]
 8005ff6:	e032      	b.n	800605e <_printf_i+0x102>
 8005ff8:	680d      	ldr	r5, [r1, #0]
 8005ffa:	601a      	str	r2, [r3, #0]
 8005ffc:	0641      	lsls	r1, r0, #25
 8005ffe:	d5f1      	bpl.n	8005fe4 <_printf_i+0x88>
 8006000:	b22d      	sxth	r5, r5
 8006002:	e7ef      	b.n	8005fe4 <_printf_i+0x88>
 8006004:	680d      	ldr	r5, [r1, #0]
 8006006:	6819      	ldr	r1, [r3, #0]
 8006008:	1d08      	adds	r0, r1, #4
 800600a:	6018      	str	r0, [r3, #0]
 800600c:	062e      	lsls	r6, r5, #24
 800600e:	d501      	bpl.n	8006014 <_printf_i+0xb8>
 8006010:	680d      	ldr	r5, [r1, #0]
 8006012:	e003      	b.n	800601c <_printf_i+0xc0>
 8006014:	066d      	lsls	r5, r5, #25
 8006016:	d5fb      	bpl.n	8006010 <_printf_i+0xb4>
 8006018:	680d      	ldr	r5, [r1, #0]
 800601a:	b2ad      	uxth	r5, r5
 800601c:	4b56      	ldr	r3, [pc, #344]	; (8006178 <_printf_i+0x21c>)
 800601e:	270a      	movs	r7, #10
 8006020:	9303      	str	r3, [sp, #12]
 8006022:	2a6f      	cmp	r2, #111	; 0x6f
 8006024:	d117      	bne.n	8006056 <_printf_i+0xfa>
 8006026:	2708      	movs	r7, #8
 8006028:	e015      	b.n	8006056 <_printf_i+0xfa>
 800602a:	3145      	adds	r1, #69	; 0x45
 800602c:	700a      	strb	r2, [r1, #0]
 800602e:	4a52      	ldr	r2, [pc, #328]	; (8006178 <_printf_i+0x21c>)
 8006030:	9203      	str	r2, [sp, #12]
 8006032:	681a      	ldr	r2, [r3, #0]
 8006034:	6821      	ldr	r1, [r4, #0]
 8006036:	ca20      	ldmia	r2!, {r5}
 8006038:	601a      	str	r2, [r3, #0]
 800603a:	0608      	lsls	r0, r1, #24
 800603c:	d550      	bpl.n	80060e0 <_printf_i+0x184>
 800603e:	07cb      	lsls	r3, r1, #31
 8006040:	d502      	bpl.n	8006048 <_printf_i+0xec>
 8006042:	2320      	movs	r3, #32
 8006044:	4319      	orrs	r1, r3
 8006046:	6021      	str	r1, [r4, #0]
 8006048:	2710      	movs	r7, #16
 800604a:	2d00      	cmp	r5, #0
 800604c:	d103      	bne.n	8006056 <_printf_i+0xfa>
 800604e:	2320      	movs	r3, #32
 8006050:	6822      	ldr	r2, [r4, #0]
 8006052:	439a      	bics	r2, r3
 8006054:	6022      	str	r2, [r4, #0]
 8006056:	0023      	movs	r3, r4
 8006058:	2200      	movs	r2, #0
 800605a:	3343      	adds	r3, #67	; 0x43
 800605c:	701a      	strb	r2, [r3, #0]
 800605e:	6863      	ldr	r3, [r4, #4]
 8006060:	60a3      	str	r3, [r4, #8]
 8006062:	2b00      	cmp	r3, #0
 8006064:	db03      	blt.n	800606e <_printf_i+0x112>
 8006066:	2204      	movs	r2, #4
 8006068:	6821      	ldr	r1, [r4, #0]
 800606a:	4391      	bics	r1, r2
 800606c:	6021      	str	r1, [r4, #0]
 800606e:	2d00      	cmp	r5, #0
 8006070:	d102      	bne.n	8006078 <_printf_i+0x11c>
 8006072:	9e04      	ldr	r6, [sp, #16]
 8006074:	2b00      	cmp	r3, #0
 8006076:	d00c      	beq.n	8006092 <_printf_i+0x136>
 8006078:	9e04      	ldr	r6, [sp, #16]
 800607a:	0028      	movs	r0, r5
 800607c:	0039      	movs	r1, r7
 800607e:	f7fa f8db 	bl	8000238 <__aeabi_uidivmod>
 8006082:	9b03      	ldr	r3, [sp, #12]
 8006084:	3e01      	subs	r6, #1
 8006086:	5c5b      	ldrb	r3, [r3, r1]
 8006088:	7033      	strb	r3, [r6, #0]
 800608a:	002b      	movs	r3, r5
 800608c:	0005      	movs	r5, r0
 800608e:	429f      	cmp	r7, r3
 8006090:	d9f3      	bls.n	800607a <_printf_i+0x11e>
 8006092:	2f08      	cmp	r7, #8
 8006094:	d109      	bne.n	80060aa <_printf_i+0x14e>
 8006096:	6823      	ldr	r3, [r4, #0]
 8006098:	07db      	lsls	r3, r3, #31
 800609a:	d506      	bpl.n	80060aa <_printf_i+0x14e>
 800609c:	6863      	ldr	r3, [r4, #4]
 800609e:	6922      	ldr	r2, [r4, #16]
 80060a0:	4293      	cmp	r3, r2
 80060a2:	dc02      	bgt.n	80060aa <_printf_i+0x14e>
 80060a4:	2330      	movs	r3, #48	; 0x30
 80060a6:	3e01      	subs	r6, #1
 80060a8:	7033      	strb	r3, [r6, #0]
 80060aa:	9b04      	ldr	r3, [sp, #16]
 80060ac:	1b9b      	subs	r3, r3, r6
 80060ae:	6123      	str	r3, [r4, #16]
 80060b0:	9b07      	ldr	r3, [sp, #28]
 80060b2:	0021      	movs	r1, r4
 80060b4:	9300      	str	r3, [sp, #0]
 80060b6:	9805      	ldr	r0, [sp, #20]
 80060b8:	9b06      	ldr	r3, [sp, #24]
 80060ba:	aa09      	add	r2, sp, #36	; 0x24
 80060bc:	f7ff fede 	bl	8005e7c <_printf_common>
 80060c0:	1c43      	adds	r3, r0, #1
 80060c2:	d135      	bne.n	8006130 <_printf_i+0x1d4>
 80060c4:	2001      	movs	r0, #1
 80060c6:	4240      	negs	r0, r0
 80060c8:	b00b      	add	sp, #44	; 0x2c
 80060ca:	bdf0      	pop	{r4, r5, r6, r7, pc}
 80060cc:	2220      	movs	r2, #32
 80060ce:	6809      	ldr	r1, [r1, #0]
 80060d0:	430a      	orrs	r2, r1
 80060d2:	6022      	str	r2, [r4, #0]
 80060d4:	0022      	movs	r2, r4
 80060d6:	2178      	movs	r1, #120	; 0x78
 80060d8:	3245      	adds	r2, #69	; 0x45
 80060da:	7011      	strb	r1, [r2, #0]
 80060dc:	4a27      	ldr	r2, [pc, #156]	; (800617c <_printf_i+0x220>)
 80060de:	e7a7      	b.n	8006030 <_printf_i+0xd4>
 80060e0:	0648      	lsls	r0, r1, #25
 80060e2:	d5ac      	bpl.n	800603e <_printf_i+0xe2>
 80060e4:	b2ad      	uxth	r5, r5
 80060e6:	e7aa      	b.n	800603e <_printf_i+0xe2>
 80060e8:	681a      	ldr	r2, [r3, #0]
 80060ea:	680d      	ldr	r5, [r1, #0]
 80060ec:	1d10      	adds	r0, r2, #4
 80060ee:	6949      	ldr	r1, [r1, #20]
 80060f0:	6018      	str	r0, [r3, #0]
 80060f2:	6813      	ldr	r3, [r2, #0]
 80060f4:	062e      	lsls	r6, r5, #24
 80060f6:	d501      	bpl.n	80060fc <_printf_i+0x1a0>
 80060f8:	6019      	str	r1, [r3, #0]
 80060fa:	e002      	b.n	8006102 <_printf_i+0x1a6>
 80060fc:	066d      	lsls	r5, r5, #25
 80060fe:	d5fb      	bpl.n	80060f8 <_printf_i+0x19c>
 8006100:	8019      	strh	r1, [r3, #0]
 8006102:	2300      	movs	r3, #0
 8006104:	9e04      	ldr	r6, [sp, #16]
 8006106:	6123      	str	r3, [r4, #16]
 8006108:	e7d2      	b.n	80060b0 <_printf_i+0x154>
 800610a:	681a      	ldr	r2, [r3, #0]
 800610c:	1d11      	adds	r1, r2, #4
 800610e:	6019      	str	r1, [r3, #0]
 8006110:	6816      	ldr	r6, [r2, #0]
 8006112:	2100      	movs	r1, #0
 8006114:	0030      	movs	r0, r6
 8006116:	6862      	ldr	r2, [r4, #4]
 8006118:	f000 f840 	bl	800619c <memchr>
 800611c:	2800      	cmp	r0, #0
 800611e:	d001      	beq.n	8006124 <_printf_i+0x1c8>
 8006120:	1b80      	subs	r0, r0, r6
 8006122:	6060      	str	r0, [r4, #4]
 8006124:	6863      	ldr	r3, [r4, #4]
 8006126:	6123      	str	r3, [r4, #16]
 8006128:	2300      	movs	r3, #0
 800612a:	9a04      	ldr	r2, [sp, #16]
 800612c:	7013      	strb	r3, [r2, #0]
 800612e:	e7bf      	b.n	80060b0 <_printf_i+0x154>
 8006130:	6923      	ldr	r3, [r4, #16]
 8006132:	0032      	movs	r2, r6
 8006134:	9906      	ldr	r1, [sp, #24]
 8006136:	9805      	ldr	r0, [sp, #20]
 8006138:	9d07      	ldr	r5, [sp, #28]
 800613a:	47a8      	blx	r5
 800613c:	1c43      	adds	r3, r0, #1
 800613e:	d0c1      	beq.n	80060c4 <_printf_i+0x168>
 8006140:	6823      	ldr	r3, [r4, #0]
 8006142:	079b      	lsls	r3, r3, #30
 8006144:	d415      	bmi.n	8006172 <_printf_i+0x216>
 8006146:	9b09      	ldr	r3, [sp, #36]	; 0x24
 8006148:	68e0      	ldr	r0, [r4, #12]
 800614a:	4298      	cmp	r0, r3
 800614c:	dabc      	bge.n	80060c8 <_printf_i+0x16c>
 800614e:	0018      	movs	r0, r3
 8006150:	e7ba      	b.n	80060c8 <_printf_i+0x16c>
 8006152:	0022      	movs	r2, r4
 8006154:	2301      	movs	r3, #1
 8006156:	9906      	ldr	r1, [sp, #24]
 8006158:	9805      	ldr	r0, [sp, #20]
 800615a:	9e07      	ldr	r6, [sp, #28]
 800615c:	3219      	adds	r2, #25
 800615e:	47b0      	blx	r6
 8006160:	1c43      	adds	r3, r0, #1
 8006162:	d0af      	beq.n	80060c4 <_printf_i+0x168>
 8006164:	3501      	adds	r5, #1
 8006166:	68e3      	ldr	r3, [r4, #12]
 8006168:	9a09      	ldr	r2, [sp, #36]	; 0x24
 800616a:	1a9b      	subs	r3, r3, r2
 800616c:	42ab      	cmp	r3, r5
 800616e:	dcf0      	bgt.n	8006152 <_printf_i+0x1f6>
 8006170:	e7e9      	b.n	8006146 <_printf_i+0x1ea>
 8006172:	2500      	movs	r5, #0
 8006174:	e7f7      	b.n	8006166 <_printf_i+0x20a>
 8006176:	46c0      	nop			; (mov r8, r8)
 8006178:	0800673a 	.word	0x0800673a
 800617c:	0800674b 	.word	0x0800674b

08006180 <strchr>:
 8006180:	b2c9      	uxtb	r1, r1
 8006182:	7803      	ldrb	r3, [r0, #0]
 8006184:	2b00      	cmp	r3, #0
 8006186:	d004      	beq.n	8006192 <strchr+0x12>
 8006188:	428b      	cmp	r3, r1
 800618a:	d100      	bne.n	800618e <strchr+0xe>
 800618c:	4770      	bx	lr
 800618e:	3001      	adds	r0, #1
 8006190:	e7f7      	b.n	8006182 <strchr+0x2>
 8006192:	424b      	negs	r3, r1
 8006194:	4159      	adcs	r1, r3
 8006196:	4249      	negs	r1, r1
 8006198:	4008      	ands	r0, r1
 800619a:	e7f7      	b.n	800618c <strchr+0xc>

0800619c <memchr>:
 800619c:	b2c9      	uxtb	r1, r1
 800619e:	1882      	adds	r2, r0, r2
 80061a0:	4290      	cmp	r0, r2
 80061a2:	d101      	bne.n	80061a8 <memchr+0xc>
 80061a4:	2000      	movs	r0, #0
 80061a6:	4770      	bx	lr
 80061a8:	7803      	ldrb	r3, [r0, #0]
 80061aa:	428b      	cmp	r3, r1
 80061ac:	d0fb      	beq.n	80061a6 <memchr+0xa>
 80061ae:	3001      	adds	r0, #1
 80061b0:	e7f6      	b.n	80061a0 <memchr+0x4>

080061b2 <memmove>:
 80061b2:	b510      	push	{r4, lr}
 80061b4:	4288      	cmp	r0, r1
 80061b6:	d902      	bls.n	80061be <memmove+0xc>
 80061b8:	188b      	adds	r3, r1, r2
 80061ba:	4298      	cmp	r0, r3
 80061bc:	d303      	bcc.n	80061c6 <memmove+0x14>
 80061be:	2300      	movs	r3, #0
 80061c0:	e007      	b.n	80061d2 <memmove+0x20>
 80061c2:	5c8b      	ldrb	r3, [r1, r2]
 80061c4:	5483      	strb	r3, [r0, r2]
 80061c6:	3a01      	subs	r2, #1
 80061c8:	d2fb      	bcs.n	80061c2 <memmove+0x10>
 80061ca:	bd10      	pop	{r4, pc}
 80061cc:	5ccc      	ldrb	r4, [r1, r3]
 80061ce:	54c4      	strb	r4, [r0, r3]
 80061d0:	3301      	adds	r3, #1
 80061d2:	429a      	cmp	r2, r3
 80061d4:	d1fa      	bne.n	80061cc <memmove+0x1a>
 80061d6:	e7f8      	b.n	80061ca <memmove+0x18>

080061d8 <_free_r>:
 80061d8:	b570      	push	{r4, r5, r6, lr}
 80061da:	0005      	movs	r5, r0
 80061dc:	2900      	cmp	r1, #0
 80061de:	d010      	beq.n	8006202 <_free_r+0x2a>
 80061e0:	1f0c      	subs	r4, r1, #4
 80061e2:	6823      	ldr	r3, [r4, #0]
 80061e4:	2b00      	cmp	r3, #0
 80061e6:	da00      	bge.n	80061ea <_free_r+0x12>
 80061e8:	18e4      	adds	r4, r4, r3
 80061ea:	0028      	movs	r0, r5
 80061ec:	f000 f8d4 	bl	8006398 <__malloc_lock>
 80061f0:	4a1d      	ldr	r2, [pc, #116]	; (8006268 <_free_r+0x90>)
 80061f2:	6813      	ldr	r3, [r2, #0]
 80061f4:	2b00      	cmp	r3, #0
 80061f6:	d105      	bne.n	8006204 <_free_r+0x2c>
 80061f8:	6063      	str	r3, [r4, #4]
 80061fa:	6014      	str	r4, [r2, #0]
 80061fc:	0028      	movs	r0, r5
 80061fe:	f000 f8d3 	bl	80063a8 <__malloc_unlock>
 8006202:	bd70      	pop	{r4, r5, r6, pc}
 8006204:	42a3      	cmp	r3, r4
 8006206:	d908      	bls.n	800621a <_free_r+0x42>
 8006208:	6821      	ldr	r1, [r4, #0]
 800620a:	1860      	adds	r0, r4, r1
 800620c:	4283      	cmp	r3, r0
 800620e:	d1f3      	bne.n	80061f8 <_free_r+0x20>
 8006210:	6818      	ldr	r0, [r3, #0]
 8006212:	685b      	ldr	r3, [r3, #4]
 8006214:	1841      	adds	r1, r0, r1
 8006216:	6021      	str	r1, [r4, #0]
 8006218:	e7ee      	b.n	80061f8 <_free_r+0x20>
 800621a:	001a      	movs	r2, r3
 800621c:	685b      	ldr	r3, [r3, #4]
 800621e:	2b00      	cmp	r3, #0
 8006220:	d001      	beq.n	8006226 <_free_r+0x4e>
 8006222:	42a3      	cmp	r3, r4
 8006224:	d9f9      	bls.n	800621a <_free_r+0x42>
 8006226:	6811      	ldr	r1, [r2, #0]
 8006228:	1850      	adds	r0, r2, r1
 800622a:	42a0      	cmp	r0, r4
 800622c:	d10b      	bne.n	8006246 <_free_r+0x6e>
 800622e:	6820      	ldr	r0, [r4, #0]
 8006230:	1809      	adds	r1, r1, r0
 8006232:	1850      	adds	r0, r2, r1
 8006234:	6011      	str	r1, [r2, #0]
 8006236:	4283      	cmp	r3, r0
 8006238:	d1e0      	bne.n	80061fc <_free_r+0x24>
 800623a:	6818      	ldr	r0, [r3, #0]
 800623c:	685b      	ldr	r3, [r3, #4]
 800623e:	1841      	adds	r1, r0, r1
 8006240:	6011      	str	r1, [r2, #0]
 8006242:	6053      	str	r3, [r2, #4]
 8006244:	e7da      	b.n	80061fc <_free_r+0x24>
 8006246:	42a0      	cmp	r0, r4
 8006248:	d902      	bls.n	8006250 <_free_r+0x78>
 800624a:	230c      	movs	r3, #12
 800624c:	602b      	str	r3, [r5, #0]
 800624e:	e7d5      	b.n	80061fc <_free_r+0x24>
 8006250:	6821      	ldr	r1, [r4, #0]
 8006252:	1860      	adds	r0, r4, r1
 8006254:	4283      	cmp	r3, r0
 8006256:	d103      	bne.n	8006260 <_free_r+0x88>
 8006258:	6818      	ldr	r0, [r3, #0]
 800625a:	685b      	ldr	r3, [r3, #4]
 800625c:	1841      	adds	r1, r0, r1
 800625e:	6021      	str	r1, [r4, #0]
 8006260:	6063      	str	r3, [r4, #4]
 8006262:	6054      	str	r4, [r2, #4]
 8006264:	e7ca      	b.n	80061fc <_free_r+0x24>
 8006266:	46c0      	nop			; (mov r8, r8)
 8006268:	200000b4 	.word	0x200000b4

0800626c <_malloc_r>:
 800626c:	b5f8      	push	{r3, r4, r5, r6, r7, lr}
 800626e:	2303      	movs	r3, #3
 8006270:	1ccd      	adds	r5, r1, #3
 8006272:	439d      	bics	r5, r3
 8006274:	3508      	adds	r5, #8
 8006276:	0006      	movs	r6, r0
 8006278:	2d0c      	cmp	r5, #12
 800627a:	d21f      	bcs.n	80062bc <_malloc_r+0x50>
 800627c:	250c      	movs	r5, #12
 800627e:	42a9      	cmp	r1, r5
 8006280:	d81e      	bhi.n	80062c0 <_malloc_r+0x54>
 8006282:	0030      	movs	r0, r6
 8006284:	f000 f888 	bl	8006398 <__malloc_lock>
 8006288:	4925      	ldr	r1, [pc, #148]	; (8006320 <_malloc_r+0xb4>)
 800628a:	680a      	ldr	r2, [r1, #0]
 800628c:	0014      	movs	r4, r2
 800628e:	2c00      	cmp	r4, #0
 8006290:	d11a      	bne.n	80062c8 <_malloc_r+0x5c>
 8006292:	4f24      	ldr	r7, [pc, #144]	; (8006324 <_malloc_r+0xb8>)
 8006294:	683b      	ldr	r3, [r7, #0]
 8006296:	2b00      	cmp	r3, #0
 8006298:	d104      	bne.n	80062a4 <_malloc_r+0x38>
 800629a:	0021      	movs	r1, r4
 800629c:	0030      	movs	r0, r6
 800629e:	f000 f869 	bl	8006374 <_sbrk_r>
 80062a2:	6038      	str	r0, [r7, #0]
 80062a4:	0029      	movs	r1, r5
 80062a6:	0030      	movs	r0, r6
 80062a8:	f000 f864 	bl	8006374 <_sbrk_r>
 80062ac:	1c43      	adds	r3, r0, #1
 80062ae:	d12b      	bne.n	8006308 <_malloc_r+0x9c>
 80062b0:	230c      	movs	r3, #12
 80062b2:	0030      	movs	r0, r6
 80062b4:	6033      	str	r3, [r6, #0]
 80062b6:	f000 f877 	bl	80063a8 <__malloc_unlock>
 80062ba:	e003      	b.n	80062c4 <_malloc_r+0x58>
 80062bc:	2d00      	cmp	r5, #0
 80062be:	dade      	bge.n	800627e <_malloc_r+0x12>
 80062c0:	230c      	movs	r3, #12
 80062c2:	6033      	str	r3, [r6, #0]
 80062c4:	2000      	movs	r0, #0
 80062c6:	bdf8      	pop	{r3, r4, r5, r6, r7, pc}
 80062c8:	6823      	ldr	r3, [r4, #0]
 80062ca:	1b5b      	subs	r3, r3, r5
 80062cc:	d419      	bmi.n	8006302 <_malloc_r+0x96>
 80062ce:	2b0b      	cmp	r3, #11
 80062d0:	d903      	bls.n	80062da <_malloc_r+0x6e>
 80062d2:	6023      	str	r3, [r4, #0]
 80062d4:	18e4      	adds	r4, r4, r3
 80062d6:	6025      	str	r5, [r4, #0]
 80062d8:	e003      	b.n	80062e2 <_malloc_r+0x76>
 80062da:	6863      	ldr	r3, [r4, #4]
 80062dc:	42a2      	cmp	r2, r4
 80062de:	d10e      	bne.n	80062fe <_malloc_r+0x92>
 80062e0:	600b      	str	r3, [r1, #0]
 80062e2:	0030      	movs	r0, r6
 80062e4:	f000 f860 	bl	80063a8 <__malloc_unlock>
 80062e8:	0020      	movs	r0, r4
 80062ea:	2207      	movs	r2, #7
 80062ec:	300b      	adds	r0, #11
 80062ee:	1d23      	adds	r3, r4, #4
 80062f0:	4390      	bics	r0, r2
 80062f2:	1ac2      	subs	r2, r0, r3
 80062f4:	4298      	cmp	r0, r3
 80062f6:	d0e6      	beq.n	80062c6 <_malloc_r+0x5a>
 80062f8:	1a1b      	subs	r3, r3, r0
 80062fa:	50a3      	str	r3, [r4, r2]
 80062fc:	e7e3      	b.n	80062c6 <_malloc_r+0x5a>
 80062fe:	6053      	str	r3, [r2, #4]
 8006300:	e7ef      	b.n	80062e2 <_malloc_r+0x76>
 8006302:	0022      	movs	r2, r4
 8006304:	6864      	ldr	r4, [r4, #4]
 8006306:	e7c2      	b.n	800628e <_malloc_r+0x22>
 8006308:	2303      	movs	r3, #3
 800630a:	1cc4      	adds	r4, r0, #3
 800630c:	439c      	bics	r4, r3
 800630e:	42a0      	cmp	r0, r4
 8006310:	d0e1      	beq.n	80062d6 <_malloc_r+0x6a>
 8006312:	1a21      	subs	r1, r4, r0
 8006314:	0030      	movs	r0, r6
 8006316:	f000 f82d 	bl	8006374 <_sbrk_r>
 800631a:	1c43      	adds	r3, r0, #1
 800631c:	d1db      	bne.n	80062d6 <_malloc_r+0x6a>
 800631e:	e7c7      	b.n	80062b0 <_malloc_r+0x44>
 8006320:	200000b4 	.word	0x200000b4
 8006324:	200000b8 	.word	0x200000b8

08006328 <_realloc_r>:
 8006328:	b5f8      	push	{r3, r4, r5, r6, r7, lr}
 800632a:	0007      	movs	r7, r0
 800632c:	000d      	movs	r5, r1
 800632e:	0016      	movs	r6, r2
 8006330:	2900      	cmp	r1, #0
 8006332:	d105      	bne.n	8006340 <_realloc_r+0x18>
 8006334:	0011      	movs	r1, r2
 8006336:	f7ff ff99 	bl	800626c <_malloc_r>
 800633a:	0004      	movs	r4, r0
 800633c:	0020      	movs	r0, r4
 800633e:	bdf8      	pop	{r3, r4, r5, r6, r7, pc}
 8006340:	2a00      	cmp	r2, #0
 8006342:	d103      	bne.n	800634c <_realloc_r+0x24>
 8006344:	f7ff ff48 	bl	80061d8 <_free_r>
 8006348:	0034      	movs	r4, r6
 800634a:	e7f7      	b.n	800633c <_realloc_r+0x14>
 800634c:	f000 f834 	bl	80063b8 <_malloc_usable_size_r>
 8006350:	002c      	movs	r4, r5
 8006352:	42b0      	cmp	r0, r6
 8006354:	d2f2      	bcs.n	800633c <_realloc_r+0x14>
 8006356:	0031      	movs	r1, r6
 8006358:	0038      	movs	r0, r7
 800635a:	f7ff ff87 	bl	800626c <_malloc_r>
 800635e:	1e04      	subs	r4, r0, #0
 8006360:	d0ec      	beq.n	800633c <_realloc_r+0x14>
 8006362:	0029      	movs	r1, r5
 8006364:	0032      	movs	r2, r6
 8006366:	f7ff fb37 	bl	80059d8 <memcpy>
 800636a:	0029      	movs	r1, r5
 800636c:	0038      	movs	r0, r7
 800636e:	f7ff ff33 	bl	80061d8 <_free_r>
 8006372:	e7e3      	b.n	800633c <_realloc_r+0x14>

08006374 <_sbrk_r>:
 8006374:	2300      	movs	r3, #0
 8006376:	b570      	push	{r4, r5, r6, lr}
 8006378:	4d06      	ldr	r5, [pc, #24]	; (8006394 <_sbrk_r+0x20>)
 800637a:	0004      	movs	r4, r0
 800637c:	0008      	movs	r0, r1
 800637e:	602b      	str	r3, [r5, #0]
 8006380:	f7fa ffca 	bl	8001318 <_sbrk>
 8006384:	1c43      	adds	r3, r0, #1
 8006386:	d103      	bne.n	8006390 <_sbrk_r+0x1c>
 8006388:	682b      	ldr	r3, [r5, #0]
 800638a:	2b00      	cmp	r3, #0
 800638c:	d000      	beq.n	8006390 <_sbrk_r+0x1c>
 800638e:	6023      	str	r3, [r4, #0]
 8006390:	bd70      	pop	{r4, r5, r6, pc}
 8006392:	46c0      	nop			; (mov r8, r8)
 8006394:	2000038c 	.word	0x2000038c

08006398 <__malloc_lock>:
 8006398:	b510      	push	{r4, lr}
 800639a:	4802      	ldr	r0, [pc, #8]	; (80063a4 <__malloc_lock+0xc>)
 800639c:	f000 f814 	bl	80063c8 <__retarget_lock_acquire_recursive>
 80063a0:	bd10      	pop	{r4, pc}
 80063a2:	46c0      	nop			; (mov r8, r8)
 80063a4:	20000394 	.word	0x20000394

080063a8 <__malloc_unlock>:
 80063a8:	b510      	push	{r4, lr}
 80063aa:	4802      	ldr	r0, [pc, #8]	; (80063b4 <__malloc_unlock+0xc>)
 80063ac:	f000 f80d 	bl	80063ca <__retarget_lock_release_recursive>
 80063b0:	bd10      	pop	{r4, pc}
 80063b2:	46c0      	nop			; (mov r8, r8)
 80063b4:	20000394 	.word	0x20000394

080063b8 <_malloc_usable_size_r>:
 80063b8:	1f0b      	subs	r3, r1, #4
 80063ba:	681b      	ldr	r3, [r3, #0]
 80063bc:	1f18      	subs	r0, r3, #4
 80063be:	2b00      	cmp	r3, #0
 80063c0:	da01      	bge.n	80063c6 <_malloc_usable_size_r+0xe>
 80063c2:	580b      	ldr	r3, [r1, r0]
 80063c4:	18c0      	adds	r0, r0, r3
 80063c6:	4770      	bx	lr

080063c8 <__retarget_lock_acquire_recursive>:
 80063c8:	4770      	bx	lr

080063ca <__retarget_lock_release_recursive>:
 80063ca:	4770      	bx	lr

080063cc <_init>:
 80063cc:	b5f8      	push	{r3, r4, r5, r6, r7, lr}
 80063ce:	46c0      	nop			; (mov r8, r8)
 80063d0:	bcf8      	pop	{r3, r4, r5, r6, r7}
 80063d2:	bc08      	pop	{r3}
 80063d4:	469e      	mov	lr, r3
 80063d6:	4770      	bx	lr

080063d8 <_fini>:
 80063d8:	b5f8      	push	{r3, r4, r5, r6, r7, lr}
 80063da:	46c0      	nop			; (mov r8, r8)
 80063dc:	bcf8      	pop	{r3, r4, r5, r6, r7}
 80063de:	bc08      	pop	{r3}
 80063e0:	469e      	mov	lr, r3
 80063e2:	4770      	bx	lr
